
out.elf:     file format elf32-tradlittlemips


Disassembly of section .config_BFC02FF0:

bfc02ff0 <__config_BFC02FF0>:
bfc02ff0:	ff ff fe fa                                         ....

Disassembly of section .config_BFC02FF4:

bfc02ff4 <__config_BFC02FF4>:
bfc02ff4:	d9 79 f8 ff                                         .y..

Disassembly of section .config_BFC02FF8:

bfc02ff8 <__config_BFC02FF8>:
bfc02ff8:	db ce 6c ff                                         ..l.

Disassembly of section .config_BFC02FFC:

bfc02ffc <__config_BFC02FFC>:
bfc02ffc:	ff ff ff 7e                                         ...~

Disassembly of section .reset:

bd001970 <_reset>:
bd001970:	0f40065e 	jal	bd001978 <_startup>
bd001974:	00000000 	nop

bd001978 <_startup>:
bd001978:	401a6000 	mfc0	k0,c0_status
bd00197c:	7f5a04c0 	ext	k0,k0,0x13,0x1
bd001980:	13400005 	beqz	k0,bd001998 <_no_nmi>
bd001984:	00000000 	nop
bd001988:	3c1a9d00 	lui	k0,0x9d00
bd00198c:	275a40f0 	addiu	k0,k0,16624
bd001990:	03400008 	jr	k0
bd001994:	00000000 	nop

bd001998 <_no_nmi>:
bd001998:	3c1da002 	lui	sp,0xa002
bd00199c:	27bdfff8 	addiu	sp,sp,-8
bd0019a0:	3c1ca000 	lui	gp,0xa000
bd0019a4:	279c7ff0 	addiu	gp,gp,32752
bd0019a8:	40096002 	mfc0	t1,c0_srsctl
bd0019ac:	01205820 	add	t3,t1,zero
bd0019b0:	7d2a1e80 	ext	t2,t1,0x1a,0x4
bd0019b4:	7d494984 	ins	t1,t2,0x6,0x4
bd0019b8:	40896002 	mtc0	t1,c0_srsctl
bd0019bc:	000000c0 	ehb
bd0019c0:	41dce000 	wrpgpr	gp,gp
bd0019c4:	408b6002 	mtc0	t3,c0_srsctl
bd0019c8:	000000c0 	ehb
bd0019cc:	3c089d00 	lui	t0,0x9d00
bd0019d0:	25084158 	addiu	t0,t0,16728
bd0019d4:	0100f809 	jalr	t0
bd0019d8:	00000000 	nop

bd0019dc <_start_bss_init>:
bd0019dc:	3c08a000 	lui	t0,0xa000
bd0019e0:	25080008 	addiu	t0,t0,8
bd0019e4:	3c09a000 	lui	t1,0xa000
bd0019e8:	2529000c 	addiu	t1,t1,12
bd0019ec:	10000003 	b	bd0019fc <_bss_check>
bd0019f0:	00000000 	nop

bd0019f4 <_bss_init>:
bd0019f4:	ad000000 	sw	zero,0(t0)
bd0019f8:	25080004 	addiu	t0,t0,4

bd0019fc <_bss_check>:
bd0019fc:	0109082b 	sltu	at,t0,t1
bd001a00:	1420fffc 	bnez	at,bd0019f4 <_bss_init>
bd001a04:	00000000 	nop
bd001a08:	3c089d00 	lui	t0,0x9d00
bd001a0c:	25083c0c 	addiu	t0,t0,15372
bd001a10:	0100f809 	jalr	t0
bd001a14:	00000000 	nop
bd001a18:	3c090000 	lui	t1,0x0
bd001a1c:	25290000 	addiu	t1,t1,0
bd001a20:	11200010 	beqz	t1,bd001a64 <_ramfunc_done>
bd001a24:	00000000 	nop
bd001a28:	3c090002 	lui	t1,0x2
bd001a2c:	25290000 	addiu	t1,t1,0
bd001a30:	3c0abf88 	lui	t2,0xbf88
bd001a34:	254a2010 	addiu	t2,t2,8208
bd001a38:	ad490000 	sw	t1,0(t2)
bd001a3c:	3c090002 	lui	t1,0x2
bd001a40:	25290000 	addiu	t1,t1,0
bd001a44:	3c0abf88 	lui	t2,0xbf88
bd001a48:	254a2020 	addiu	t2,t2,8224
bd001a4c:	ad490000 	sw	t1,0(t2)
bd001a50:	3c090002 	lui	t1,0x2
bd001a54:	25290000 	addiu	t1,t1,0
bd001a58:	3c0abf88 	lui	t2,0xbf88
bd001a5c:	254a2030 	addiu	t2,t2,8240
bd001a60:	ad490000 	sw	t1,0(t2)

bd001a64 <_ramfunc_done>:
bd001a64:	40804800 	mtc0	zero,c0_count
bd001a68:	240affff 	li	t2,-1
bd001a6c:	408a5800 	mtc0	t2,c0_compare
bd001a70:	3c080040 	lui	t0,0x40
bd001a74:	400a6000 	mfc0	t2,c0_status
bd001a78:	010a5025 	or	t2,t0,t2
bd001a7c:	408a6000 	mtc0	t2,c0_status
bd001a80:	3c099d00 	lui	t1,0x9d00
bd001a84:	25290000 	addiu	t1,t1,0
bd001a88:	000000c0 	ehb
bd001a8c:	40897801 	mtc0	t1,c0_ebase
bd001a90:	3c090000 	lui	t1,0x0
bd001a94:	25290001 	addiu	t1,t1,1
bd001a98:	240a0000 	li	t2,0
bd001a9c:	7d2a4944 	ins	t2,t1,0x5,0x5
bd001aa0:	408a6001 	mtc0	t2,c0_intctl
bd001aa4:	3c090080 	lui	t1,0x80
bd001aa8:	40896800 	mtc0	t1,c0_cause
bd001aac:	40088000 	mfc0	t0,c0_config
bd001ab0:	7d090580 	ext	t1,t0,0x16,0x1
bd001ab4:	00094c40 	sll	t1,t1,0x11
bd001ab8:	40086000 	mfc0	t0,c0_status
bd001abc:	3c010058 	lui	at,0x58
bd001ac0:	01014024 	and	t0,t0,at
bd001ac4:	01284025 	or	t0,t1,t0
bd001ac8:	40886000 	mtc0	t0,c0_status
bd001acc:	000000c0 	ehb
bd001ad0:	3c089d00 	lui	t0,0x9d00
bd001ad4:	25084160 	addiu	t0,t0,16736
bd001ad8:	0100f809 	jalr	t0
bd001adc:	00000000 	nop
bd001ae0:	40086000 	mfc0	t0,c0_status
bd001ae4:	3c01ffbf 	lui	at,0xffbf
bd001ae8:	3421ffff 	ori	at,at,0xffff
bd001aec:	01014024 	and	t0,t0,at
bd001af0:	40886000 	mtc0	t0,c0_status
bd001af4:	30840000 	andi	a0,a0,0x0
bd001af8:	30a50000 	andi	a1,a1,0x0
bd001afc:	3c089d00 	lui	t0,0x9d00
bd001b00:	25083e30 	addiu	t0,t0,15920
bd001b04:	01000008 	jr	t0
bd001b08:	00000000 	nop

Disassembly of section .bev_excpt:

bd001cf0 <_bev_exception>:
bd001cf0:	3c1a9d00 	lui	k0,0x9d00
bd001cf4:	275a3ed8 	addiu	k0,k0,16088
bd001cf8:	03400008 	jr	k0
bd001cfc:	00000000 	nop

Disassembly of section .app_excpt:

9d000180 <_gen_exception>:
9d000180:	3c1a9d00 	lui	k0,0x9d00
9d000184:	275a383c 	addiu	k0,k0,14396
9d000188:	03400008 	jr	k0
9d00018c:	00000000 	nop

Disassembly of section .vector_0:

9d000200 <__vector_dispatch_0>:
9d000200:	0b400fda 	j	9d003f68 <_DefaultInterrupt>
9d000204:	00000000 	nop

Disassembly of section .vector_1:

9d000220 <__vector_dispatch_1>:
9d000220:	0b400fda 	j	9d003f68 <_DefaultInterrupt>
9d000224:	00000000 	nop

Disassembly of section .vector_2:

9d000240 <__vector_dispatch_2>:
9d000240:	0b400fda 	j	9d003f68 <_DefaultInterrupt>
9d000244:	00000000 	nop

Disassembly of section .vector_3:

9d000260 <__vector_dispatch_3>:
9d000260:	0b400fda 	j	9d003f68 <_DefaultInterrupt>
9d000264:	00000000 	nop

Disassembly of section .vector_4:

9d000280 <__vector_dispatch_4>:
9d000280:	0b400fda 	j	9d003f68 <_DefaultInterrupt>
9d000284:	00000000 	nop

Disassembly of section .vector_5:

9d0002a0 <__vector_dispatch_5>:
9d0002a0:	0b400fda 	j	9d003f68 <_DefaultInterrupt>
9d0002a4:	00000000 	nop

Disassembly of section .vector_6:

9d0002c0 <__vector_dispatch_6>:
9d0002c0:	0b400fda 	j	9d003f68 <_DefaultInterrupt>
9d0002c4:	00000000 	nop

Disassembly of section .vector_7:

9d0002e0 <__vector_dispatch_7>:
9d0002e0:	0b400fda 	j	9d003f68 <_DefaultInterrupt>
9d0002e4:	00000000 	nop

Disassembly of section .vector_8:

9d000300 <__vector_dispatch_8>:
9d000300:	0b400fda 	j	9d003f68 <_DefaultInterrupt>
9d000304:	00000000 	nop

Disassembly of section .vector_9:

9d000320 <__vector_dispatch_9>:
9d000320:	0b400fda 	j	9d003f68 <_DefaultInterrupt>
9d000324:	00000000 	nop

Disassembly of section .vector_10:

9d000340 <__vector_dispatch_10>:
9d000340:	0b400fda 	j	9d003f68 <_DefaultInterrupt>
9d000344:	00000000 	nop

Disassembly of section .vector_11:

9d000360 <__vector_dispatch_11>:
9d000360:	0b400fda 	j	9d003f68 <_DefaultInterrupt>
9d000364:	00000000 	nop

Disassembly of section .vector_12:

9d000380 <__vector_dispatch_12>:
9d000380:	0b400fda 	j	9d003f68 <_DefaultInterrupt>
9d000384:	00000000 	nop

Disassembly of section .vector_13:

9d0003a0 <__vector_dispatch_13>:
9d0003a0:	0b400fda 	j	9d003f68 <_DefaultInterrupt>
9d0003a4:	00000000 	nop

Disassembly of section .vector_14:

9d0003c0 <__vector_dispatch_14>:
9d0003c0:	0b400fda 	j	9d003f68 <_DefaultInterrupt>
9d0003c4:	00000000 	nop

Disassembly of section .vector_15:

9d0003e0 <__vector_dispatch_15>:
9d0003e0:	0b400fda 	j	9d003f68 <_DefaultInterrupt>
9d0003e4:	00000000 	nop

Disassembly of section .vector_16:

9d000400 <__vector_dispatch_16>:
9d000400:	0b400fda 	j	9d003f68 <_DefaultInterrupt>
9d000404:	00000000 	nop

Disassembly of section .vector_17:

9d000420 <__vector_dispatch_17>:
9d000420:	0b400fda 	j	9d003f68 <_DefaultInterrupt>
9d000424:	00000000 	nop

Disassembly of section .vector_18:

9d000440 <__vector_dispatch_18>:
9d000440:	0b400fda 	j	9d003f68 <_DefaultInterrupt>
9d000444:	00000000 	nop

Disassembly of section .vector_19:

9d000460 <__vector_dispatch_19>:
9d000460:	0b400fda 	j	9d003f68 <_DefaultInterrupt>
9d000464:	00000000 	nop

Disassembly of section .vector_20:

9d000480 <__vector_dispatch_20>:
9d000480:	0b400fda 	j	9d003f68 <_DefaultInterrupt>
9d000484:	00000000 	nop

Disassembly of section .vector_21:

9d0004a0 <__vector_dispatch_21>:
9d0004a0:	0b400fda 	j	9d003f68 <_DefaultInterrupt>
9d0004a4:	00000000 	nop

Disassembly of section .vector_22:

9d0004c0 <__vector_dispatch_22>:
9d0004c0:	0b400fda 	j	9d003f68 <_DefaultInterrupt>
9d0004c4:	00000000 	nop

Disassembly of section .vector_23:

9d0004e0 <__vector_dispatch_23>:
9d0004e0:	0b400fda 	j	9d003f68 <_DefaultInterrupt>
9d0004e4:	00000000 	nop

Disassembly of section .vector_24:

9d000500 <__vector_dispatch_24>:
9d000500:	0b400fda 	j	9d003f68 <_DefaultInterrupt>
9d000504:	00000000 	nop

Disassembly of section .vector_25:

9d000520 <__vector_dispatch_25>:
9d000520:	0b400fda 	j	9d003f68 <_DefaultInterrupt>
9d000524:	00000000 	nop

Disassembly of section .vector_26:

9d000540 <__vector_dispatch_26>:
9d000540:	0b400fda 	j	9d003f68 <_DefaultInterrupt>
9d000544:	00000000 	nop

Disassembly of section .vector_27:

9d000560 <__vector_dispatch_27>:
9d000560:	0b400fda 	j	9d003f68 <_DefaultInterrupt>
9d000564:	00000000 	nop

Disassembly of section .vector_28:

9d000580 <__vector_dispatch_28>:
9d000580:	0b400fda 	j	9d003f68 <_DefaultInterrupt>
9d000584:	00000000 	nop

Disassembly of section .vector_29:

9d0005a0 <__vector_dispatch_29>:
9d0005a0:	0b400fda 	j	9d003f68 <_DefaultInterrupt>
9d0005a4:	00000000 	nop

Disassembly of section .vector_30:

9d0005c0 <__vector_dispatch_30>:
9d0005c0:	0b400fda 	j	9d003f68 <_DefaultInterrupt>
9d0005c4:	00000000 	nop

Disassembly of section .vector_31:

9d0005e0 <__vector_dispatch_31>:
9d0005e0:	0b400fda 	j	9d003f68 <_DefaultInterrupt>
9d0005e4:	00000000 	nop

Disassembly of section .vector_32:

9d000600 <__vector_dispatch_32>:
9d000600:	0b400fda 	j	9d003f68 <_DefaultInterrupt>
9d000604:	00000000 	nop

Disassembly of section .vector_33:

9d000620 <__vector_dispatch_33>:
9d000620:	0b400fda 	j	9d003f68 <_DefaultInterrupt>
9d000624:	00000000 	nop

Disassembly of section .vector_34:

9d000640 <__vector_dispatch_34>:
9d000640:	0b400fda 	j	9d003f68 <_DefaultInterrupt>
9d000644:	00000000 	nop

Disassembly of section .vector_35:

9d000660 <__vector_dispatch_35>:
9d000660:	0b400fda 	j	9d003f68 <_DefaultInterrupt>
9d000664:	00000000 	nop

Disassembly of section .vector_36:

9d000680 <__vector_dispatch_36>:
9d000680:	0b400fda 	j	9d003f68 <_DefaultInterrupt>
9d000684:	00000000 	nop

Disassembly of section .vector_37:

9d0006a0 <__vector_dispatch_37>:
9d0006a0:	0b400fda 	j	9d003f68 <_DefaultInterrupt>
9d0006a4:	00000000 	nop

Disassembly of section .vector_38:

9d0006c0 <__vector_dispatch_38>:
9d0006c0:	0b400fda 	j	9d003f68 <_DefaultInterrupt>
9d0006c4:	00000000 	nop

Disassembly of section .vector_39:

9d0006e0 <__vector_dispatch_39>:
9d0006e0:	0b400fda 	j	9d003f68 <_DefaultInterrupt>
9d0006e4:	00000000 	nop

Disassembly of section .vector_40:

9d000700 <__vector_dispatch_40>:
9d000700:	0b400fda 	j	9d003f68 <_DefaultInterrupt>
9d000704:	00000000 	nop

Disassembly of section .vector_41:

9d000720 <__vector_dispatch_41>:
9d000720:	0b400fda 	j	9d003f68 <_DefaultInterrupt>
9d000724:	00000000 	nop

Disassembly of section .vector_42:

9d000740 <__vector_dispatch_42>:
9d000740:	0b400fda 	j	9d003f68 <_DefaultInterrupt>
9d000744:	00000000 	nop

Disassembly of section .vector_43:

9d000760 <__vector_dispatch_43>:
9d000760:	0b400fda 	j	9d003f68 <_DefaultInterrupt>
9d000764:	00000000 	nop

Disassembly of section .vector_44:

9d000780 <__vector_dispatch_44>:
9d000780:	0b400fda 	j	9d003f68 <_DefaultInterrupt>
9d000784:	00000000 	nop

Disassembly of section .vector_45:

9d0007a0 <__vector_dispatch_45>:
9d0007a0:	0b400fda 	j	9d003f68 <_DefaultInterrupt>
9d0007a4:	00000000 	nop

Disassembly of section .vector_46:

9d0007c0 <__vector_dispatch_46>:
9d0007c0:	0b400fda 	j	9d003f68 <_DefaultInterrupt>
9d0007c4:	00000000 	nop

Disassembly of section .vector_47:

9d0007e0 <__vector_dispatch_47>:
9d0007e0:	0b400fda 	j	9d003f68 <_DefaultInterrupt>
9d0007e4:	00000000 	nop

Disassembly of section .vector_48:

9d000800 <__vector_dispatch_48>:
9d000800:	0b400fda 	j	9d003f68 <_DefaultInterrupt>
9d000804:	00000000 	nop

Disassembly of section .vector_49:

9d000820 <__vector_dispatch_49>:
9d000820:	0b400fda 	j	9d003f68 <_DefaultInterrupt>
9d000824:	00000000 	nop

Disassembly of section .vector_50:

9d000840 <__vector_dispatch_50>:
9d000840:	0b400fda 	j	9d003f68 <_DefaultInterrupt>
9d000844:	00000000 	nop

Disassembly of section .vector_51:

9d000860 <__vector_dispatch_51>:
9d000860:	0b400fda 	j	9d003f68 <_DefaultInterrupt>
9d000864:	00000000 	nop

Disassembly of section .rodata:

9d001e00 <.rodata>:
9d001e00:	74616857 	jalx	9185a15c <_bmxdudba_address+0x9183a15c>
9d001e04:	206f6420 	addi	t7,v1,25632
9d001e08:	20756f79 	addi	s5,v1,28537
9d001e0c:	746e6177 	jalx	91b985dc <_bmxdudba_address+0x91b785dc>
9d001e10:	206f7420 	addi	t7,v1,29728
9d001e14:	74697277 	jalx	91a5c9dc <_bmxdudba_address+0x91a3c9dc>
9d001e18:	00203f65 	0x203f65
9d001e1c:	65636552 	0x65636552
9d001e20:	64657669 	0x64657669
9d001e24:	00642520 	0x642520
9d001e28:	00000a0d 	break	0x0,0x28
9d001e2c:	20202020 	addi	zero,at,8224
9d001e30:	20202020 	addi	zero,at,8224
9d001e34:	20202020 	addi	zero,at,8224
9d001e38:	20202020 	addi	zero,at,8224
9d001e3c:	00202020 	add	a0,at,zero
9d001e40:	6c756e28 	0x6c756e28
9d001e44:	0000296c 	0x296c

Disassembly of section ._debug_exception:

bfc00480 <__DbgExecReturn>:
bfc00480:	409bf800 	mtc0	k1,c0_desave
bfc00484:	000000c0 	ehb
bfc00488:	3c1b9d00 	lui	k1,0x9d00
bfc0048c:	277b3fb0 	addiu	k1,k1,16304
bfc00490:	13600002 	beqz	k1,bfc0049c <__DbgExecReturn+0x1c>
bfc00494:	00000000 	nop
bfc00498:	409bc000 	mtc0	k1,c0_depc
bfc0049c:	401bf800 	mfc0	k1,c0_desave
bfc004a0:	000000c0 	ehb
bfc004a4:	4200001f 	deret
bfc004a8:	00000000 	nop

Disassembly of section .text._do_print_cdnopuxX:

9d001e48 <_do_print_cdnopuxX>:
9d001e48:	8c820018 	lw	v0,24(a0)
9d001e4c:	27bdff60 	addiu	sp,sp,-160
9d001e50:	afb60090 	sw	s6,144(sp)
9d001e54:	8c420010 	lw	v0,16(v0)
9d001e58:	afb30084 	sw	s3,132(sp)
9d001e5c:	afb20080 	sw	s2,128(sp)
9d001e60:	afbf009c 	sw	ra,156(sp)
9d001e64:	afbe0098 	sw	s8,152(sp)
9d001e68:	afb70094 	sw	s7,148(sp)
9d001e6c:	afb5008c 	sw	s5,140(sp)
9d001e70:	afb40088 	sw	s4,136(sp)
9d001e74:	afb1007c 	sw	s1,124(sp)
9d001e78:	afb00078 	sw	s0,120(sp)
9d001e7c:	00a0b025 	move	s6,a1
9d001e80:	24050001 	li	a1,1
9d001e84:	00809025 	move	s2,a0
9d001e88:	0040f809 	jalr	v0
9d001e8c:	00c09825 	move	s3,a2
9d001e90:	104001b8 	beqz	v0,9d002574 <_do_print_cdnopuxX+0x72c>
9d001e94:	3c159d00 	lui	s5,0x9d00
9d001e98:	26a21e40 	addiu	v0,s5,7744
9d001e9c:	00008025 	move	s0,zero
9d001ea0:	afa20060 	sw	v0,96(sp)
9d001ea4:	82c40000 	lb	a0,0(s6)
9d001ea8:	108001ae 	beqz	a0,9d002564 <_do_print_cdnopuxX+0x71c>
9d001eac:	26d10001 	addiu	s1,s6,1
9d001eb0:	24020025 	li	v0,37
9d001eb4:	50820006 	beql	a0,v0,9d001ed0 <_do_print_cdnopuxX+0x88>
9d001eb8:	82c70001 	lb	a3,1(s6)
9d001ebc:	0f400edb 	jal	9d003b6c <fputc>
9d001ec0:	02402825 	move	a1,s2
9d001ec4:	26100001 	addiu	s0,s0,1
9d001ec8:	1000fff6 	b	9d001ea4 <_do_print_cdnopuxX+0x5c>
9d001ecc:	0220b025 	move	s6,s1
9d001ed0:	10e4000b 	beq	a3,a0,9d001f00 <_do_print_cdnopuxX+0xb8>
9d001ed4:	00004025 	move	t0,zero
9d001ed8:	2403002d 	li	v1,45
9d001edc:	24040020 	li	a0,32
9d001ee0:	24050023 	li	a1,35
9d001ee4:	24060030 	li	a2,48
9d001ee8:	14e3000a 	bne	a3,v1,9d001f14 <_do_print_cdnopuxX+0xcc>
9d001eec:	26220001 	addiu	v0,s1,1
9d001ef0:	35080008 	ori	t0,t0,0x8
9d001ef4:	00408825 	move	s1,v0
9d001ef8:	1000fffb 	b	9d001ee8 <_do_print_cdnopuxX+0xa0>
9d001efc:	80470000 	lb	a3,0(v0)
9d001f00:	02402825 	move	a1,s2
9d001f04:	0f400edb 	jal	9d003b6c <fputc>
9d001f08:	24040025 	li	a0,37
9d001f0c:	1000ffed 	b	9d001ec4 <_do_print_cdnopuxX+0x7c>
9d001f10:	26d10002 	addiu	s1,s6,2
9d001f14:	2409002b 	li	t1,43
9d001f18:	14e90003 	bne	a3,t1,9d001f28 <_do_print_cdnopuxX+0xe0>
9d001f1c:	00000000 	nop
9d001f20:	1000fff4 	b	9d001ef4 <_do_print_cdnopuxX+0xac>
9d001f24:	35080002 	ori	t0,t0,0x2
9d001f28:	14e40003 	bne	a3,a0,9d001f38 <_do_print_cdnopuxX+0xf0>
9d001f2c:	00000000 	nop
9d001f30:	1000fff0 	b	9d001ef4 <_do_print_cdnopuxX+0xac>
9d001f34:	35080001 	ori	t0,t0,0x1
9d001f38:	14e50003 	bne	a3,a1,9d001f48 <_do_print_cdnopuxX+0x100>
9d001f3c:	00000000 	nop
9d001f40:	1000ffec 	b	9d001ef4 <_do_print_cdnopuxX+0xac>
9d001f44:	35080800 	ori	t0,t0,0x800
9d001f48:	54e60003 	bnel	a3,a2,9d001f58 <_do_print_cdnopuxX+0x110>
9d001f4c:	2403002a 	li	v1,42
9d001f50:	1000ffe8 	b	9d001ef4 <_do_print_cdnopuxX+0xac>
9d001f54:	35080004 	ori	t0,t0,0x4
9d001f58:	14e30025 	bne	a3,v1,9d001ff0 <_do_print_cdnopuxX+0x1a8>
9d001f5c:	0000a825 	move	s5,zero
9d001f60:	8e750000 	lw	s5,0(s3)
9d001f64:	26630004 	addiu	v1,s3,4
9d001f68:	06a00023 	bltz	s5,9d001ff8 <_do_print_cdnopuxX+0x1b0>
9d001f6c:	82270001 	lb	a3,1(s1)
9d001f70:	2404002e 	li	a0,46
9d001f74:	14e40028 	bne	a3,a0,9d002018 <_do_print_cdnopuxX+0x1d0>
9d001f78:	2414ffff 	li	s4,-1
9d001f7c:	80470001 	lb	a3,1(v0)
9d001f80:	2404002a 	li	a0,42
9d001f84:	50e4001f 	beql	a3,a0,9d002004 <_do_print_cdnopuxX+0x1bc>
9d001f88:	8c640000 	lw	a0,0(v1)
9d001f8c:	24420001 	addiu	v0,v0,1
9d001f90:	0000a025 	move	s4,zero
9d001f94:	240a000a 	li	t2,10
9d001f98:	24e4ffd0 	addiu	a0,a3,-48
9d001f9c:	2c84000a 	sltiu	a0,a0,10
9d001fa0:	1080001d 	beqz	a0,9d002018 <_do_print_cdnopuxX+0x1d0>
9d001fa4:	24460001 	addiu	a2,v0,1
9d001fa8:	728a2002 	mul	a0,s4,t2
9d001fac:	00874821 	addu	t1,a0,a3
9d001fb0:	2534ffd0 	addiu	s4,t1,-48
9d001fb4:	80470001 	lb	a3,1(v0)
9d001fb8:	1000fff7 	b	9d001f98 <_do_print_cdnopuxX+0x150>
9d001fbc:	00c01025 	move	v0,a2
9d001fc0:	72a41002 	mul	v0,s5,a0
9d001fc4:	00475821 	addu	t3,v0,a3
9d001fc8:	2575ffd0 	addiu	s5,t3,-48
9d001fcc:	82270001 	lb	a3,1(s1)
9d001fd0:	00608825 	move	s1,v1
9d001fd4:	24e2ffd0 	addiu	v0,a3,-48
9d001fd8:	2c42000a 	sltiu	v0,v0,10
9d001fdc:	1440fff8 	bnez	v0,9d001fc0 <_do_print_cdnopuxX+0x178>
9d001fe0:	26230001 	addiu	v1,s1,1
9d001fe4:	02601825 	move	v1,s3
9d001fe8:	1000ffe1 	b	9d001f70 <_do_print_cdnopuxX+0x128>
9d001fec:	02201025 	move	v0,s1
9d001ff0:	1000fff8 	b	9d001fd4 <_do_print_cdnopuxX+0x18c>
9d001ff4:	2404000a 	li	a0,10
9d001ff8:	35080008 	ori	t0,t0,0x8
9d001ffc:	1000ffdc 	b	9d001f70 <_do_print_cdnopuxX+0x128>
9d002000:	0015a823 	negu	s5,s5
9d002004:	80470002 	lb	a3,2(v0)
9d002008:	24630004 	addiu	v1,v1,4
9d00200c:	28850000 	slti	a1,a0,0
9d002010:	0085a00a 	movz	s4,a0,a1
9d002014:	24420002 	addiu	v0,v0,2
9d002018:	24050068 	li	a1,104
9d00201c:	14e50020 	bne	a3,a1,9d0020a0 <_do_print_cdnopuxX+0x258>
9d002020:	24440001 	addiu	a0,v0,1
9d002024:	80450001 	lb	a1,1(v0)
9d002028:	54a70003 	bnel	a1,a3,9d002038 <_do_print_cdnopuxX+0x1f0>
9d00202c:	35080040 	ori	t0,t0,0x40
9d002030:	35080001 	ori	t0,t0,0x1
9d002034:	00801025 	move	v0,a0
9d002038:	80470001 	lb	a3,1(v0)
9d00203c:	24420001 	addiu	v0,v0,1
9d002040:	24510001 	addiu	s1,v0,1
9d002044:	31020002 	andi	v0,t0,0x2
9d002048:	54400001 	bnezl	v0,9d002050 <_do_print_cdnopuxX+0x208>
9d00204c:	3108fffe 	andi	t0,t0,0xfffe
9d002050:	31020008 	andi	v0,t0,0x8
9d002054:	54400001 	bnezl	v0,9d00205c <_do_print_cdnopuxX+0x214>
9d002058:	3108fffb 	andi	t0,t0,0xfffb
9d00205c:	24020064 	li	v0,100
9d002060:	10e20032 	beq	a3,v0,9d00212c <_do_print_cdnopuxX+0x2e4>
9d002064:	28e20065 	slti	v0,a3,101
9d002068:	10400024 	beqz	v0,9d0020fc <_do_print_cdnopuxX+0x2b4>
9d00206c:	24020070 	li	v0,112
9d002070:	24020050 	li	v0,80
9d002074:	10e20092 	beq	a3,v0,9d0022c0 <_do_print_cdnopuxX+0x478>
9d002078:	28e20051 	slti	v0,a3,81
9d00207c:	10400016 	beqz	v0,9d0020d8 <_do_print_cdnopuxX+0x290>
9d002080:	24020058 	li	v0,88
9d002084:	24020044 	li	v0,68
9d002088:	10e20041 	beq	a3,v0,9d002190 <_do_print_cdnopuxX+0x348>
9d00208c:	2402004f 	li	v0,79
9d002090:	50e20041 	beql	a3,v0,9d002198 <_do_print_cdnopuxX+0x350>
9d002094:	35080010 	ori	t0,t0,0x10
9d002098:	100000ff 	b	9d002498 <_do_print_cdnopuxX+0x650>
9d00209c:	00001025 	move	v0,zero
9d0020a0:	2405006c 	li	a1,108
9d0020a4:	14e50006 	bne	a3,a1,9d0020c0 <_do_print_cdnopuxX+0x278>
9d0020a8:	24050071 	li	a1,113
9d0020ac:	80450001 	lb	a1,1(v0)
9d0020b0:	54a7ffe1 	bnel	a1,a3,9d002038 <_do_print_cdnopuxX+0x1f0>
9d0020b4:	35080010 	ori	t0,t0,0x10
9d0020b8:	1000ffde 	b	9d002034 <_do_print_cdnopuxX+0x1ec>
9d0020bc:	35088000 	ori	t0,t0,0x8000
9d0020c0:	14e5ffe0 	bne	a3,a1,9d002044 <_do_print_cdnopuxX+0x1fc>
9d0020c4:	24510001 	addiu	s1,v0,1
9d0020c8:	80470001 	lb	a3,1(v0)
9d0020cc:	35088000 	ori	t0,t0,0x8000
9d0020d0:	1000ffdb 	b	9d002040 <_do_print_cdnopuxX+0x1f8>
9d0020d4:	00801025 	move	v0,a0
9d0020d8:	10e20076 	beq	a3,v0,9d0022b4 <_do_print_cdnopuxX+0x46c>
9d0020dc:	24020063 	li	v0,99
9d0020e0:	10e200f9 	beq	a3,v0,9d0024c8 <_do_print_cdnopuxX+0x680>
9d0020e4:	24020055 	li	v0,85
9d0020e8:	14e200eb 	bne	a3,v0,9d002498 <_do_print_cdnopuxX+0x650>
9d0020ec:	00001025 	move	v0,zero
9d0020f0:	35080010 	ori	t0,t0,0x10
9d0020f4:	1000000f 	b	9d002134 <_do_print_cdnopuxX+0x2ec>
9d0020f8:	3108f7ff 	andi	t0,t0,0xf7ff
9d0020fc:	10e20071 	beq	a3,v0,9d0022c4 <_do_print_cdnopuxX+0x47c>
9d002100:	28e20071 	slti	v0,a3,113
9d002104:	1040000d 	beqz	v0,9d00213c <_do_print_cdnopuxX+0x2f4>
9d002108:	24020075 	li	v0,117
9d00210c:	2402006e 	li	v0,110
9d002110:	10e200ff 	beq	a3,v0,9d002510 <_do_print_cdnopuxX+0x6c8>
9d002114:	28e2006f 	slti	v0,a3,111
9d002118:	10400020 	beqz	v0,9d00219c <_do_print_cdnopuxX+0x354>
9d00211c:	24170008 	li	s7,8
9d002120:	24020069 	li	v0,105
9d002124:	14e200dc 	bne	a3,v0,9d002498 <_do_print_cdnopuxX+0x650>
9d002128:	00001025 	move	v0,zero
9d00212c:	3108f7ff 	andi	t0,t0,0xf7ff
9d002130:	350800c0 	ori	t0,t0,0xc0
9d002134:	10000019 	b	9d00219c <_do_print_cdnopuxX+0x354>
9d002138:	2417000a 	li	s7,10
9d00213c:	10e2ffed 	beq	a3,v0,9d0020f4 <_do_print_cdnopuxX+0x2ac>
9d002140:	24020078 	li	v0,120
9d002144:	10e2005c 	beq	a3,v0,9d0022b8 <_do_print_cdnopuxX+0x470>
9d002148:	24020073 	li	v0,115
9d00214c:	14e200d2 	bne	a3,v0,9d002498 <_do_print_cdnopuxX+0x650>
9d002150:	00001025 	move	v0,zero
9d002154:	8fa20060 	lw	v0,96(sp)
9d002158:	8c760000 	lw	s6,0(v1)
9d00215c:	0056b00a 	movz	s6,v0,s6
9d002160:	2402ffff 	li	v0,-1
9d002164:	128200e0 	beq	s4,v0,9d0024e8 <_do_print_cdnopuxX+0x6a0>
9d002168:	24730004 	addiu	s3,v1,4
9d00216c:	02d44821 	addu	t1,s6,s4
9d002170:	02c01025 	move	v0,s6
9d002174:	504900e2 	beql	v0,t1,9d002500 <_do_print_cdnopuxX+0x6b8>
9d002178:	afa80010 	sw	t0,16(sp)
9d00217c:	80430000 	lb	v1,0(v0)
9d002180:	506000df 	beqzl	v1,9d002500 <_do_print_cdnopuxX+0x6b8>
9d002184:	afa80010 	sw	t0,16(sp)
9d002188:	1000fffa 	b	9d002174 <_do_print_cdnopuxX+0x32c>
9d00218c:	24420001 	addiu	v0,v0,1
9d002190:	1000ffe6 	b	9d00212c <_do_print_cdnopuxX+0x2e4>
9d002194:	35080010 	ori	t0,t0,0x10
9d002198:	24170008 	li	s7,8
9d00219c:	2402ffff 	li	v0,-1
9d0021a0:	52820002 	beql	s4,v0,9d0021ac <_do_print_cdnopuxX+0x364>
9d0021a4:	24140001 	li	s4,1
9d0021a8:	3108fffb 	andi	t0,t0,0xfffb
9d0021ac:	310d00c0 	andi	t5,t0,0xc0
9d0021b0:	11a0004f 	beqz	t5,9d0022f0 <_do_print_cdnopuxX+0x4a8>
9d0021b4:	7c081620 	seh	v0,t0
9d0021b8:	04410044 	bgez	v0,9d0022cc <_do_print_cdnopuxX+0x484>
9d0021bc:	31020010 	andi	v0,t0,0x10
9d0021c0:	24630007 	addiu	v1,v1,7
9d0021c4:	7c031004 	ins	v1,zero,0x0,0x3
9d0021c8:	8c780000 	lw	t8,0(v1)
9d0021cc:	8c790004 	lw	t9,4(v1)
9d0021d0:	24730008 	addiu	s3,v1,8
9d0021d4:	07210007 	bgez	t9,9d0021f4 <_do_print_cdnopuxX+0x3ac>
9d0021d8:	0000f025 	move	s8,zero
9d0021dc:	00181023 	negu	v0,t8
9d0021e0:	0002202b 	sltu	a0,zero,v0
9d0021e4:	0019c823 	negu	t9,t9
9d0021e8:	0040c025 	move	t8,v0
9d0021ec:	0324c823 	subu	t9,t9,a0
9d0021f0:	241e0001 	li	s8,1
9d0021f4:	1320004a 	beqz	t9,9d002320 <_do_print_cdnopuxX+0x4d8>
9d0021f8:	310e0020 	andi	t6,t0,0x20
9d0021fc:	24160037 	li	s6,55
9d002200:	24020057 	li	v0,87
9d002204:	02ce100b 	movn	v0,s6,t6
9d002208:	afa2005c 	sw	v0,92(sp)
9d00220c:	001717c3 	sra	v0,s7,0x1f
9d002210:	27b60057 	addiu	s6,sp,87
9d002214:	afa20058 	sw	v0,88(sp)
9d002218:	03191025 	or	v0,t8,t9
9d00221c:	10400047 	beqz	v0,9d00233c <_do_print_cdnopuxX+0x4f4>
9d002220:	8fa70058 	lw	a3,88(sp)
9d002224:	03002025 	move	a0,t8
9d002228:	03202825 	move	a1,t9
9d00222c:	02e03025 	move	a2,s7
9d002230:	afae0074 	sw	t6,116(sp)
9d002234:	afad0070 	sw	t5,112(sp)
9d002238:	afa8006c 	sw	t0,108(sp)
9d00223c:	afb80068 	sw	t8,104(sp)
9d002240:	0f400a92 	jal	9d002a48 <__umoddi3>
9d002244:	afb90064 	sw	t9,100(sp)
9d002248:	8fa3005c 	lw	v1,92(sp)
9d00224c:	2844000a 	slti	a0,v0,10
9d002250:	8fb90064 	lw	t9,100(sp)
9d002254:	00431821 	addu	v1,v0,v1
9d002258:	8fb80068 	lw	t8,104(sp)
9d00225c:	8fa8006c 	lw	t0,108(sp)
9d002260:	8fad0070 	lw	t5,112(sp)
9d002264:	10800002 	beqz	a0,9d002270 <_do_print_cdnopuxX+0x428>
9d002268:	8fae0074 	lw	t6,116(sp)
9d00226c:	24430030 	addiu	v1,v0,48
9d002270:	8fa70058 	lw	a3,88(sp)
9d002274:	26d6ffff 	addiu	s6,s6,-1
9d002278:	03002025 	move	a0,t8
9d00227c:	03202825 	move	a1,t9
9d002280:	a2c30001 	sb	v1,1(s6)
9d002284:	02e03025 	move	a2,s7
9d002288:	afae006c 	sw	t6,108(sp)
9d00228c:	afad0068 	sw	t5,104(sp)
9d002290:	0f400b90 	jal	9d002e40 <__udivdi3>
9d002294:	afa80064 	sw	t0,100(sp)
9d002298:	0040c025 	move	t8,v0
9d00229c:	0060c825 	move	t9,v1
9d0022a0:	2694ffff 	addiu	s4,s4,-1
9d0022a4:	8fae006c 	lw	t6,108(sp)
9d0022a8:	8fad0068 	lw	t5,104(sp)
9d0022ac:	1000ffda 	b	9d002218 <_do_print_cdnopuxX+0x3d0>
9d0022b0:	8fa80064 	lw	t0,100(sp)
9d0022b4:	35080020 	ori	t0,t0,0x20
9d0022b8:	1000ffb8 	b	9d00219c <_do_print_cdnopuxX+0x354>
9d0022bc:	24170010 	li	s7,16
9d0022c0:	35080020 	ori	t0,t0,0x20
9d0022c4:	1000fffc 	b	9d0022b8 <_do_print_cdnopuxX+0x470>
9d0022c8:	35080810 	ori	t0,t0,0x810
9d0022cc:	10400004 	beqz	v0,9d0022e0 <_do_print_cdnopuxX+0x498>
9d0022d0:	24730004 	addiu	s3,v1,4
9d0022d4:	8c780000 	lw	t8,0(v1)
9d0022d8:	1000ffbe 	b	9d0021d4 <_do_print_cdnopuxX+0x38c>
9d0022dc:	0018cfc3 	sra	t9,t8,0x1f
9d0022e0:	8c620000 	lw	v0,0(v1)
9d0022e4:	0040c025 	move	t8,v0
9d0022e8:	1000ffba 	b	9d0021d4 <_do_print_cdnopuxX+0x38c>
9d0022ec:	0002cfc3 	sra	t9,v0,0x1f
9d0022f0:	04430008 	bgezl	v0,9d002314 <_do_print_cdnopuxX+0x4cc>
9d0022f4:	24730004 	addiu	s3,v1,4
9d0022f8:	24630007 	addiu	v1,v1,7
9d0022fc:	7c031004 	ins	v1,zero,0x0,0x3
9d002300:	8c780000 	lw	t8,0(v1)
9d002304:	8c790004 	lw	t9,4(v1)
9d002308:	24730008 	addiu	s3,v1,8
9d00230c:	1000ffb9 	b	9d0021f4 <_do_print_cdnopuxX+0x3ac>
9d002310:	0000f025 	move	s8,zero
9d002314:	8c780000 	lw	t8,0(v1)
9d002318:	1000fffc 	b	9d00230c <_do_print_cdnopuxX+0x4c4>
9d00231c:	0000c825 	move	t9,zero
9d002320:	24030037 	li	v1,55
9d002324:	24040057 	li	a0,87
9d002328:	03001025 	move	v0,t8
9d00232c:	008e180a 	movz	v1,a0,t6
9d002330:	27b60057 	addiu	s6,sp,87
9d002334:	14400004 	bnez	v0,9d002348 <_do_print_cdnopuxX+0x500>
9d002338:	00000000 	nop
9d00233c:	02c01025 	move	v0,s6
9d002340:	1000000d 	b	9d002378 <_do_print_cdnopuxX+0x530>
9d002344:	24040030 	li	a0,48
9d002348:	0057001b 	divu	zero,v0,s7
9d00234c:	02e001f4 	teq	s7,zero,0x7
9d002350:	00002010 	mfhi	a0
9d002354:	2c86000a 	sltiu	a2,a0,10
9d002358:	00832821 	addu	a1,a0,v1
9d00235c:	10c00002 	beqz	a2,9d002368 <_do_print_cdnopuxX+0x520>
9d002360:	00001012 	mflo	v0
9d002364:	24850030 	addiu	a1,a0,48
9d002368:	26d6ffff 	addiu	s6,s6,-1
9d00236c:	a2c50001 	sb	a1,1(s6)
9d002370:	1000fff0 	b	9d002334 <_do_print_cdnopuxX+0x4ec>
9d002374:	2694ffff 	addiu	s4,s4,-1
9d002378:	2442ffff 	addiu	v0,v0,-1
9d00237c:	02821821 	addu	v1,s4,v0
9d002380:	00761823 	subu	v1,v1,s6
9d002384:	0463fffc 	bgezl	v1,9d002378 <_do_print_cdnopuxX+0x530>
9d002388:	a0440001 	sb	a0,1(v0)
9d00238c:	2a850000 	slti	a1,s4,0
9d002390:	0005a00b 	movn	s4,zero,a1
9d002394:	31020004 	andi	v0,t0,0x4
9d002398:	02d42823 	subu	a1,s6,s4
9d00239c:	10400022 	beqz	v0,9d002428 <_do_print_cdnopuxX+0x5e0>
9d0023a0:	31060800 	andi	a2,t0,0x800
9d0023a4:	27a20057 	addiu	v0,sp,87
9d0023a8:	00451023 	subu	v0,v0,a1
9d0023ac:	10c00008 	beqz	a2,9d0023d0 <_do_print_cdnopuxX+0x588>
9d0023b0:	02a21023 	subu	v0,s5,v0
9d0023b4:	24030008 	li	v1,8
9d0023b8:	16e3000f 	bne	s7,v1,9d0023f8 <_do_print_cdnopuxX+0x5b0>
9d0023bc:	24030010 	li	v1,16
9d0023c0:	80a40001 	lb	a0,1(a1)
9d0023c4:	24030030 	li	v1,48
9d0023c8:	54830001 	bnel	a0,v1,9d0023d0 <_do_print_cdnopuxX+0x588>
9d0023cc:	2442ffff 	addiu	v0,v0,-1
9d0023d0:	11a00007 	beqz	t5,9d0023f0 <_do_print_cdnopuxX+0x5a8>
9d0023d4:	00a01825 	move	v1,a1
9d0023d8:	57c00005 	bnezl	s8,9d0023f0 <_do_print_cdnopuxX+0x5a8>
9d0023dc:	2442ffff 	addiu	v0,v0,-1
9d0023e0:	31030003 	andi	v1,t0,0x3
9d0023e4:	10600002 	beqz	v1,9d0023f0 <_do_print_cdnopuxX+0x5a8>
9d0023e8:	00a01825 	move	v1,a1
9d0023ec:	2442ffff 	addiu	v0,v0,-1
9d0023f0:	10000005 	b	9d002408 <_do_print_cdnopuxX+0x5c0>
9d0023f4:	24070030 	li	a3,48
9d0023f8:	52e3fff5 	beql	s7,v1,9d0023d0 <_do_print_cdnopuxX+0x588>
9d0023fc:	2442fffe 	addiu	v0,v0,-2
9d002400:	1000fff3 	b	9d0023d0 <_do_print_cdnopuxX+0x588>
9d002404:	00000000 	nop
9d002408:	2463ffff 	addiu	v1,v1,-1
9d00240c:	00652023 	subu	a0,v1,a1
9d002410:	00822021 	addu	a0,a0,v0
9d002414:	0483fffc 	bgezl	a0,9d002408 <_do_print_cdnopuxX+0x5c0>
9d002418:	a0670001 	sb	a3,1(v1)
9d00241c:	28430000 	slti	v1,v0,0
9d002420:	0003100b 	movn	v0,zero,v1
9d002424:	00a22823 	subu	a1,a1,v0
9d002428:	10c00009 	beqz	a2,9d002450 <_do_print_cdnopuxX+0x608>
9d00242c:	24020008 	li	v0,8
9d002430:	16e2001c 	bne	s7,v0,9d0024a4 <_do_print_cdnopuxX+0x65c>
9d002434:	24020010 	li	v0,16
9d002438:	80a30001 	lb	v1,1(a1)
9d00243c:	24020030 	li	v0,48
9d002440:	10620003 	beq	v1,v0,9d002450 <_do_print_cdnopuxX+0x608>
9d002444:	00000000 	nop
9d002448:	a0a20000 	sb	v0,0(a1)
9d00244c:	24a5ffff 	addiu	a1,a1,-1
9d002450:	51a0000a 	beqzl	t5,9d00247c <_do_print_cdnopuxX+0x634>
9d002454:	24a50001 	addiu	a1,a1,1
9d002458:	17c00005 	bnez	s8,9d002470 <_do_print_cdnopuxX+0x628>
9d00245c:	2402002d 	li	v0,45
9d002460:	31020002 	andi	v0,t0,0x2
9d002464:	50400005 	beqzl	v0,9d00247c <_do_print_cdnopuxX+0x634>
9d002468:	24a50001 	addiu	a1,a1,1
9d00246c:	2402002b 	li	v0,43
9d002470:	a0a20000 	sb	v0,0(a1)
9d002474:	24a5ffff 	addiu	a1,a1,-1
9d002478:	24a50001 	addiu	a1,a1,1
9d00247c:	27a60058 	addiu	a2,sp,88
9d002480:	afa80010 	sw	t0,16(sp)
9d002484:	02a03825 	move	a3,s5
9d002488:	00c53023 	subu	a2,a2,a1
9d00248c:	0f400dd5 	jal	9d003754 <_outcnvrt>
9d002490:	02402025 	move	a0,s2
9d002494:	02601825 	move	v1,s3
9d002498:	02028021 	addu	s0,s0,v0
9d00249c:	1000fe8a 	b	9d001ec8 <_do_print_cdnopuxX+0x80>
9d0024a0:	00609825 	move	s3,v1
9d0024a4:	16e2ffea 	bne	s7,v0,9d002450 <_do_print_cdnopuxX+0x608>
9d0024a8:	24030058 	li	v1,88
9d0024ac:	24020078 	li	v0,120
9d0024b0:	006e100b 	movn	v0,v1,t6
9d0024b4:	a0a20000 	sb	v0,0(a1)
9d0024b8:	24020030 	li	v0,48
9d0024bc:	a0a2ffff 	sb	v0,-1(a1)
9d0024c0:	1000ffe3 	b	9d002450 <_do_print_cdnopuxX+0x608>
9d0024c4:	24a5fffe 	addiu	a1,a1,-2
9d0024c8:	8c620000 	lw	v0,0(v1)
9d0024cc:	24730004 	addiu	s3,v1,4
9d0024d0:	afa80010 	sw	t0,16(sp)
9d0024d4:	a3a20018 	sb	v0,24(sp)
9d0024d8:	02a03825 	move	a3,s5
9d0024dc:	24060001 	li	a2,1
9d0024e0:	1000ffea 	b	9d00248c <_do_print_cdnopuxX+0x644>
9d0024e4:	27a50018 	addiu	a1,sp,24
9d0024e8:	02c02025 	move	a0,s6
9d0024ec:	0f400f75 	jal	9d003dd4 <strlen>
9d0024f0:	afa80058 	sw	t0,88(sp)
9d0024f4:	8fa80058 	lw	t0,88(sp)
9d0024f8:	02c21021 	addu	v0,s6,v0
9d0024fc:	afa80010 	sw	t0,16(sp)
9d002500:	02a03825 	move	a3,s5
9d002504:	00563023 	subu	a2,v0,s6
9d002508:	1000ffe0 	b	9d00248c <_do_print_cdnopuxX+0x644>
9d00250c:	02c02825 	move	a1,s6
9d002510:	7c082620 	seh	a0,t0
9d002514:	8c620000 	lw	v0,0(v1)
9d002518:	04810005 	bgez	a0,9d002530 <_do_print_cdnopuxX+0x6e8>
9d00251c:	24630004 	addiu	v1,v1,4
9d002520:	001027c3 	sra	a0,s0,0x1f
9d002524:	ac500000 	sw	s0,0(v0)
9d002528:	1000fedb 	b	9d002098 <_do_print_cdnopuxX+0x250>
9d00252c:	ac440004 	sw	a0,4(v0)
9d002530:	31040010 	andi	a0,t0,0x10
9d002534:	10800003 	beqz	a0,9d002544 <_do_print_cdnopuxX+0x6fc>
9d002538:	31040040 	andi	a0,t0,0x40
9d00253c:	1000fed6 	b	9d002098 <_do_print_cdnopuxX+0x250>
9d002540:	ac500000 	sw	s0,0(v0)
9d002544:	50800003 	beqzl	a0,9d002554 <_do_print_cdnopuxX+0x70c>
9d002548:	31080001 	andi	t0,t0,0x1
9d00254c:	1000fed2 	b	9d002098 <_do_print_cdnopuxX+0x250>
9d002550:	a4500000 	sh	s0,0(v0)
9d002554:	5100fed0 	beqzl	t0,9d002098 <_do_print_cdnopuxX+0x250>
9d002558:	ac500000 	sw	s0,0(v0)
9d00255c:	1000fece 	b	9d002098 <_do_print_cdnopuxX+0x250>
9d002560:	a0500000 	sb	s0,0(v0)
9d002564:	96420010 	lhu	v0,16(s2)
9d002568:	30420040 	andi	v0,v0,0x40
9d00256c:	10400003 	beqz	v0,9d00257c <_do_print_cdnopuxX+0x734>
9d002570:	8fbf009c 	lw	ra,156(sp)
9d002574:	2410ffff 	li	s0,-1
9d002578:	8fbf009c 	lw	ra,156(sp)
9d00257c:	02001025 	move	v0,s0
9d002580:	8fbe0098 	lw	s8,152(sp)
9d002584:	8fb70094 	lw	s7,148(sp)
9d002588:	8fb60090 	lw	s6,144(sp)
9d00258c:	8fb5008c 	lw	s5,140(sp)
9d002590:	8fb40088 	lw	s4,136(sp)
9d002594:	8fb30084 	lw	s3,132(sp)
9d002598:	8fb20080 	lw	s2,128(sp)
9d00259c:	8fb1007c 	lw	s1,124(sp)
9d0025a0:	8fb00078 	lw	s0,120(sp)
9d0025a4:	03e00008 	jr	ra
9d0025a8:	27bd00a0 	addiu	sp,sp,160

Disassembly of section .text:

9d0025ac <LCD_Read>:
  PMDIN = data;        // send the data
}

// read data from the LCD.  
// rs : the value of the RS signal 0 for instructions status, 1 for data
unsigned char LCD_Read(int rs) {
9d0025ac:	27bdfff8 	addiu	sp,sp,-8
  volatile unsigned char val = 0; // volatile so 1st read doesn't get optimized away
9d0025b0:	a3a00000 	sb	zero,0(sp)
  if(rs) { // 1 to read data
9d0025b4:	10800017 	beqz	a0,9d002614 <LCD_Read+0x68>
9d0025b8:	3c02bf80 	lui	v0,0xbf80
    PMADDRSET = 1 << PMABIT;
9d0025bc:	3c02bf80 	lui	v0,0xbf80
9d0025c0:	24030400 	li	v1,1024
9d0025c4:	ac437028 	sw	v1,28712(v0)
  while(PMMODEbits.BUSY) { ; }
9d0025c8:	3c03bf80 	lui	v1,0xbf80
9d0025cc:	8c627010 	lw	v0,28688(v1)
9d0025d0:	7c4203c0 	ext	v0,v0,0xf,0x1
9d0025d4:	1440fffd 	bnez	v0,9d0025cc <LCD_Read+0x20>
9d0025d8:	3c02bf80 	lui	v0,0xbf80
  } else { // 0 to read command status
    PMADDRCLR = 1 << PMABIT;
  }
  // from the PIC32 reference manual, you must read twice to actually get the data
  waitPMP();                  // wait for the PMP to be ready
  val = PMDIN;
9d0025dc:	8c427040 	lw	v0,28736(v0)
9d0025e0:	304200ff 	andi	v0,v0,0xff
9d0025e4:	a3a20000 	sb	v0,0(sp)
  while(PMMODEbits.BUSY) { ; }
9d0025e8:	3c03bf80 	lui	v1,0xbf80
9d0025ec:	8c627010 	lw	v0,28688(v1)
9d0025f0:	7c4203c0 	ext	v0,v0,0xf,0x1
9d0025f4:	1440fffd 	bnez	v0,9d0025ec <LCD_Read+0x40>
9d0025f8:	3c02bf80 	lui	v0,0xbf80
  waitPMP();
  val = PMDIN;
9d0025fc:	8c427040 	lw	v0,28736(v0)
9d002600:	304200ff 	andi	v0,v0,0xff
9d002604:	a3a20000 	sb	v0,0(sp)
  return val;
9d002608:	93a20000 	lbu	v0,0(sp)
}
9d00260c:	03e00008 	jr	ra
9d002610:	27bd0008 	addiu	sp,sp,8
    PMADDRCLR = 1 << PMABIT;
9d002614:	24030400 	li	v1,1024
9d002618:	ac437024 	sw	v1,28708(v0)
  while(PMMODEbits.BUSY) { ; }
9d00261c:	1000ffeb 	b	9d0025cc <LCD_Read+0x20>
9d002620:	3c03bf80 	lui	v1,0xbf80

9d002624 <LCD_Write>:
void LCD_Write(int rs, unsigned char data) {
9d002624:	27bdffd8 	addiu	sp,sp,-40
9d002628:	afbf0024 	sw	ra,36(sp)
9d00262c:	afb10020 	sw	s1,32(sp)
9d002630:	afb0001c 	sw	s0,28(sp)
9d002634:	00808825 	move	s1,a0
9d002638:	00a08025 	move	s0,a1
  volatile unsigned char val = 0x80;
9d00263c:	2402ff80 	li	v0,-128
9d002640:	a3a20010 	sb	v0,16(sp)
  while (val & 0x80) {
9d002644:	93a20010 	lbu	v0,16(sp)
9d002648:	7c021420 	seb	v0,v0
9d00264c:	04410008 	bgez	v0,9d002670 <LCD_Write+0x4c>
9d002650:	24020032 	li	v0,50
    val = LCD_Read(0);
9d002654:	0f40096b 	jal	9d0025ac <LCD_Read>
9d002658:	00002025 	move	a0,zero
9d00265c:	a3a20010 	sb	v0,16(sp)
  while (val & 0x80) {
9d002660:	93a20010 	lbu	v0,16(sp)
9d002664:	7c021420 	seb	v0,v0
9d002668:	0440fffa 	bltz	v0,9d002654 <LCD_Write+0x30>
9d00266c:	24020032 	li	v0,50
    _nop();
9d002670:	00000040 	ssnop
9d002674:	2442ffff 	addiu	v0,v0,-1
  for(i = 0; i < 50; ++i) { // slight delay
9d002678:	1440fffd 	bnez	v0,9d002670 <LCD_Write+0x4c>
9d00267c:	00000000 	nop
  if(rs) { // 1 for data
9d002680:	1220000f 	beqz	s1,9d0026c0 <LCD_Write+0x9c>
9d002684:	3c02bf80 	lui	v0,0xbf80
    PMADDRSET = 1 << PMABIT;
9d002688:	3c02bf80 	lui	v0,0xbf80
9d00268c:	24030400 	li	v1,1024
9d002690:	ac437028 	sw	v1,28712(v0)
  while(PMMODEbits.BUSY) { ; }
9d002694:	3c03bf80 	lui	v1,0xbf80
9d002698:	8c627010 	lw	v0,28688(v1)
9d00269c:	7c4203c0 	ext	v0,v0,0xf,0x1
9d0026a0:	1440fffd 	bnez	v0,9d002698 <LCD_Write+0x74>
9d0026a4:	3c02bf80 	lui	v0,0xbf80
  PMDIN = data;        // send the data
9d0026a8:	ac507040 	sw	s0,28736(v0)
}
9d0026ac:	8fbf0024 	lw	ra,36(sp)
9d0026b0:	8fb10020 	lw	s1,32(sp)
9d0026b4:	8fb0001c 	lw	s0,28(sp)
9d0026b8:	03e00008 	jr	ra
9d0026bc:	27bd0028 	addiu	sp,sp,40
    PMADDRCLR = 1 << PMABIT; 
9d0026c0:	24030400 	li	v1,1024
9d0026c4:	ac437024 	sw	v1,28708(v0)
  while(PMMODEbits.BUSY) { ; }
9d0026c8:	1000fff3 	b	9d002698 <LCD_Write+0x74>
9d0026cc:	3c03bf80 	lui	v1,0xbf80

9d0026d0 <LCD_Clear>:
void LCD_Clear(void) {
9d0026d0:	27bdffe8 	addiu	sp,sp,-24
9d0026d4:	afbf0014 	sw	ra,20(sp)
  LCD_Write(0,0x01); //clear the whole screen
9d0026d8:	24050001 	li	a1,1
9d0026dc:	0f400989 	jal	9d002624 <LCD_Write>
9d0026e0:	00002025 	move	a0,zero
}
9d0026e4:	8fbf0014 	lw	ra,20(sp)
9d0026e8:	03e00008 	jr	ra
9d0026ec:	27bd0018 	addiu	sp,sp,24

9d0026f0 <LCD_Home>:
void LCD_Home(void) {
9d0026f0:	27bdffe8 	addiu	sp,sp,-24
9d0026f4:	afbf0014 	sw	ra,20(sp)
  LCD_Write(0,0x02);
9d0026f8:	24050002 	li	a1,2
9d0026fc:	0f400989 	jal	9d002624 <LCD_Write>
9d002700:	00002025 	move	a0,zero
}
9d002704:	8fbf0014 	lw	ra,20(sp)
9d002708:	03e00008 	jr	ra
9d00270c:	27bd0018 	addiu	sp,sp,24

9d002710 <LCD_Entry>:
void LCD_Entry(int id, int s) {
9d002710:	27bdffe8 	addiu	sp,sp,-24
9d002714:	afbf0014 	sw	ra,20(sp)
  LCD_Write(0, 0x04 | (id << 1) | s);
9d002718:	00042040 	sll	a0,a0,0x1
9d00271c:	00852825 	or	a1,a0,a1
9d002720:	34a50004 	ori	a1,a1,0x4
9d002724:	30a500ff 	andi	a1,a1,0xff
9d002728:	0f400989 	jal	9d002624 <LCD_Write>
9d00272c:	00002025 	move	a0,zero
}
9d002730:	8fbf0014 	lw	ra,20(sp)
9d002734:	03e00008 	jr	ra
9d002738:	27bd0018 	addiu	sp,sp,24

9d00273c <LCD_Display>:
void LCD_Display(int d, int c, int b) {
9d00273c:	27bdffe8 	addiu	sp,sp,-24
9d002740:	afbf0014 	sw	ra,20(sp)
  LCD_Write(0, 0x08 | (d << 2) | (c << 1) | b);
9d002744:	00042080 	sll	a0,a0,0x2
9d002748:	00862025 	or	a0,a0,a2
9d00274c:	00052840 	sll	a1,a1,0x1
9d002750:	00852025 	or	a0,a0,a1
9d002754:	34850008 	ori	a1,a0,0x8
9d002758:	30a500ff 	andi	a1,a1,0xff
9d00275c:	0f400989 	jal	9d002624 <LCD_Write>
9d002760:	00002025 	move	a0,zero
}
9d002764:	8fbf0014 	lw	ra,20(sp)
9d002768:	03e00008 	jr	ra
9d00276c:	27bd0018 	addiu	sp,sp,24

9d002770 <LCD_Shift>:
void LCD_Shift(int sc, int rl) {
9d002770:	27bdffe8 	addiu	sp,sp,-24
9d002774:	afbf0014 	sw	ra,20(sp)
  LCD_Write(0,0x1 | (sc << 3) | (rl << 2));
9d002778:	000420c0 	sll	a0,a0,0x3
9d00277c:	00052880 	sll	a1,a1,0x2
9d002780:	00852825 	or	a1,a0,a1
9d002784:	34a50001 	ori	a1,a1,0x1
9d002788:	30a500fd 	andi	a1,a1,0xfd
9d00278c:	0f400989 	jal	9d002624 <LCD_Write>
9d002790:	00002025 	move	a0,zero
}
9d002794:	8fbf0014 	lw	ra,20(sp)
9d002798:	03e00008 	jr	ra
9d00279c:	27bd0018 	addiu	sp,sp,24

9d0027a0 <LCD_Function>:
void LCD_Function(int n, int f) {
9d0027a0:	27bdffe8 	addiu	sp,sp,-24
9d0027a4:	afbf0014 	sw	ra,20(sp)
  LCD_Write(0, 0x30 | (n << 3) | (f << 2));
9d0027a8:	000420c0 	sll	a0,a0,0x3
9d0027ac:	00052880 	sll	a1,a1,0x2
9d0027b0:	00852825 	or	a1,a0,a1
9d0027b4:	34a50030 	ori	a1,a1,0x30
9d0027b8:	30a500fc 	andi	a1,a1,0xfc
9d0027bc:	0f400989 	jal	9d002624 <LCD_Write>
9d0027c0:	00002025 	move	a0,zero
}
9d0027c4:	8fbf0014 	lw	ra,20(sp)
9d0027c8:	03e00008 	jr	ra
9d0027cc:	27bd0018 	addiu	sp,sp,24

9d0027d0 <LCD_Move>:
void LCD_Move(int line, int col) {
9d0027d0:	27bdffe8 	addiu	sp,sp,-24
9d0027d4:	afbf0014 	sw	ra,20(sp)
  LCD_Write(0, 0x80 | (line << 6) | col);
9d0027d8:	00042180 	sll	a0,a0,0x6
9d0027dc:	00852825 	or	a1,a0,a1
9d0027e0:	30a500ff 	andi	a1,a1,0xff
9d0027e4:	34a50080 	ori	a1,a1,0x80
9d0027e8:	0f400989 	jal	9d002624 <LCD_Write>
9d0027ec:	00002025 	move	a0,zero
}
9d0027f0:	8fbf0014 	lw	ra,20(sp)
9d0027f4:	03e00008 	jr	ra
9d0027f8:	27bd0018 	addiu	sp,sp,24

9d0027fc <LCD_CMove>:
void LCD_CMove(unsigned char addr) {
9d0027fc:	27bdffe8 	addiu	sp,sp,-24
9d002800:	afbf0014 	sw	ra,20(sp)
  LCD_Write(0, 0x40 | addr);
9d002804:	34850040 	ori	a1,a0,0x40
9d002808:	0f400989 	jal	9d002624 <LCD_Write>
9d00280c:	00002025 	move	a0,zero
}
9d002810:	8fbf0014 	lw	ra,20(sp)
9d002814:	03e00008 	jr	ra
9d002818:	27bd0018 	addiu	sp,sp,24

9d00281c <LCD_WriteChar>:
void LCD_WriteChar(char c) {         
9d00281c:	27bdffe8 	addiu	sp,sp,-24
9d002820:	afbf0014 	sw	ra,20(sp)
  LCD_Write(1, c); 
9d002824:	308500ff 	andi	a1,a0,0xff
9d002828:	0f400989 	jal	9d002624 <LCD_Write>
9d00282c:	24040001 	li	a0,1
}
9d002830:	8fbf0014 	lw	ra,20(sp)
9d002834:	03e00008 	jr	ra
9d002838:	27bd0018 	addiu	sp,sp,24

9d00283c <LCD_WriteString>:
void LCD_WriteString(const char *str) {
9d00283c:	27bdffe8 	addiu	sp,sp,-24
9d002840:	afbf0014 	sw	ra,20(sp)
9d002844:	afb00010 	sw	s0,16(sp)
9d002848:	00808025 	move	s0,a0
  while(*str) {
9d00284c:	80840000 	lb	a0,0(a0)
9d002850:	10800006 	beqz	a0,9d00286c <LCD_WriteString+0x30>
9d002854:	8fbf0014 	lw	ra,20(sp)
    LCD_WriteChar(*str); // increment string pointer after char sent
9d002858:	0f400a07 	jal	9d00281c <LCD_WriteChar>
9d00285c:	26100001 	addiu	s0,s0,1
  while(*str) {
9d002860:	82040000 	lb	a0,0(s0)
9d002864:	1480fffc 	bnez	a0,9d002858 <LCD_WriteString+0x1c>
9d002868:	8fbf0014 	lw	ra,20(sp)
}
9d00286c:	8fb00010 	lw	s0,16(sp)
9d002870:	03e00008 	jr	ra
9d002874:	27bd0018 	addiu	sp,sp,24

9d002878 <LCD_ClearLine>:
void LCD_ClearLine(int ln) {
9d002878:	27bdffd0 	addiu	sp,sp,-48
9d00287c:	afbf002c 	sw	ra,44(sp)
	char msg[MSG_LEN] = "                   ";
9d002880:	3c029d00 	lui	v0,0x9d00
9d002884:	8c471e2c 	lw	a3,7724(v0)
9d002888:	24421e2c 	addiu	v0,v0,7724
9d00288c:	8c460004 	lw	a2,4(v0)
9d002890:	8c450008 	lw	a1,8(v0)
9d002894:	8c43000c 	lw	v1,12(v0)
9d002898:	8c420010 	lw	v0,16(v0)
9d00289c:	afa70010 	sw	a3,16(sp)
9d0028a0:	afa60014 	sw	a2,20(sp)
9d0028a4:	afa50018 	sw	a1,24(sp)
9d0028a8:	afa3001c 	sw	v1,28(sp)
9d0028ac:	afa20020 	sw	v0,32(sp)
	LCD_Move(ln, 0);
9d0028b0:	0f4009f4 	jal	9d0027d0 <LCD_Move>
9d0028b4:	00002825 	move	a1,zero
	LCD_WriteString(msg);
9d0028b8:	0f400a0f 	jal	9d00283c <LCD_WriteString>
9d0028bc:	27a40010 	addiu	a0,sp,16
}
9d0028c0:	8fbf002c 	lw	ra,44(sp)
9d0028c4:	03e00008 	jr	ra
9d0028c8:	27bd0030 	addiu	sp,sp,48

9d0028cc <LCD_CustomChar>:
void LCD_CustomChar(unsigned char val, const char * data) {
9d0028cc:	27bdffd8 	addiu	sp,sp,-40
9d0028d0:	afbf0024 	sw	ra,36(sp)
9d0028d4:	afb30020 	sw	s3,32(sp)
9d0028d8:	afb2001c 	sw	s2,28(sp)
9d0028dc:	afb10018 	sw	s1,24(sp)
9d0028e0:	afb00014 	sw	s0,20(sp)
9d0028e4:	00a09825 	move	s3,a1
    LCD_CMove(((val & 7) << 2) | i);
9d0028e8:	00042080 	sll	a0,a0,0x2
9d0028ec:	3091001c 	andi	s1,a0,0x1c
  for(i = 0; i < 7; ++i) {
9d0028f0:	00008025 	move	s0,zero
9d0028f4:	24120007 	li	s2,7
    LCD_CMove(((val & 7) << 2) | i);
9d0028f8:	02302025 	or	a0,s1,s0
9d0028fc:	0f4009ff 	jal	9d0027fc <LCD_CMove>
9d002900:	308400ff 	andi	a0,a0,0xff
    LCD_Write(1, data[i]);
9d002904:	02701021 	addu	v0,s3,s0
9d002908:	90450000 	lbu	a1,0(v0)
9d00290c:	0f400989 	jal	9d002624 <LCD_Write>
9d002910:	24040001 	li	a0,1
  for(i = 0; i < 7; ++i) {
9d002914:	26100001 	addiu	s0,s0,1
9d002918:	5612fff8 	bnel	s0,s2,9d0028fc <LCD_CustomChar+0x30>
9d00291c:	02302025 	or	a0,s1,s0
}
9d002920:	8fbf0024 	lw	ra,36(sp)
9d002924:	8fb30020 	lw	s3,32(sp)
9d002928:	8fb2001c 	lw	s2,28(sp)
9d00292c:	8fb10018 	lw	s1,24(sp)
9d002930:	8fb00014 	lw	s0,20(sp)
9d002934:	03e00008 	jr	ra
9d002938:	27bd0028 	addiu	sp,sp,40

9d00293c <LCD_Setup>:
void LCD_Setup() {
9d00293c:	27bdffe8 	addiu	sp,sp,-24
9d002940:	afbf0014 	sw	ra,20(sp)
9d002944:	afb00010 	sw	s0,16(sp)
  int en = __builtin_disable_interrupts();  // disable interrupts, remember initial state
9d002948:	41706000 	di	s0
9d00294c:	000000c0 	ehb
  IEC1bits.PMPIE = 0;    // disable PMP interrupts
9d002950:	3c02bf88 	lui	v0,0xbf88
9d002954:	8c431070 	lw	v1,4208(v0)
9d002958:	7c031084 	ins	v1,zero,0x2,0x1
9d00295c:	ac431070 	sw	v1,4208(v0)
  PMCON = 0;             // clear PMCON, like it is on reset
9d002960:	3c02bf80 	lui	v0,0xbf80
9d002964:	ac407000 	sw	zero,28672(v0)
  PMCONbits.PTWREN = 1;  // PMENB strobe enabled
9d002968:	3c02bf80 	lui	v0,0xbf80
9d00296c:	94437000 	lhu	v1,28672(v0)
9d002970:	24040001 	li	a0,1
9d002974:	7c834a44 	ins	v1,a0,0x9,0x1
9d002978:	a4437000 	sh	v1,28672(v0)
  PMCONbits.PTRDEN = 1;  // PMRD/PMWR enabled
9d00297c:	94437000 	lhu	v1,28672(v0)
9d002980:	7c834204 	ins	v1,a0,0x8,0x1
9d002984:	a4437000 	sh	v1,28672(v0)
  PMCONbits.WRSP = 1;    // Read/write strobe is active high
9d002988:	94437000 	lhu	v1,28672(v0)
9d00298c:	7c830844 	ins	v1,a0,0x1,0x1
9d002990:	a4437000 	sh	v1,28672(v0)
  PMCONbits.RDSP = 1;    // Read/write strobe is active high
9d002994:	94437000 	lhu	v1,28672(v0)
9d002998:	7c830004 	ins	v1,a0,0x0,0x1
9d00299c:	a4437000 	sh	v1,28672(v0)
  PMMODE = 0;            // clear PMMODE like it is on reset
9d0029a0:	3c03bf80 	lui	v1,0xbf80
9d0029a4:	ac607010 	sw	zero,28688(v1)
  PMMODEbits.MODE = 0x3; // set master mode 1, which uses a single strobe
9d0029a8:	3c03bf80 	lui	v1,0xbf80
9d0029ac:	94657010 	lhu	a1,28688(v1)
9d0029b0:	24060003 	li	a2,3
9d0029b4:	7cc54a04 	ins	a1,a2,0x8,0x2
9d0029b8:	a4657010 	sh	a1,28688(v1)
  PMMODEbits.WAITB = 0x3;  // Tas in the LCD datasheet is 60 ns 
9d0029bc:	94657010 	lhu	a1,28688(v1)
9d0029c0:	7cc53984 	ins	a1,a2,0x6,0x2
9d0029c4:	a4657010 	sh	a1,28688(v1)
  PMMODEbits.WAITM = 0xF;  // PWeh in the data sheet is 230 ns (we don't quite meet this)
9d0029c8:	94657010 	lhu	a1,28688(v1)
9d0029cc:	2406000f 	li	a2,15
9d0029d0:	7cc52884 	ins	a1,a2,0x2,0x4
9d0029d4:	a4657010 	sh	a1,28688(v1)
  PMMODEbits.WAITE = 0x1;  // after E is low wait Tah (10ns)
9d0029d8:	94657010 	lhu	a1,28688(v1)
9d0029dc:	7c850804 	ins	a1,a0,0x0,0x2
9d0029e0:	a4657010 	sh	a1,28688(v1)
  PMAEN |= 1 << PMABIT;   // PMA is an address line
9d0029e4:	3c05bf80 	lui	a1,0xbf80
9d0029e8:	8ca37050 	lw	v1,28752(a1)
9d0029ec:	34630400 	ori	v1,v1,0x400
9d0029f0:	aca37050 	sw	v1,28752(a1)
  PMCONbits.ON = 1;        // enable the PMP peripheral
9d0029f4:	94437000 	lhu	v1,28672(v0)
9d0029f8:	7c837bc4 	ins	v1,a0,0xf,0x1
9d0029fc:	a4437000 	sh	v1,28672(v0)
  LCD_Write(0, 0x30 | (n << 3) | (f << 2));
9d002a00:	24050038 	li	a1,56
9d002a04:	0f400989 	jal	9d002624 <LCD_Write>
9d002a08:	00002025 	move	a0,zero
  LCD_Write(0, 0x08 | (d << 2) | (c << 1) | b);
9d002a0c:	2405000c 	li	a1,12
9d002a10:	0f400989 	jal	9d002624 <LCD_Write>
9d002a14:	00002025 	move	a0,zero
  LCD_Clear();             // clear the LCD 
9d002a18:	0f4009b4 	jal	9d0026d0 <LCD_Clear>
9d002a1c:	32100001 	andi	s0,s0,0x1
  LCD_Write(0, 0x04 | (id << 1) | s);
9d002a20:	24050006 	li	a1,6
9d002a24:	0f400989 	jal	9d002624 <LCD_Write>
9d002a28:	00002025 	move	a0,zero
  if(en & 0x1)             // if interrupts were enabled before, re-enable them
9d002a2c:	12000003 	beqz	s0,9d002a3c <LCD_Setup+0x100>
9d002a30:	8fbf0014 	lw	ra,20(sp)
    __builtin_enable_interrupts();
9d002a34:	41626020 	ei	v0
}
9d002a38:	8fbf0014 	lw	ra,20(sp)
9d002a3c:	8fb00010 	lw	s0,16(sp)
9d002a40:	03e00008 	jr	ra
9d002a44:	27bd0018 	addiu	sp,sp,24

9d002a48 <__umoddi3>:
9d002a48:	00c04825 	move	t1,a2
9d002a4c:	00801025 	move	v0,a0
9d002a50:	14e00099 	bnez	a3,9d002cb8 <__umoddi3+0x270>
9d002a54:	00a01825 	move	v1,a1
9d002a58:	00a6302b 	sltu	a2,a1,a2
9d002a5c:	10c00034 	beqz	a2,9d002b30 <__umoddi3+0xe8>
9d002a60:	712a5020 	clz	t2,t1
9d002a64:	51400008 	beqzl	t2,9d002a88 <__umoddi3+0x40>
9d002a68:	00092402 	srl	a0,t1,0x10
9d002a6c:	01451804 	sllv	v1,a1,t2
9d002a70:	000a2823 	negu	a1,t2
9d002a74:	00a42806 	srlv	a1,a0,a1
9d002a78:	01494804 	sllv	t1,t1,t2
9d002a7c:	00a31825 	or	v1,a1,v1
9d002a80:	01441004 	sllv	v0,a0,t2
9d002a84:	00092402 	srl	a0,t1,0x10
9d002a88:	0064001b 	divu	zero,v1,a0
9d002a8c:	008001f4 	teq	a0,zero,0x7
9d002a90:	3127ffff 	andi	a3,t1,0xffff
9d002a94:	00001812 	mflo	v1
9d002a98:	00002810 	mfhi	a1
9d002a9c:	70673002 	mul	a2,v1,a3
9d002aa0:	00051c00 	sll	v1,a1,0x10
9d002aa4:	00022c02 	srl	a1,v0,0x10
9d002aa8:	00651825 	or	v1,v1,a1
9d002aac:	0066282b 	sltu	a1,v1,a2
9d002ab0:	50a00009 	beqzl	a1,9d002ad8 <__umoddi3+0x90>
9d002ab4:	00661823 	subu	v1,v1,a2
9d002ab8:	00691821 	addu	v1,v1,t1
9d002abc:	0069282b 	sltu	a1,v1,t1
9d002ac0:	54a00005 	bnezl	a1,9d002ad8 <__umoddi3+0x90>
9d002ac4:	00661823 	subu	v1,v1,a2
9d002ac8:	0066282b 	sltu	a1,v1,a2
9d002acc:	54a00001 	bnezl	a1,9d002ad4 <__umoddi3+0x8c>
9d002ad0:	00691821 	addu	v1,v1,t1
9d002ad4:	00661823 	subu	v1,v1,a2
9d002ad8:	0064001b 	divu	zero,v1,a0
9d002adc:	008001f4 	teq	a0,zero,0x7
9d002ae0:	3042ffff 	andi	v0,v0,0xffff
9d002ae4:	00001812 	mflo	v1
9d002ae8:	00003010 	mfhi	a2
9d002aec:	70672002 	mul	a0,v1,a3
9d002af0:	00061c00 	sll	v1,a2,0x10
9d002af4:	00621025 	or	v0,v1,v0
9d002af8:	0044182b 	sltu	v1,v0,a0
9d002afc:	50600009 	beqzl	v1,9d002b24 <__umoddi3+0xdc>
9d002b00:	00441023 	subu	v0,v0,a0
9d002b04:	00491021 	addu	v0,v0,t1
9d002b08:	0049182b 	sltu	v1,v0,t1
9d002b0c:	54600005 	bnezl	v1,9d002b24 <__umoddi3+0xdc>
9d002b10:	00441023 	subu	v0,v0,a0
9d002b14:	0044182b 	sltu	v1,v0,a0
9d002b18:	54600001 	bnezl	v1,9d002b20 <__umoddi3+0xd8>
9d002b1c:	00491021 	addu	v0,v0,t1
9d002b20:	00441023 	subu	v0,v0,a0
9d002b24:	01421006 	srlv	v0,v0,t2
9d002b28:	03e00008 	jr	ra
9d002b2c:	00001825 	move	v1,zero
9d002b30:	15200005 	bnez	t1,9d002b48 <__umoddi3+0x100>
9d002b34:	24030001 	li	v1,1
9d002b38:	0069001b 	divu	zero,v1,t1
9d002b3c:	012001f4 	teq	t1,zero,0x7
9d002b40:	00004812 	mflo	t1
9d002b44:	712a5020 	clz	t2,t1
9d002b48:	1540002b 	bnez	t2,9d002bf8 <__umoddi3+0x1b0>
9d002b4c:	24070020 	li	a3,32
9d002b50:	00a92823 	subu	a1,a1,t1
9d002b54:	00092402 	srl	a0,t1,0x10
9d002b58:	00a4001b 	divu	zero,a1,a0
9d002b5c:	008001f4 	teq	a0,zero,0x7
9d002b60:	3127ffff 	andi	a3,t1,0xffff
9d002b64:	00002812 	mflo	a1
9d002b68:	00001810 	mfhi	v1
9d002b6c:	70a73002 	mul	a2,a1,a3
9d002b70:	00032c00 	sll	a1,v1,0x10
9d002b74:	00021c02 	srl	v1,v0,0x10
9d002b78:	00a32825 	or	a1,a1,v1
9d002b7c:	00a6182b 	sltu	v1,a1,a2
9d002b80:	50600009 	beqzl	v1,9d002ba8 <__umoddi3+0x160>
9d002b84:	00a63023 	subu	a2,a1,a2
9d002b88:	00a92821 	addu	a1,a1,t1
9d002b8c:	00a9182b 	sltu	v1,a1,t1
9d002b90:	54600005 	bnezl	v1,9d002ba8 <__umoddi3+0x160>
9d002b94:	00a63023 	subu	a2,a1,a2
9d002b98:	00a6182b 	sltu	v1,a1,a2
9d002b9c:	54600001 	bnezl	v1,9d002ba4 <__umoddi3+0x15c>
9d002ba0:	00a92821 	addu	a1,a1,t1
9d002ba4:	00a63023 	subu	a2,a1,a2
9d002ba8:	00c4001b 	divu	zero,a2,a0
9d002bac:	008001f4 	teq	a0,zero,0x7
9d002bb0:	3042ffff 	andi	v0,v0,0xffff
9d002bb4:	00003012 	mflo	a2
9d002bb8:	00002810 	mfhi	a1
9d002bbc:	70c71802 	mul	v1,a2,a3
9d002bc0:	00053400 	sll	a2,a1,0x10
9d002bc4:	00c21025 	or	v0,a2,v0
9d002bc8:	0043202b 	sltu	a0,v0,v1
9d002bcc:	5080ffd5 	beqzl	a0,9d002b24 <__umoddi3+0xdc>
9d002bd0:	00431023 	subu	v0,v0,v1
9d002bd4:	00491021 	addu	v0,v0,t1
9d002bd8:	0049202b 	sltu	a0,v0,t1
9d002bdc:	5480ffd1 	bnezl	a0,9d002b24 <__umoddi3+0xdc>
9d002be0:	00431023 	subu	v0,v0,v1
9d002be4:	0043202b 	sltu	a0,v0,v1
9d002be8:	54800001 	bnezl	a0,9d002bf0 <__umoddi3+0x1a8>
9d002bec:	00491021 	addu	v0,v0,t1
9d002bf0:	1000ffcc 	b	9d002b24 <__umoddi3+0xdc>
9d002bf4:	00431023 	subu	v0,v0,v1
9d002bf8:	00ea3823 	subu	a3,a3,t2
9d002bfc:	01494804 	sllv	t1,t1,t2
9d002c00:	00e41806 	srlv	v1,a0,a3
9d002c04:	00093402 	srl	a2,t1,0x10
9d002c08:	00e53806 	srlv	a3,a1,a3
9d002c0c:	00e6001b 	divu	zero,a3,a2
9d002c10:	00c001f4 	teq	a2,zero,0x7
9d002c14:	01451004 	sllv	v0,a1,t2
9d002c18:	312bffff 	andi	t3,t1,0xffff
9d002c1c:	00621825 	or	v1,v1,v0
9d002c20:	01441004 	sllv	v0,a0,t2
9d002c24:	00032c02 	srl	a1,v1,0x10
9d002c28:	00003812 	mflo	a3
9d002c2c:	00002010 	mfhi	a0
9d002c30:	70eb4002 	mul	t0,a3,t3
9d002c34:	00043c00 	sll	a3,a0,0x10
9d002c38:	00e53825 	or	a3,a3,a1
9d002c3c:	00e8202b 	sltu	a0,a3,t0
9d002c40:	50800009 	beqzl	a0,9d002c68 <__umoddi3+0x220>
9d002c44:	00e83823 	subu	a3,a3,t0
9d002c48:	00e93821 	addu	a3,a3,t1
9d002c4c:	00e9202b 	sltu	a0,a3,t1
9d002c50:	54800005 	bnezl	a0,9d002c68 <__umoddi3+0x220>
9d002c54:	00e83823 	subu	a3,a3,t0
9d002c58:	00e8202b 	sltu	a0,a3,t0
9d002c5c:	54800001 	bnezl	a0,9d002c64 <__umoddi3+0x21c>
9d002c60:	00e93821 	addu	a3,a3,t1
9d002c64:	00e83823 	subu	a3,a3,t0
9d002c68:	00e6001b 	divu	zero,a3,a2
9d002c6c:	00c001f4 	teq	a2,zero,0x7
9d002c70:	3065ffff 	andi	a1,v1,0xffff
9d002c74:	00003012 	mflo	a2
9d002c78:	00003810 	mfhi	a3
9d002c7c:	00073c00 	sll	a3,a3,0x10
9d002c80:	00e52825 	or	a1,a3,a1
9d002c84:	70cb3002 	mul	a2,a2,t3
9d002c88:	00a6182b 	sltu	v1,a1,a2
9d002c8c:	5060ffb1 	beqzl	v1,9d002b54 <__umoddi3+0x10c>
9d002c90:	00a62823 	subu	a1,a1,a2
9d002c94:	00a92821 	addu	a1,a1,t1
9d002c98:	00a9182b 	sltu	v1,a1,t1
9d002c9c:	5460ffad 	bnezl	v1,9d002b54 <__umoddi3+0x10c>
9d002ca0:	00a62823 	subu	a1,a1,a2
9d002ca4:	00a6182b 	sltu	v1,a1,a2
9d002ca8:	54600001 	bnezl	v1,9d002cb0 <__umoddi3+0x268>
9d002cac:	00a92821 	addu	a1,a1,t1
9d002cb0:	1000ffa8 	b	9d002b54 <__umoddi3+0x10c>
9d002cb4:	00a62823 	subu	a1,a1,a2
9d002cb8:	00a7402b 	sltu	t0,a1,a3
9d002cbc:	1500005e 	bnez	t0,9d002e38 <__umoddi3+0x3f0>
9d002cc0:	70ee7020 	clz	t6,a3
9d002cc4:	15c0000c 	bnez	t6,9d002cf8 <__umoddi3+0x2b0>
9d002cc8:	240b0020 	li	t3,32
9d002ccc:	00e5402b 	sltu	t0,a3,a1
9d002cd0:	55000005 	bnezl	t0,9d002ce8 <__umoddi3+0x2a0>
9d002cd4:	00861023 	subu	v0,a0,a2
9d002cd8:	0086402b 	sltu	t0,a0,a2
9d002cdc:	15000056 	bnez	t0,9d002e38 <__umoddi3+0x3f0>
9d002ce0:	00000000 	nop
9d002ce4:	00861023 	subu	v0,a0,a2
9d002ce8:	00a72823 	subu	a1,a1,a3
9d002cec:	0082182b 	sltu	v1,a0,v0
9d002cf0:	03e00008 	jr	ra
9d002cf4:	00a31823 	subu	v1,a1,v1
9d002cf8:	016e5823 	subu	t3,t3,t6
9d002cfc:	01666006 	srlv	t4,a2,t3
9d002d00:	01c73804 	sllv	a3,a3,t6
9d002d04:	01873825 	or	a3,t4,a3
9d002d08:	01c51804 	sllv	v1,a1,t6
9d002d0c:	00074c02 	srl	t1,a3,0x10
9d002d10:	01652806 	srlv	a1,a1,t3
9d002d14:	00a9001b 	divu	zero,a1,t1
9d002d18:	012001f4 	teq	t1,zero,0x7
9d002d1c:	01c61004 	sllv	v0,a2,t6
9d002d20:	30e8ffff 	andi	t0,a3,0xffff
9d002d24:	01643006 	srlv	a2,a0,t3
9d002d28:	00c33025 	or	a2,a2,v1
9d002d2c:	00066402 	srl	t4,a2,0x10
9d002d30:	01c42004 	sllv	a0,a0,t6
9d002d34:	00002812 	mflo	a1
9d002d38:	00005010 	mfhi	t2
9d002d3c:	000a5400 	sll	t2,t2,0x10
9d002d40:	014c5025 	or	t2,t2,t4
9d002d44:	71051802 	mul	v1,t0,a1
9d002d48:	0143602b 	sltu	t4,t2,v1
9d002d4c:	1180000a 	beqz	t4,9d002d78 <__umoddi3+0x330>
9d002d50:	00a06825 	move	t5,a1
9d002d54:	01475021 	addu	t2,t2,a3
9d002d58:	0147602b 	sltu	t4,t2,a3
9d002d5c:	15800006 	bnez	t4,9d002d78 <__umoddi3+0x330>
9d002d60:	24adffff 	addiu	t5,a1,-1
9d002d64:	0143602b 	sltu	t4,t2,v1
9d002d68:	51800004 	beqzl	t4,9d002d7c <__umoddi3+0x334>
9d002d6c:	01435023 	subu	t2,t2,v1
9d002d70:	24adfffe 	addiu	t5,a1,-2
9d002d74:	01475021 	addu	t2,t2,a3
9d002d78:	01435023 	subu	t2,t2,v1
9d002d7c:	0149001b 	divu	zero,t2,t1
9d002d80:	012001f4 	teq	t1,zero,0x7
9d002d84:	00004812 	mflo	t1
9d002d88:	00005010 	mfhi	t2
9d002d8c:	000a5400 	sll	t2,t2,0x10
9d002d90:	71091802 	mul	v1,t0,t1
9d002d94:	30c8ffff 	andi	t0,a2,0xffff
9d002d98:	01484025 	or	t0,t2,t0
9d002d9c:	0103302b 	sltu	a2,t0,v1
9d002da0:	10c0000a 	beqz	a2,9d002dcc <__umoddi3+0x384>
9d002da4:	01202825 	move	a1,t1
9d002da8:	01074021 	addu	t0,t0,a3
9d002dac:	0107302b 	sltu	a2,t0,a3
9d002db0:	14c00006 	bnez	a2,9d002dcc <__umoddi3+0x384>
9d002db4:	2525ffff 	addiu	a1,t1,-1
9d002db8:	0103302b 	sltu	a2,t0,v1
9d002dbc:	10c00004 	beqz	a2,9d002dd0 <__umoddi3+0x388>
9d002dc0:	000d6400 	sll	t4,t5,0x10
9d002dc4:	2525fffe 	addiu	a1,t1,-2
9d002dc8:	01074021 	addu	t0,t0,a3
9d002dcc:	000d6400 	sll	t4,t5,0x10
9d002dd0:	01856025 	or	t4,t4,a1
9d002dd4:	01820019 	multu	t4,v0
9d002dd8:	01034023 	subu	t0,t0,v1
9d002ddc:	00006810 	mfhi	t5
9d002de0:	010d282b 	sltu	a1,t0,t5
9d002de4:	01a01825 	move	v1,t5
9d002de8:	00006012 	mflo	t4
9d002dec:	14a00006 	bnez	a1,9d002e08 <__umoddi3+0x3c0>
9d002df0:	00003012 	mflo	a2
9d002df4:	150d0009 	bne	t0,t5,9d002e1c <__umoddi3+0x3d4>
9d002df8:	00863023 	subu	a2,a0,a2
9d002dfc:	008c282b 	sltu	a1,a0,t4
9d002e00:	50a00007 	beqzl	a1,9d002e20 <__umoddi3+0x3d8>
9d002e04:	01034023 	subu	t0,t0,v1
9d002e08:	01823023 	subu	a2,t4,v0
9d002e0c:	01a73823 	subu	a3,t5,a3
9d002e10:	0186602b 	sltu	t4,t4,a2
9d002e14:	00ec1823 	subu	v1,a3,t4
9d002e18:	00863023 	subu	a2,a0,a2
9d002e1c:	01034023 	subu	t0,t0,v1
9d002e20:	0086182b 	sltu	v1,a0,a2
9d002e24:	01031823 	subu	v1,t0,v1
9d002e28:	01631004 	sllv	v0,v1,t3
9d002e2c:	01c63006 	srlv	a2,a2,t6
9d002e30:	00461025 	or	v0,v0,a2
9d002e34:	01c31806 	srlv	v1,v1,t6
9d002e38:	03e00008 	jr	ra
9d002e3c:	00000000 	nop

Disassembly of section .text:

9d002e40 <__udivdi3>:
9d002e40:	00c04025 	move	t0,a2
9d002e44:	00e01825 	move	v1,a3
9d002e48:	00805025 	move	t2,a0
9d002e4c:	14e000a3 	bnez	a3,9d0030dc <__udivdi3+0x29c>
9d002e50:	00a01025 	move	v0,a1
9d002e54:	00a6302b 	sltu	a2,a1,a2
9d002e58:	10c00034 	beqz	a2,9d002f2c <__udivdi3+0xec>
9d002e5c:	00000000 	nop
9d002e60:	71052820 	clz	a1,t0
9d002e64:	50a00008 	beqzl	a1,9d002e88 <__udivdi3+0x48>
9d002e68:	00082c02 	srl	a1,t0,0x10
9d002e6c:	00052023 	negu	a0,a1
9d002e70:	008a2006 	srlv	a0,t2,a0
9d002e74:	00a21004 	sllv	v0,v0,a1
9d002e78:	00a84004 	sllv	t0,t0,a1
9d002e7c:	00821025 	or	v0,a0,v0
9d002e80:	00aa5004 	sllv	t2,t2,a1
9d002e84:	00082c02 	srl	a1,t0,0x10
9d002e88:	0045001b 	divu	zero,v0,a1
9d002e8c:	00a001f4 	teq	a1,zero,0x7
9d002e90:	3107ffff 	andi	a3,t0,0xffff
9d002e94:	000a2402 	srl	a0,t2,0x10
9d002e98:	00003012 	mflo	a2
9d002e9c:	00001010 	mfhi	v0
9d002ea0:	00021400 	sll	v0,v0,0x10
9d002ea4:	00442025 	or	a0,v0,a0
9d002ea8:	70e64802 	mul	t1,a3,a2
9d002eac:	0089582b 	sltu	t3,a0,t1
9d002eb0:	1160000a 	beqz	t3,9d002edc <__udivdi3+0x9c>
9d002eb4:	00c01025 	move	v0,a2
9d002eb8:	00882021 	addu	a0,a0,t0
9d002ebc:	0088582b 	sltu	t3,a0,t0
9d002ec0:	15600006 	bnez	t3,9d002edc <__udivdi3+0x9c>
9d002ec4:	24c2ffff 	addiu	v0,a2,-1
9d002ec8:	0089582b 	sltu	t3,a0,t1
9d002ecc:	51600004 	beqzl	t3,9d002ee0 <__udivdi3+0xa0>
9d002ed0:	00892023 	subu	a0,a0,t1
9d002ed4:	24c2fffe 	addiu	v0,a2,-2
9d002ed8:	00882021 	addu	a0,a0,t0
9d002edc:	00892023 	subu	a0,a0,t1
9d002ee0:	0085001b 	divu	zero,a0,a1
9d002ee4:	00a001f4 	teq	a1,zero,0x7
9d002ee8:	314affff 	andi	t2,t2,0xffff
9d002eec:	00002012 	mflo	a0
9d002ef0:	00002810 	mfhi	a1
9d002ef4:	00052c00 	sll	a1,a1,0x10
9d002ef8:	00aa5025 	or	t2,a1,t2
9d002efc:	70e43802 	mul	a3,a3,a0
9d002f00:	0147282b 	sltu	a1,t2,a3
9d002f04:	10a00006 	beqz	a1,9d002f20 <__udivdi3+0xe0>
9d002f08:	00803025 	move	a2,a0
9d002f0c:	010a5021 	addu	t2,t0,t2
9d002f10:	0148402b 	sltu	t0,t2,t0
9d002f14:	2486ffff 	addiu	a2,a0,-1
9d002f18:	11000036 	beqz	t0,9d002ff4 <__udivdi3+0x1b4>
9d002f1c:	0147502b 	sltu	t2,t2,a3
9d002f20:	00021400 	sll	v0,v0,0x10
9d002f24:	03e00008 	jr	ra
9d002f28:	00461025 	or	v0,v0,a2
9d002f2c:	15000006 	bnez	t0,9d002f48 <__udivdi3+0x108>
9d002f30:	71021020 	clz	v0,t0
9d002f34:	24020001 	li	v0,1
9d002f38:	0048001b 	divu	zero,v0,t0
9d002f3c:	010001f4 	teq	t0,zero,0x7
9d002f40:	00004012 	mflo	t0
9d002f44:	71021020 	clz	v0,t0
9d002f48:	1440002e 	bnez	v0,9d003004 <__udivdi3+0x1c4>
9d002f4c:	24090020 	li	t1,32
9d002f50:	00a82823 	subu	a1,a1,t0
9d002f54:	24030001 	li	v1,1
9d002f58:	00083402 	srl	a2,t0,0x10
9d002f5c:	00a6001b 	divu	zero,a1,a2
9d002f60:	00c001f4 	teq	a2,zero,0x7
9d002f64:	3107ffff 	andi	a3,t0,0xffff
9d002f68:	000a2402 	srl	a0,t2,0x10
9d002f6c:	00002812 	mflo	a1
9d002f70:	00001010 	mfhi	v0
9d002f74:	00021400 	sll	v0,v0,0x10
9d002f78:	00442025 	or	a0,v0,a0
9d002f7c:	70e54802 	mul	t1,a3,a1
9d002f80:	0089582b 	sltu	t3,a0,t1
9d002f84:	1160000a 	beqz	t3,9d002fb0 <__udivdi3+0x170>
9d002f88:	00a01025 	move	v0,a1
9d002f8c:	00882021 	addu	a0,a0,t0
9d002f90:	0088582b 	sltu	t3,a0,t0
9d002f94:	15600006 	bnez	t3,9d002fb0 <__udivdi3+0x170>
9d002f98:	24a2ffff 	addiu	v0,a1,-1
9d002f9c:	0089582b 	sltu	t3,a0,t1
9d002fa0:	51600004 	beqzl	t3,9d002fb4 <__udivdi3+0x174>
9d002fa4:	00892023 	subu	a0,a0,t1
9d002fa8:	24a2fffe 	addiu	v0,a1,-2
9d002fac:	00882021 	addu	a0,a0,t0
9d002fb0:	00892023 	subu	a0,a0,t1
9d002fb4:	0086001b 	divu	zero,a0,a2
9d002fb8:	00c001f4 	teq	a2,zero,0x7
9d002fbc:	314affff 	andi	t2,t2,0xffff
9d002fc0:	00002012 	mflo	a0
9d002fc4:	00003010 	mfhi	a2
9d002fc8:	00063400 	sll	a2,a2,0x10
9d002fcc:	00ca5025 	or	t2,a2,t2
9d002fd0:	70e42802 	mul	a1,a3,a0
9d002fd4:	0145382b 	sltu	a3,t2,a1
9d002fd8:	10e0ffd1 	beqz	a3,9d002f20 <__udivdi3+0xe0>
9d002fdc:	00803025 	move	a2,a0
9d002fe0:	010a5021 	addu	t2,t0,t2
9d002fe4:	0148402b 	sltu	t0,t2,t0
9d002fe8:	1500ffcd 	bnez	t0,9d002f20 <__udivdi3+0xe0>
9d002fec:	2486ffff 	addiu	a2,a0,-1
9d002ff0:	0145502b 	sltu	t2,t2,a1
9d002ff4:	5540ffca 	bnezl	t2,9d002f20 <__udivdi3+0xe0>
9d002ff8:	2486fffe 	addiu	a2,a0,-2
9d002ffc:	1000ffc9 	b	9d002f24 <__udivdi3+0xe4>
9d003000:	00021400 	sll	v0,v0,0x10
9d003004:	01224823 	subu	t1,t1,v0
9d003008:	00484004 	sllv	t0,t0,v0
9d00300c:	00451804 	sllv	v1,a1,v0
9d003010:	00445004 	sllv	t2,a0,v0
9d003014:	01252806 	srlv	a1,a1,t1
9d003018:	00081402 	srl	v0,t0,0x10
9d00301c:	00a2001b 	divu	zero,a1,v0
9d003020:	004001f4 	teq	v0,zero,0x7
9d003024:	3106ffff 	andi	a2,t0,0xffff
9d003028:	01243806 	srlv	a3,a0,t1
9d00302c:	00e33825 	or	a3,a3,v1
9d003030:	00071c02 	srl	v1,a3,0x10
9d003034:	00002812 	mflo	a1
9d003038:	00002010 	mfhi	a0
9d00303c:	00042400 	sll	a0,a0,0x10
9d003040:	00832025 	or	a0,a0,v1
9d003044:	70c54802 	mul	t1,a2,a1
9d003048:	0089582b 	sltu	t3,a0,t1
9d00304c:	1160000a 	beqz	t3,9d003078 <__udivdi3+0x238>
9d003050:	00a01825 	move	v1,a1
9d003054:	00882021 	addu	a0,a0,t0
9d003058:	0088582b 	sltu	t3,a0,t0
9d00305c:	15600006 	bnez	t3,9d003078 <__udivdi3+0x238>
9d003060:	24a3ffff 	addiu	v1,a1,-1
9d003064:	0089582b 	sltu	t3,a0,t1
9d003068:	51600004 	beqzl	t3,9d00307c <__udivdi3+0x23c>
9d00306c:	00892023 	subu	a0,a0,t1
9d003070:	24a3fffe 	addiu	v1,a1,-2
9d003074:	00882021 	addu	a0,a0,t0
9d003078:	00892023 	subu	a0,a0,t1
9d00307c:	0082001b 	divu	zero,a0,v0
9d003080:	004001f4 	teq	v0,zero,0x7
9d003084:	30e5ffff 	andi	a1,a3,0xffff
9d003088:	00001012 	mflo	v0
9d00308c:	00002010 	mfhi	a0
9d003090:	00042400 	sll	a0,a0,0x10
9d003094:	00852825 	or	a1,a0,a1
9d003098:	70c23002 	mul	a2,a2,v0
9d00309c:	00a6382b 	sltu	a3,a1,a2
9d0030a0:	10e0000a 	beqz	a3,9d0030cc <__udivdi3+0x28c>
9d0030a4:	00402025 	move	a0,v0
9d0030a8:	00a82821 	addu	a1,a1,t0
9d0030ac:	00a8382b 	sltu	a3,a1,t0
9d0030b0:	14e00006 	bnez	a3,9d0030cc <__udivdi3+0x28c>
9d0030b4:	2444ffff 	addiu	a0,v0,-1
9d0030b8:	00a6382b 	sltu	a3,a1,a2
9d0030bc:	50e00004 	beqzl	a3,9d0030d0 <__udivdi3+0x290>
9d0030c0:	00031c00 	sll	v1,v1,0x10
9d0030c4:	2444fffe 	addiu	a0,v0,-2
9d0030c8:	00a82821 	addu	a1,a1,t0
9d0030cc:	00031c00 	sll	v1,v1,0x10
9d0030d0:	00a62823 	subu	a1,a1,a2
9d0030d4:	1000ffa0 	b	9d002f58 <__udivdi3+0x118>
9d0030d8:	00641825 	or	v1,v1,a0
9d0030dc:	00a7102b 	sltu	v0,a1,a3
9d0030e0:	1440004f 	bnez	v0,9d003220 <__udivdi3+0x3e0>
9d0030e4:	00001825 	move	v1,zero
9d0030e8:	70ea5020 	clz	t2,a3
9d0030ec:	15400008 	bnez	t2,9d003110 <__udivdi3+0x2d0>
9d0030f0:	24090020 	li	t1,32
9d0030f4:	00e5282b 	sltu	a1,a3,a1
9d0030f8:	54a0004a 	bnezl	a1,9d003224 <__udivdi3+0x3e4>
9d0030fc:	24020001 	li	v0,1
9d003100:	0086102b 	sltu	v0,a0,a2
9d003104:	38420001 	xori	v0,v0,0x1
9d003108:	03e00008 	jr	ra
9d00310c:	00001825 	move	v1,zero
9d003110:	012a4823 	subu	t1,t1,t2
9d003114:	01261006 	srlv	v0,a2,t1
9d003118:	01473804 	sllv	a3,a3,t2
9d00311c:	00473825 	or	a3,v0,a3
9d003120:	00074402 	srl	t0,a3,0x10
9d003124:	01451004 	sllv	v0,a1,t2
9d003128:	01252806 	srlv	a1,a1,t1
9d00312c:	00a8001b 	divu	zero,a1,t0
9d003130:	010001f4 	teq	t0,zero,0x7
9d003134:	01246006 	srlv	t4,a0,t1
9d003138:	30ebffff 	andi	t3,a3,0xffff
9d00313c:	01826025 	or	t4,t4,v0
9d003140:	000c1c02 	srl	v1,t4,0x10
9d003144:	01463004 	sllv	a2,a2,t2
9d003148:	00002812 	mflo	a1
9d00314c:	00004810 	mfhi	t1
9d003150:	00094c00 	sll	t1,t1,0x10
9d003154:	01234825 	or	t1,t1,v1
9d003158:	71651002 	mul	v0,t3,a1
9d00315c:	0122682b 	sltu	t5,t1,v0
9d003160:	11a0000a 	beqz	t5,9d00318c <__udivdi3+0x34c>
9d003164:	00a01825 	move	v1,a1
9d003168:	01274821 	addu	t1,t1,a3
9d00316c:	0127682b 	sltu	t5,t1,a3
9d003170:	15a00006 	bnez	t5,9d00318c <__udivdi3+0x34c>
9d003174:	24a3ffff 	addiu	v1,a1,-1
9d003178:	0122682b 	sltu	t5,t1,v0
9d00317c:	51a00004 	beqzl	t5,9d003190 <__udivdi3+0x350>
9d003180:	01224823 	subu	t1,t1,v0
9d003184:	24a3fffe 	addiu	v1,a1,-2
9d003188:	01274821 	addu	t1,t1,a3
9d00318c:	01224823 	subu	t1,t1,v0
9d003190:	0128001b 	divu	zero,t1,t0
9d003194:	010001f4 	teq	t0,zero,0x7
9d003198:	3185ffff 	andi	a1,t4,0xffff
9d00319c:	00004012 	mflo	t0
9d0031a0:	00004810 	mfhi	t1
9d0031a4:	00094c00 	sll	t1,t1,0x10
9d0031a8:	01252825 	or	a1,t1,a1
9d0031ac:	71685802 	mul	t3,t3,t0
9d0031b0:	00ab102b 	sltu	v0,a1,t3
9d0031b4:	1040000a 	beqz	v0,9d0031e0 <__udivdi3+0x3a0>
9d0031b8:	01004825 	move	t1,t0
9d0031bc:	00a72821 	addu	a1,a1,a3
9d0031c0:	00a7102b 	sltu	v0,a1,a3
9d0031c4:	14400006 	bnez	v0,9d0031e0 <__udivdi3+0x3a0>
9d0031c8:	2509ffff 	addiu	t1,t0,-1
9d0031cc:	00ab102b 	sltu	v0,a1,t3
9d0031d0:	10400004 	beqz	v0,9d0031e4 <__udivdi3+0x3a4>
9d0031d4:	00031400 	sll	v0,v1,0x10
9d0031d8:	2509fffe 	addiu	t1,t0,-2
9d0031dc:	00a72821 	addu	a1,a1,a3
9d0031e0:	00031400 	sll	v0,v1,0x10
9d0031e4:	00491025 	or	v0,v0,t1
9d0031e8:	00460019 	multu	v0,a2
9d0031ec:	00ab2823 	subu	a1,a1,t3
9d0031f0:	00003810 	mfhi	a3
9d0031f4:	00a7182b 	sltu	v1,a1,a3
9d0031f8:	14600007 	bnez	v1,9d003218 <__udivdi3+0x3d8>
9d0031fc:	00003012 	mflo	a2
9d003200:	14a70008 	bne	a1,a3,9d003224 <__udivdi3+0x3e4>
9d003204:	00001825 	move	v1,zero
9d003208:	01442004 	sllv	a0,a0,t2
9d00320c:	0086202b 	sltu	a0,a0,a2
9d003210:	10800004 	beqz	a0,9d003224 <__udivdi3+0x3e4>
9d003214:	00000000 	nop
9d003218:	1000ffbb 	b	9d003108 <__udivdi3+0x2c8>
9d00321c:	2442ffff 	addiu	v0,v0,-1
9d003220:	00001025 	move	v0,zero
9d003224:	03e00008 	jr	ra
9d003228:	00000000 	nop

9d00322c <NU32_Startup>:

// Perform startup routines:
//  Make NU32_LED1 and NU32_LED2 pins outputs (NU32_USER is by default an input)
//  Initialize the serial port - UART3 (no interrupt) 
//  Enable interrupts
void NU32_Startup() {
9d00322c:	27bdfff8 	addiu	sp,sp,-8
9d003230:	afbf0004 	sw	ra,4(sp)
  // disable interrupts
  __builtin_disable_interrupts();
9d003234:	41626000 	di	v0
9d003238:	000000c0 	ehb
  // see Chapter 2 "CPU for Devices with M4K Core" of the PIC32 reference manual
  // most of the other bits have prescribed values
  // microchip does not provide a _CP0_SET_CONFIG macro, so we directly use
  // the compiler built-in command _mtc0
  // to disable cache, use 0xa4210582 
  __builtin_mtc0(_CP0_CONFIG, _CP0_CONFIG_SELECT, 0xa4210583); 
9d00323c:	3c02a421 	lui	v0,0xa421
9d003240:	24420583 	addiu	v0,v0,1411
9d003244:	40828000 	mtc0	v0,c0_config
9d003248:	000000c0 	ehb
  
  // set the prefectch cache wait state to 2, as per the
  // electrical characteristics data sheet
  CHECONbits.PFMWS = 0x2;   
9d00324c:	3c02bf88 	lui	v0,0xbf88
9d003250:	8c434000 	lw	v1,16384(v0)
9d003254:	24050002 	li	a1,2
9d003258:	7ca31004 	ins	v1,a1,0x0,0x3
9d00325c:	ac434000 	sw	v1,16384(v0)

  //enable prefetch for cacheable and noncacheable memory
  CHECONbits.PREFEN = 0x3; 
9d003260:	8c434000 	lw	v1,16384(v0)
9d003264:	24040003 	li	a0,3
9d003268:	7c832904 	ins	v1,a0,0x4,0x2
9d00326c:	ac434000 	sw	v1,16384(v0)

  // 0 data RAM access wait states
  BMXCONbits.BMXWSDRM = 0x0;
9d003270:	3c02bf88 	lui	v0,0xbf88
9d003274:	8c432000 	lw	v1,8192(v0)
9d003278:	7c033184 	ins	v1,zero,0x6,0x1
9d00327c:	ac432000 	sw	v1,8192(v0)
  
  // enable multi vector interrupts
  INTCONbits.MVEC = 0x1;
9d003280:	3c02bf88 	lui	v0,0xbf88
9d003284:	8c461000 	lw	a2,4096(v0)
9d003288:	24030001 	li	v1,1
9d00328c:	7c666304 	ins	a2,v1,0xc,0x1
9d003290:	ac461000 	sw	a2,4096(v0)

  // disable JTAG to get B10, B11, B12 and B13 back
  DDPCONbits.JTAGEN = 0;
9d003294:	3c02bf81 	lui	v0,0xbf81
9d003298:	9046f200 	lbu	a2,-3584(v0)
9d00329c:	7c0618c4 	ins	a2,zero,0x3,0x1
9d0032a0:	a046f200 	sb	a2,-3584(v0)

  TRISFCLR = 0x0003;  // Make F0 and F1 outputs (LED1 and LED2)
9d0032a4:	3c02bf88 	lui	v0,0xbf88
9d0032a8:	ac446144 	sw	a0,24900(v0)
  NU32_LED1 = 1;      // LED1 is off
9d0032ac:	3c02bf88 	lui	v0,0xbf88
9d0032b0:	90446160 	lbu	a0,24928(v0)
9d0032b4:	7c640004 	ins	a0,v1,0x0,0x1
9d0032b8:	a0446160 	sb	a0,24928(v0)
  NU32_LED2 = 0;      // LED2 is on
9d0032bc:	90446160 	lbu	a0,24928(v0)
9d0032c0:	7c040844 	ins	a0,zero,0x1,0x1
9d0032c4:	a0446160 	sb	a0,24928(v0)

  // turn on UART3 without an interrupt
  U3MODEbits.BRGH = 0; // set baud to NU32_DESIRED_BAUD
9d0032c8:	3c02bf80 	lui	v0,0xbf80
9d0032cc:	94446400 	lhu	a0,25600(v0)
9d0032d0:	7c0418c4 	ins	a0,zero,0x3,0x1
9d0032d4:	a4446400 	sh	a0,25600(v0)
  U3BRG = ((NU32_SYS_FREQ / NU32_DESIRED_BAUD) / 16) - 1;
9d0032d8:	3c04bf80 	lui	a0,0xbf80
9d0032dc:	24060014 	li	a2,20
9d0032e0:	ac866440 	sw	a2,25664(a0)

  // 8 bit, no parity bit, and 1 stop bit (8N1 setup)
  U3MODEbits.PDSEL = 0;
9d0032e4:	94446400 	lhu	a0,25600(v0)
9d0032e8:	7c041044 	ins	a0,zero,0x1,0x2
9d0032ec:	a4446400 	sh	a0,25600(v0)
  U3MODEbits.STSEL = 0;
9d0032f0:	94446400 	lhu	a0,25600(v0)
9d0032f4:	7c040004 	ins	a0,zero,0x0,0x1
9d0032f8:	a4446400 	sh	a0,25600(v0)

  // configure TX & RX pins as output & input pins
  U3STAbits.UTXEN = 1;
9d0032fc:	3c04bf80 	lui	a0,0xbf80
9d003300:	8c866410 	lw	a2,25616(a0)
9d003304:	7c665284 	ins	a2,v1,0xa,0x1
9d003308:	ac866410 	sw	a2,25616(a0)
  U3STAbits.URXEN = 1;
9d00330c:	8c866410 	lw	a2,25616(a0)
9d003310:	7c666304 	ins	a2,v1,0xc,0x1
9d003314:	ac866410 	sw	a2,25616(a0)
  // configure hardware flow control using RTS and CTS
  U3MODEbits.UEN = 2;
9d003318:	94446400 	lhu	a0,25600(v0)
9d00331c:	7ca44a04 	ins	a0,a1,0x8,0x2
9d003320:	a4446400 	sh	a0,25600(v0)

  // enable the uart
  U3MODEbits.ON = 1;
9d003324:	94446400 	lhu	a0,25600(v0)
9d003328:	7c647bc4 	ins	a0,v1,0xf,0x1
9d00332c:	a4446400 	sh	a0,25600(v0)

  __builtin_enable_interrupts();
9d003330:	41626020 	ei	v0
}
9d003334:	8fbf0004 	lw	ra,4(sp)
9d003338:	03e00008 	jr	ra
9d00333c:	27bd0008 	addiu	sp,sp,8

9d003340 <NU32_ReadUART3>:
// Read from UART3
// block other functions until you get a '\r' or '\n'
// send the pointer to your char array and the number of elements in the array
void NU32_ReadUART3(char * message, int maxLength) {
  char data = 0;
  int complete = 0, num_bytes = 0;
9d003340:	00003025 	move	a2,zero
  // loop until you get a '\r' or '\n'
  while (!complete) {
    if (U3STAbits.URXDA) { // if data is available
9d003344:	3c03bf80 	lui	v1,0xbf80
      data = U3RXREG;      // read the data
9d003348:	3c09bf80 	lui	t1,0xbf80
      if ((data == '\n') || (data == '\r')) {
9d00334c:	2408000a 	li	t0,10
9d003350:	240a000d 	li	t2,13
    if (U3STAbits.URXDA) { // if data is available
9d003354:	8c626410 	lw	v0,25616(v1)
9d003358:	30420001 	andi	v0,v0,0x1
9d00335c:	1040fffd 	beqz	v0,9d003354 <NU32_ReadUART3+0x14>
9d003360:	00000000 	nop
      data = U3RXREG;      // read the data
9d003364:	8d226430 	lw	v0,25648(t1)
9d003368:	7c021420 	seb	v0,v0
      if ((data == '\n') || (data == '\r')) {
9d00336c:	50480009 	beql	v0,t0,9d003394 <NU32_ReadUART3+0x54>
9d003370:	00862021 	addu	a0,a0,a2
9d003374:	104a0006 	beq	v0,t2,9d003390 <NU32_ReadUART3+0x50>
9d003378:	00863821 	addu	a3,a0,a2
        complete = 1;
      } else {
        message[num_bytes] = data;
9d00337c:	a0e20000 	sb	v0,0(a3)
        ++num_bytes;
9d003380:	24c60001 	addiu	a2,a2,1
        // roll over if the array is too small
        if (num_bytes >= maxLength) {
9d003384:	00c5102a 	slt	v0,a2,a1
9d003388:	1000fff2 	b	9d003354 <NU32_ReadUART3+0x14>
9d00338c:	0002300a 	movz	a2,zero,v0
        }
      }
    }
  }
  // end the string
  message[num_bytes] = '\0';
9d003390:	00862021 	addu	a0,a0,a2
}
9d003394:	03e00008 	jr	ra
9d003398:	a0800000 	sb	zero,0(a0)

9d00339c <NU32_WriteUART3>:

// Write a character array using UART3
void NU32_WriteUART3(const char * string) {
  while (*string != '\0') {
9d00339c:	80850000 	lb	a1,0(a0)
9d0033a0:	10a0000b 	beqz	a1,9d0033d0 <NU32_WriteUART3+0x34>
9d0033a4:	3c03bf80 	lui	v1,0xbf80
    while (U3STAbits.UTXBF) {
      ; // wait until tx buffer isn't full
    }
    U3TXREG = *string;
9d0033a8:	3c06bf80 	lui	a2,0xbf80
    while (U3STAbits.UTXBF) {
9d0033ac:	8c626410 	lw	v0,25616(v1)
9d0033b0:	7c420240 	ext	v0,v0,0x9,0x1
9d0033b4:	1440fffd 	bnez	v0,9d0033ac <NU32_WriteUART3+0x10>
9d0033b8:	00000000 	nop
    U3TXREG = *string;
9d0033bc:	acc56420 	sw	a1,25632(a2)
    ++string;
9d0033c0:	24840001 	addiu	a0,a0,1
  while (*string != '\0') {
9d0033c4:	80850000 	lb	a1,0(a0)
9d0033c8:	14a0fff8 	bnez	a1,9d0033ac <NU32_WriteUART3+0x10>
9d0033cc:	00000000 	nop
  }
}
9d0033d0:	03e00008 	jr	ra
9d0033d4:	00000000 	nop

Disassembly of section .text._mon_getc:

9d0033d8 <_mon_getc>:
9d0033d8:	3c02a000 	lui	v0,0xa000
9d0033dc:	8c450004 	lw	a1,4(v0)
9d0033e0:	14a00013 	bnez	a1,9d003430 <_mon_getc+0x58>
9d0033e4:	3c02bf80 	lui	v0,0xbf80
9d0033e8:	3c020000 	lui	v0,0x0
9d0033ec:	27bdffe8 	addiu	sp,sp,-24
9d0033f0:	24420000 	addiu	v0,v0,0
9d0033f4:	10400006 	beqz	v0,9d003410 <_mon_getc+0x38>
9d0033f8:	afbf0014 	sw	ra,20(sp)
9d0033fc:	0c000000 	jal	90000000 <_bmxdudba_address+0x8ffe0000>
9d003400:	00000000 	nop
9d003404:	8fbf0014 	lw	ra,20(sp)
9d003408:	03e00008 	jr	ra
9d00340c:	27bd0018 	addiu	sp,sp,24
9d003410:	3c020000 	lui	v0,0x0
9d003414:	24420000 	addiu	v0,v0,0
9d003418:	50400027 	beqzl	v0,9d0034b8 <_mon_getc+0xe0>
9d00341c:	3c02bf80 	lui	v0,0xbf80
9d003420:	0c000000 	jal	90000000 <_bmxdudba_address+0x8ffe0000>
9d003424:	00000000 	nop
9d003428:	1000fff7 	b	9d003408 <_mon_getc+0x30>
9d00342c:	8fbf0014 	lw	ra,20(sp)
9d003430:	24436010 	addiu	v1,v0,24592
9d003434:	10600018 	beqz	v1,9d003498 <_mon_getc+0xc0>
9d003438:	2402ffff 	li	v0,-1
9d00343c:	24020002 	li	v0,2
9d003440:	10a20017 	beq	a1,v0,9d0034a0 <_mon_getc+0xc8>
9d003444:	3c02bf80 	lui	v0,0xbf80
9d003448:	3c02bf80 	lui	v0,0xbf80
9d00344c:	3c04bf80 	lui	a0,0xbf80
9d003450:	8c456000 	lw	a1,24576(v0)
9d003454:	24846030 	addiu	a0,a0,24624
9d003458:	00601025 	move	v0,v1
9d00345c:	30a58000 	andi	a1,a1,0x8000
9d003460:	14a00005 	bnez	a1,9d003478 <_mon_getc+0xa0>
9d003464:	240300a1 	li	v1,161
9d003468:	3c03bf80 	lui	v1,0xbf80
9d00346c:	34058000 	li	a1,0x8000
9d003470:	ac656008 	sw	a1,24584(v1)
9d003474:	240300a1 	li	v1,161
9d003478:	8c450000 	lw	a1,0(v0)
9d00347c:	30a50001 	andi	a1,a1,0x1
9d003480:	14a00004 	bnez	a1,9d003494 <_mon_getc+0xbc>
9d003484:	00000000 	nop
9d003488:	2463ffff 	addiu	v1,v1,-1
9d00348c:	1460fffa 	bnez	v1,9d003478 <_mon_getc+0xa0>
9d003490:	00000000 	nop
9d003494:	8c820000 	lw	v0,0(a0)
9d003498:	03e00008 	jr	ra
9d00349c:	00000000 	nop
9d0034a0:	8c456800 	lw	a1,26624(v0)
9d0034a4:	3c04bf80 	lui	a0,0xbf80
9d0034a8:	3c02bf80 	lui	v0,0xbf80
9d0034ac:	24846830 	addiu	a0,a0,26672
9d0034b0:	1000ffea 	b	9d00345c <_mon_getc+0x84>
9d0034b4:	24426810 	addiu	v0,v0,26640
9d0034b8:	8c456000 	lw	a1,24576(v0)
9d0034bc:	3c04bf80 	lui	a0,0xbf80
9d0034c0:	3c02bf80 	lui	v0,0xbf80
9d0034c4:	30a58000 	andi	a1,a1,0x8000
9d0034c8:	24846030 	addiu	a0,a0,24624
9d0034cc:	14a00004 	bnez	a1,9d0034e0 <_mon_getc+0x108>
9d0034d0:	24426010 	addiu	v0,v0,24592
9d0034d4:	3c03bf80 	lui	v1,0xbf80
9d0034d8:	34058000 	li	a1,0x8000
9d0034dc:	ac656008 	sw	a1,24584(v1)
9d0034e0:	240300a1 	li	v1,161
9d0034e4:	8c450000 	lw	a1,0(v0)
9d0034e8:	30a50001 	andi	a1,a1,0x1
9d0034ec:	14a00004 	bnez	a1,9d003500 <_mon_getc+0x128>
9d0034f0:	00000000 	nop
9d0034f4:	2463ffff 	addiu	v1,v1,-1
9d0034f8:	1460fffa 	bnez	v1,9d0034e4 <_mon_getc+0x10c>
9d0034fc:	00000000 	nop
9d003500:	8c820000 	lw	v0,0(a0)
9d003504:	1000ffc0 	b	9d003408 <_mon_getc+0x30>
9d003508:	8fbf0014 	lw	ra,20(sp)

Disassembly of section .text._mon_putc:

9d00350c <_mon_putc>:
9d00350c:	3c02a000 	lui	v0,0xa000
9d003510:	8c430004 	lw	v1,4(v0)
9d003514:	14600013 	bnez	v1,9d003564 <_mon_putc+0x58>
9d003518:	00803025 	move	a2,a0
9d00351c:	3c020000 	lui	v0,0x0
9d003520:	27bdffe8 	addiu	sp,sp,-24
9d003524:	24420000 	addiu	v0,v0,0
9d003528:	10400006 	beqz	v0,9d003544 <_mon_putc+0x38>
9d00352c:	afbf0014 	sw	ra,20(sp)
9d003530:	0c000000 	jal	90000000 <_bmxdudba_address+0x8ffe0000>
9d003534:	00000000 	nop
9d003538:	8fbf0014 	lw	ra,20(sp)
9d00353c:	03e00008 	jr	ra
9d003540:	27bd0018 	addiu	sp,sp,24
9d003544:	3c020000 	lui	v0,0x0
9d003548:	24420000 	addiu	v0,v0,0
9d00354c:	10400025 	beqz	v0,9d0035e4 <_mon_putc+0xd8>
9d003550:	3c05bf80 	lui	a1,0xbf80
9d003554:	0c000000 	jal	90000000 <_bmxdudba_address+0x8ffe0000>
9d003558:	00000000 	nop
9d00355c:	1000fff7 	b	9d00353c <_mon_putc+0x30>
9d003560:	8fbf0014 	lw	ra,20(sp)
9d003564:	3c02bf80 	lui	v0,0xbf80
9d003568:	24426010 	addiu	v0,v0,24592
9d00356c:	1040002f 	beqz	v0,9d00362c <_mon_putc+0x120>
9d003570:	00000000 	nop
9d003574:	24040001 	li	a0,1
9d003578:	14640012 	bne	v1,a0,9d0035c4 <_mon_putc+0xb8>
9d00357c:	3c03bf80 	lui	v1,0xbf80
9d003580:	3c03bf80 	lui	v1,0xbf80
9d003584:	3c04bf80 	lui	a0,0xbf80
9d003588:	3c05bf80 	lui	a1,0xbf80
9d00358c:	24636020 	addiu	v1,v1,24608
9d003590:	24846018 	addiu	a0,a0,24600
9d003594:	24a56008 	addiu	a1,a1,24584
9d003598:	34078000 	li	a3,0x8000
9d00359c:	aca70000 	sw	a3,0(a1)
9d0035a0:	24050400 	li	a1,1024
9d0035a4:	ac850000 	sw	a1,0(a0)
9d0035a8:	8c440000 	lw	a0,0(v0)
9d0035ac:	30840100 	andi	a0,a0,0x100
9d0035b0:	1080fffd 	beqz	a0,9d0035a8 <_mon_putc+0x9c>
9d0035b4:	00000000 	nop
9d0035b8:	ac660000 	sw	a2,0(v1)
9d0035bc:	03e00008 	jr	ra
9d0035c0:	00000000 	nop
9d0035c4:	3c04bf80 	lui	a0,0xbf80
9d0035c8:	3c05bf80 	lui	a1,0xbf80
9d0035cc:	3c02bf80 	lui	v0,0xbf80
9d0035d0:	24636820 	addiu	v1,v1,26656
9d0035d4:	24846818 	addiu	a0,a0,26648
9d0035d8:	24a56808 	addiu	a1,a1,26632
9d0035dc:	1000ffee 	b	9d003598 <_mon_putc+0x8c>
9d0035e0:	24426810 	addiu	v0,v0,26640
9d0035e4:	24a56808 	addiu	a1,a1,26632
9d0035e8:	3c04bf80 	lui	a0,0xbf80
9d0035ec:	34078000 	li	a3,0x8000
9d0035f0:	aca70000 	sw	a3,0(a1)
9d0035f4:	3c03bf80 	lui	v1,0xbf80
9d0035f8:	24846818 	addiu	a0,a0,26648
9d0035fc:	3c02bf80 	lui	v0,0xbf80
9d003600:	24050400 	li	a1,1024
9d003604:	24636820 	addiu	v1,v1,26656
9d003608:	24426810 	addiu	v0,v0,26640
9d00360c:	ac850000 	sw	a1,0(a0)
9d003610:	8c440000 	lw	a0,0(v0)
9d003614:	30840100 	andi	a0,a0,0x100
9d003618:	1080fffd 	beqz	a0,9d003610 <_mon_putc+0x104>
9d00361c:	00000000 	nop
9d003620:	ac660000 	sw	a2,0(v1)
9d003624:	1000ffc5 	b	9d00353c <_mon_putc+0x30>
9d003628:	8fbf0014 	lw	ra,20(sp)
9d00362c:	03e00008 	jr	ra
9d003630:	00000000 	nop

Disassembly of section .dinit:

9d003634 <.dinit>:
9d003634:	a000000c 	sb	zero,12(zero)
9d003638:	000000d4 	0xd4
9d00363c:	00000001 	movf	zero,zero,$fcc0
9d003640:	a0000070 	sb	zero,112(zero)
9d003644:	a000008c 	sb	zero,140(zero)
9d003648:	a00000a8 	sb	zero,168(zero)
9d00364c:	a000006c 	sb	zero,108(zero)
9d003650:	a00000e0 	sb	zero,224(zero)
9d003654:	00000001 	movf	zero,zero,$fcc0
	...
9d0036a4:	ffffffff 	sdc3	$31,-1(ra)
9d0036a8:	ffffffff 	sdc3	$31,-1(ra)
9d0036ac:	00000000 	nop
9d0036b0:	00000040 	ssnop
9d0036b4:	00001009 	jalr	v0,zero
9d0036b8:	00000000 	nop
9d0036bc:	9d00411c 	0x9d00411c
9d0036c0:	ffffffff 	sdc3	$31,-1(ra)
	...
9d0036d0:	00011002 	srl	v0,at,0x0
9d0036d4:	00000000 	nop
9d0036d8:	9d00411c 	0x9d00411c
9d0036dc:	ffffffff 	sdc3	$31,-1(ra)
	...
9d0036ec:	00020002 	srl	zero,v0,0x0
9d0036f0:	00000000 	nop
9d0036f4:	9d00411c 	0x9d00411c
9d0036f8:	fffffffd 	sdc3	$31,-3(ra)
	...
9d003714:	a00000e0 	sb	zero,224(zero)
9d003718:	00000088 	0x88
9d00371c:	00000000 	nop
9d003720:	a0000000 	sb	zero,0(zero)
9d003724:	00000004 	sllv	zero,zero,zero
9d003728:	00000001 	movf	zero,zero,$fcc0
9d00372c:	a000000c 	sb	zero,12(zero)
9d003730:	a0000008 	sb	zero,8(zero)
9d003734:	00000004 	sllv	zero,zero,zero
9d003738:	00000000 	nop
9d00373c:	a0000004 	sb	zero,4(zero)
9d003740:	00000004 	sllv	zero,zero,zero
9d003744:	00000001 	movf	zero,zero,$fcc0
9d003748:	00000002 	srl	zero,zero,0x0
9d00374c:	00000000 	nop
9d003750:	22222222 	addi	v0,s1,8738

Disassembly of section .text._outcnvrt:

9d003754 <_outcnvrt>:
9d003754:	27bdffd0 	addiu	sp,sp,-48
9d003758:	afb3001c 	sw	s3,28(sp)
9d00375c:	97b30040 	lhu	s3,64(sp)
9d003760:	afb40020 	sw	s4,32(sp)
9d003764:	afb20018 	sw	s2,24(sp)
9d003768:	32730008 	andi	s3,s3,0x8
9d00376c:	afb10014 	sw	s1,20(sp)
9d003770:	afb00010 	sw	s0,16(sp)
9d003774:	afbf002c 	sw	ra,44(sp)
9d003778:	afb60028 	sw	s6,40(sp)
9d00377c:	afb50024 	sw	s5,36(sp)
9d003780:	0080a025 	move	s4,a0
9d003784:	00a09025 	move	s2,a1
9d003788:	00c08025 	move	s0,a2
9d00378c:	1260000f 	beqz	s3,9d0037cc <_outcnvrt+0x78>
9d003790:	00e08825 	move	s1,a3
9d003794:	0250a821 	addu	s5,s2,s0
9d003798:	2416ffff 	li	s6,-1
9d00379c:	56550020 	bnel	s2,s5,9d003820 <_outcnvrt+0xcc>
9d0037a0:	26520001 	addiu	s2,s2,1
9d0037a4:	12600012 	beqz	s3,9d0037f0 <_outcnvrt+0x9c>
9d0037a8:	8fbf002c 	lw	ra,44(sp)
9d0037ac:	0211102a 	slt	v0,s0,s1
9d0037b0:	50400011 	beqzl	v0,9d0037f8 <_outcnvrt+0xa4>
9d0037b4:	0202880a 	movz	s1,s0,v0
9d0037b8:	02302823 	subu	a1,s1,s0
9d0037bc:	0f400eb1 	jal	9d003ac4 <repl.constprop.0>
9d0037c0:	02802025 	move	a0,s4
9d0037c4:	1000000a 	b	9d0037f0 <_outcnvrt+0x9c>
9d0037c8:	8fbf002c 	lw	ra,44(sp)
9d0037cc:	00c7102a 	slt	v0,a2,a3
9d0037d0:	1040fff1 	beqz	v0,9d003798 <_outcnvrt+0x44>
9d0037d4:	0250a821 	addu	s5,s2,s0
9d0037d8:	0f400eb1 	jal	9d003ac4 <repl.constprop.0>
9d0037dc:	00e62823 	subu	a1,a3,a2
9d0037e0:	2403ffff 	li	v1,-1
9d0037e4:	1443ffec 	bne	v0,v1,9d003798 <_outcnvrt+0x44>
9d0037e8:	0250a821 	addu	s5,s2,s0
9d0037ec:	8fbf002c 	lw	ra,44(sp)
9d0037f0:	0211102a 	slt	v0,s0,s1
9d0037f4:	0202880a 	movz	s1,s0,v0
9d0037f8:	02201025 	move	v0,s1
9d0037fc:	8fb60028 	lw	s6,40(sp)
9d003800:	8fb50024 	lw	s5,36(sp)
9d003804:	8fb40020 	lw	s4,32(sp)
9d003808:	8fb3001c 	lw	s3,28(sp)
9d00380c:	8fb20018 	lw	s2,24(sp)
9d003810:	8fb10014 	lw	s1,20(sp)
9d003814:	8fb00010 	lw	s0,16(sp)
9d003818:	03e00008 	jr	ra
9d00381c:	27bd0030 	addiu	sp,sp,48
9d003820:	8244ffff 	lb	a0,-1(s2)
9d003824:	0f400edb 	jal	9d003b6c <fputc>
9d003828:	02802825 	move	a1,s4
9d00382c:	1456ffdb 	bne	v0,s6,9d00379c <_outcnvrt+0x48>
9d003830:	8fbf002c 	lw	ra,44(sp)
9d003834:	1000ffef 	b	9d0037f4 <_outcnvrt+0xa0>
9d003838:	0211102a 	slt	v0,s0,s1

Disassembly of section .text.general_exception:

9d00383c <_general_exception_context>:
9d00383c:	27bdffa8 	addiu	sp,sp,-88
9d003840:	afa10004 	sw	at,4(sp)
9d003844:	afa20008 	sw	v0,8(sp)
9d003848:	afa3000c 	sw	v1,12(sp)
9d00384c:	afa40010 	sw	a0,16(sp)
9d003850:	afa50014 	sw	a1,20(sp)
9d003854:	afa60018 	sw	a2,24(sp)
9d003858:	afa7001c 	sw	a3,28(sp)
9d00385c:	afa80020 	sw	t0,32(sp)
9d003860:	afa90024 	sw	t1,36(sp)
9d003864:	afaa0028 	sw	t2,40(sp)
9d003868:	afab002c 	sw	t3,44(sp)
9d00386c:	afac0030 	sw	t4,48(sp)
9d003870:	afad0034 	sw	t5,52(sp)
9d003874:	afae0038 	sw	t6,56(sp)
9d003878:	afaf003c 	sw	t7,60(sp)
9d00387c:	afb80040 	sw	t8,64(sp)
9d003880:	afb90044 	sw	t9,68(sp)
9d003884:	afbf0048 	sw	ra,72(sp)
9d003888:	00004012 	mflo	t0
9d00388c:	afa8004c 	sw	t0,76(sp)
9d003890:	00004010 	mfhi	t0
9d003894:	afa80050 	sw	t0,80(sp)
9d003898:	3c1a9d00 	lui	k0,0x9d00
9d00389c:	275a3f20 	addiu	k0,k0,16160
9d0038a0:	00000000 	nop
9d0038a4:	40046800 	mfc0	a0,c0_cause
9d0038a8:	40056000 	mfc0	a1,c0_status
9d0038ac:	0340f809 	jalr	k0
9d0038b0:	00000000 	nop
9d0038b4:	8fa80050 	lw	t0,80(sp)
9d0038b8:	01000011 	mthi	t0
9d0038bc:	8fa8004c 	lw	t0,76(sp)
9d0038c0:	01000013 	mtlo	t0
9d0038c4:	8fa10004 	lw	at,4(sp)
9d0038c8:	8fa20008 	lw	v0,8(sp)
9d0038cc:	8fa3000c 	lw	v1,12(sp)
9d0038d0:	8fa40010 	lw	a0,16(sp)
9d0038d4:	8fa50014 	lw	a1,20(sp)
9d0038d8:	8fa60018 	lw	a2,24(sp)
9d0038dc:	8fa7001c 	lw	a3,28(sp)
9d0038e0:	8fa80020 	lw	t0,32(sp)
9d0038e4:	8fa90024 	lw	t1,36(sp)
9d0038e8:	8faa0028 	lw	t2,40(sp)
9d0038ec:	8fab002c 	lw	t3,44(sp)
9d0038f0:	8fac0030 	lw	t4,48(sp)
9d0038f4:	8fad0034 	lw	t5,52(sp)
9d0038f8:	8fae0038 	lw	t6,56(sp)
9d0038fc:	8faf003c 	lw	t7,60(sp)
9d003900:	8fb80040 	lw	t8,64(sp)
9d003904:	8fb90044 	lw	t9,68(sp)
9d003908:	8fbf0048 	lw	ra,72(sp)
9d00390c:	27bd0058 	addiu	sp,sp,88
9d003910:	000000c0 	ehb
9d003914:	42000018 	eret

Disassembly of section .text:

9d003918 <main>:

#include <stdio.h>

#define MSG_LEN 20

int main() {
9d003918:	27bdffc0 	addiu	sp,sp,-64
9d00391c:	afbf003c 	sw	ra,60(sp)
9d003920:	afb40038 	sw	s4,56(sp)
9d003924:	afb30034 	sw	s3,52(sp)
9d003928:	afb20030 	sw	s2,48(sp)
9d00392c:	afb1002c 	sw	s1,44(sp)
  char msg[MSG_LEN];
  int nreceived = 1;
  int sec = 40000000;

  NU32_Startup();         // cache on, interrupts on, LED/button init, UART init
9d003930:	0f400c8b 	jal	9d00322c <NU32_Startup>
9d003934:	afb00028 	sw	s0,40(sp)
  
  LCD_Setup();
9d003938:	0f400a4f 	jal	9d00293c <LCD_Setup>
9d00393c:	24110001 	li	s1,1
  
  while (1) {
    NU32_WriteUART3("What do you want to write? ");
9d003940:	3c149d00 	lui	s4,0x9d00
9d003944:	26941e00 	addiu	s4,s4,7680
    NU32_ReadUART3(msg, MSG_LEN);             // get the response
    LCD_Clear();                              // clear LCD screen
    LCD_Move(0,0);
    LCD_WriteString(msg);                     // write msg at row 0 col 0
    sprintf(msg, "Received %d", nreceived);   // display how many messages received
9d003948:	3c139d00 	lui	s3,0x9d00
9d00394c:	26731e1c 	addiu	s3,s3,7708
    ++nreceived;
    LCD_Move(1,3);
    LCD_WriteString(msg);                     // write new msg at row 1 col 3
    NU32_WriteUART3("\r\n");
9d003950:	3c129d00 	lui	s2,0x9d00
9d003954:	26521e28 	addiu	s2,s2,7720

		
	//test out LCD_clear function
	_CP0_SET_COUNT(0);
	while (_CP0_GET_COUNT() < 3*sec) {
9d003958:	3c100727 	lui	s0,0x727
9d00395c:	10000003 	b	9d00396c <main+0x54>
9d003960:	26100e00 	addiu	s0,s0,3584
		
	}
	LCD_ClearLine(0);
9d003964:	0f400a1e 	jal	9d002878 <LCD_ClearLine>
9d003968:	00002025 	move	a0,zero
    NU32_WriteUART3("What do you want to write? ");
9d00396c:	0f400ce7 	jal	9d00339c <NU32_WriteUART3>
9d003970:	02802025 	move	a0,s4
    NU32_ReadUART3(msg, MSG_LEN);             // get the response
9d003974:	24050014 	li	a1,20
9d003978:	0f400cd0 	jal	9d003340 <NU32_ReadUART3>
9d00397c:	27a40010 	addiu	a0,sp,16
    LCD_Clear();                              // clear LCD screen
9d003980:	0f4009b4 	jal	9d0026d0 <LCD_Clear>
9d003984:	00000000 	nop
    LCD_Move(0,0);
9d003988:	00002825 	move	a1,zero
9d00398c:	0f4009f4 	jal	9d0027d0 <LCD_Move>
9d003990:	00002025 	move	a0,zero
    LCD_WriteString(msg);                     // write msg at row 0 col 0
9d003994:	0f400a0f 	jal	9d00283c <LCD_WriteString>
9d003998:	27a40010 	addiu	a0,sp,16
    sprintf(msg, "Received %d", nreceived);   // display how many messages received
9d00399c:	02203025 	move	a2,s1
9d0039a0:	02602825 	move	a1,s3
9d0039a4:	0f400f5d 	jal	9d003d74 <_sprintf_cdnopuxX>
9d0039a8:	27a40010 	addiu	a0,sp,16
    ++nreceived;
9d0039ac:	26310001 	addiu	s1,s1,1
    LCD_Move(1,3);
9d0039b0:	24050003 	li	a1,3
9d0039b4:	0f4009f4 	jal	9d0027d0 <LCD_Move>
9d0039b8:	24040001 	li	a0,1
    LCD_WriteString(msg);                     // write new msg at row 1 col 3
9d0039bc:	0f400a0f 	jal	9d00283c <LCD_WriteString>
9d0039c0:	27a40010 	addiu	a0,sp,16
    NU32_WriteUART3("\r\n");
9d0039c4:	0f400ce7 	jal	9d00339c <NU32_WriteUART3>
9d0039c8:	02402025 	move	a0,s2
	_CP0_SET_COUNT(0);
9d0039cc:	00001025 	move	v0,zero
9d0039d0:	40824800 	mtc0	v0,c0_count
9d0039d4:	000000c0 	ehb
	while (_CP0_GET_COUNT() < 3*sec) {
9d0039d8:	40024800 	mfc0	v0,c0_count
9d0039dc:	0050102b 	sltu	v0,v0,s0
9d0039e0:	1440fffd 	bnez	v0,9d0039d8 <main+0xc0>
9d0039e4:	00000000 	nop
9d0039e8:	1000ffde 	b	9d003964 <main+0x4c>
9d0039ec:	00000000 	nop

Disassembly of section .text._flsbuf_simple:

9d0039f0 <_flsbuf_simple>:
9d0039f0:	8ca2000c 	lw	v0,12(a1)
9d0039f4:	27bdffd8 	addiu	sp,sp,-40
9d0039f8:	afb10020 	sw	s1,32(sp)
9d0039fc:	afb0001c 	sw	s0,28(sp)
9d003a00:	afbf0024 	sw	ra,36(sp)
9d003a04:	00808825 	move	s1,a0
9d003a08:	1440000c 	bnez	v0,9d003a3c <_flsbuf_simple+0x4c>
9d003a0c:	00a08025 	move	s0,a1
9d003a10:	a3a40010 	sb	a0,16(sp)
9d003a14:	24050001 	li	a1,1
9d003a18:	0f400fa1 	jal	9d003e84 <_mon_write>
9d003a1c:	27a40010 	addiu	a0,sp,16
9d003a20:	ae000000 	sw	zero,0(s0)
9d003a24:	8fbf0024 	lw	ra,36(sp)
9d003a28:	02201025 	move	v0,s1
9d003a2c:	8fb0001c 	lw	s0,28(sp)
9d003a30:	8fb10020 	lw	s1,32(sp)
9d003a34:	03e00008 	jr	ra
9d003a38:	27bd0028 	addiu	sp,sp,40
9d003a3c:	8ca20000 	lw	v0,0(a1)
9d003a40:	2403ffff 	li	v1,-1
9d003a44:	24420001 	addiu	v0,v0,1
9d003a48:	1443000a 	bne	v0,v1,9d003a74 <_flsbuf_simple+0x84>
9d003a4c:	aca20000 	sw	v0,0(a1)
9d003a50:	8ca20008 	lw	v0,8(a1)
9d003a54:	14400007 	bnez	v0,9d003a74 <_flsbuf_simple+0x84>
9d003a58:	00000000 	nop
9d003a5c:	94a20010 	lhu	v0,16(a1)
9d003a60:	aca00004 	sw	zero,4(a1)
9d003a64:	aca0000c 	sw	zero,12(a1)
9d003a68:	34420010 	ori	v0,v0,0x10
9d003a6c:	aca00000 	sw	zero,0(a1)
9d003a70:	a4a20010 	sh	v0,16(a1)
9d003a74:	0f400f41 	jal	9d003d04 <_fflush_simple>
9d003a78:	02002025 	move	a0,s0
9d003a7c:	8e020000 	lw	v0,0(s0)
9d003a80:	2442ffff 	addiu	v0,v0,-1
9d003a84:	ae020000 	sw	v0,0(s0)
9d003a88:	8e020004 	lw	v0,4(s0)
9d003a8c:	24430001 	addiu	v1,v0,1
9d003a90:	ae030004 	sw	v1,4(s0)
9d003a94:	a0510000 	sb	s1,0(v0)
9d003a98:	2402000a 	li	v0,10
9d003a9c:	1622ffe2 	bne	s1,v0,9d003a28 <_flsbuf_simple+0x38>
9d003aa0:	8fbf0024 	lw	ra,36(sp)
9d003aa4:	96020010 	lhu	v0,16(s0)
9d003aa8:	30420008 	andi	v0,v0,0x8
9d003aac:	1040ffdf 	beqz	v0,9d003a2c <_flsbuf_simple+0x3c>
9d003ab0:	02201025 	move	v0,s1
9d003ab4:	0f400f41 	jal	9d003d04 <_fflush_simple>
9d003ab8:	02002025 	move	a0,s0
9d003abc:	1000ffda 	b	9d003a28 <_flsbuf_simple+0x38>
9d003ac0:	8fbf0024 	lw	ra,36(sp)

Disassembly of section .text.repl.constprop.0:

9d003ac4 <repl.constprop.0>:
9d003ac4:	27bdffd0 	addiu	sp,sp,-48
9d003ac8:	afb60028 	sw	s6,40(sp)
9d003acc:	afb50024 	sw	s5,36(sp)
9d003ad0:	afb40020 	sw	s4,32(sp)
9d003ad4:	afb3001c 	sw	s3,28(sp)
9d003ad8:	afb10014 	sw	s1,20(sp)
9d003adc:	afbf002c 	sw	ra,44(sp)
9d003ae0:	afb20018 	sw	s2,24(sp)
9d003ae4:	afb00010 	sw	s0,16(sp)
9d003ae8:	0080a025 	move	s4,a0
9d003aec:	00a08825 	move	s1,a1
9d003af0:	24160020 	li	s6,32
9d003af4:	3c159d00 	lui	s5,0x9d00
9d003af8:	2413ffff 	li	s3,-1
9d003afc:	2e300021 	sltiu	s0,s1,33
9d003b00:	02c01025 	move	v0,s6
9d003b04:	0230100b 	movn	v0,s1,s0
9d003b08:	00408025 	move	s0,v0
9d003b0c:	02228823 	subu	s1,s1,v0
9d003b10:	26b2407c 	addiu	s2,s5,16508
9d003b14:	2610ffff 	addiu	s0,s0,-1
9d003b18:	16130005 	bne	s0,s3,9d003b30 <repl.constprop.0+0x6c>
9d003b1c:	26520001 	addiu	s2,s2,1
9d003b20:	1620fff7 	bnez	s1,9d003b00 <repl.constprop.0+0x3c>
9d003b24:	2e300021 	sltiu	s0,s1,33
9d003b28:	10000006 	b	9d003b44 <repl.constprop.0+0x80>
9d003b2c:	00001025 	move	v0,zero
9d003b30:	8244ffff 	lb	a0,-1(s2)
9d003b34:	0f400edb 	jal	9d003b6c <fputc>
9d003b38:	02802825 	move	a1,s4
9d003b3c:	1453fff6 	bne	v0,s3,9d003b18 <repl.constprop.0+0x54>
9d003b40:	2610ffff 	addiu	s0,s0,-1
9d003b44:	8fbf002c 	lw	ra,44(sp)
9d003b48:	8fb60028 	lw	s6,40(sp)
9d003b4c:	8fb50024 	lw	s5,36(sp)
9d003b50:	8fb40020 	lw	s4,32(sp)
9d003b54:	8fb3001c 	lw	s3,28(sp)
9d003b58:	8fb20018 	lw	s2,24(sp)
9d003b5c:	8fb10014 	lw	s1,20(sp)
9d003b60:	8fb00010 	lw	s0,16(sp)
9d003b64:	03e00008 	jr	ra
9d003b68:	27bd0030 	addiu	sp,sp,48

Disassembly of section .text.fputc:

9d003b6c <fputc>:
9d003b6c:	8ca20018 	lw	v0,24(a1)
9d003b70:	27bdffe0 	addiu	sp,sp,-32
9d003b74:	afb00014 	sw	s0,20(sp)
9d003b78:	8c420010 	lw	v0,16(v0)
9d003b7c:	00a08025 	move	s0,a1
9d003b80:	afb10018 	sw	s1,24(sp)
9d003b84:	afbf001c 	sw	ra,28(sp)
9d003b88:	00808825 	move	s1,a0
9d003b8c:	24050001 	li	a1,1
9d003b90:	0040f809 	jalr	v0
9d003b94:	02002025 	move	a0,s0
9d003b98:	50400012 	beqzl	v0,9d003be4 <fputc+0x78>
9d003b9c:	2411ffff 	li	s1,-1
9d003ba0:	8e020000 	lw	v0,0(s0)
9d003ba4:	2442ffff 	addiu	v0,v0,-1
9d003ba8:	04400008 	bltz	v0,9d003bcc <fputc+0x60>
9d003bac:	ae020000 	sw	v0,0(s0)
9d003bb0:	96020010 	lhu	v0,16(s0)
9d003bb4:	30420008 	andi	v0,v0,0x8
9d003bb8:	50400010 	beqzl	v0,9d003bfc <fputc+0x90>
9d003bbc:	8e020004 	lw	v0,4(s0)
9d003bc0:	2402000a 	li	v0,10
9d003bc4:	5622000d 	bnel	s1,v0,9d003bfc <fputc+0x90>
9d003bc8:	8e020004 	lw	v0,4(s0)
9d003bcc:	8e020018 	lw	v0,24(s0)
9d003bd0:	02202025 	move	a0,s1
9d003bd4:	8c420004 	lw	v0,4(v0)
9d003bd8:	0040f809 	jalr	v0
9d003bdc:	02002825 	move	a1,s0
9d003be0:	00408825 	move	s1,v0
9d003be4:	8fbf001c 	lw	ra,28(sp)
9d003be8:	02201025 	move	v0,s1
9d003bec:	8fb00014 	lw	s0,20(sp)
9d003bf0:	8fb10018 	lw	s1,24(sp)
9d003bf4:	03e00008 	jr	ra
9d003bf8:	27bd0020 	addiu	sp,sp,32
9d003bfc:	24430001 	addiu	v1,v0,1
9d003c00:	ae030004 	sw	v1,4(s0)
9d003c04:	1000fff7 	b	9d003be4 <fputc+0x78>
9d003c08:	a0510000 	sb	s1,0(v0)

Disassembly of section .text:

9d003c0c <__pic32_data_init>:
9d003c0c:	03e01825 	move	v1,ra

9d003c10 <_dinit_init>:
9d003c10:	3c089d00 	lui	t0,0x9d00
9d003c14:	25083634 	addiu	t0,t0,13876
9d003c18:	8d090000 	lw	t1,0(t0)
9d003c1c:	11200018 	beqz	t1,9d003c80 <_dinit_end+0x18>
9d003c20:	25080004 	addiu	t0,t0,4
9d003c24:	8d0a0000 	lw	t2,0(t0)
9d003c28:	25080004 	addiu	t0,t0,4
9d003c2c:	8d0b0000 	lw	t3,0(t0)
9d003c30:	11600009 	beqz	t3,9d003c58 <_dinit_clear>
9d003c34:	25080004 	addiu	t0,t0,4

9d003c38 <_dinit_copy>:
9d003c38:	910c0000 	lbu	t4,0(t0)
9d003c3c:	254affff 	addiu	t2,t2,-1
9d003c40:	25080001 	addiu	t0,t0,1
9d003c44:	a12c0000 	sb	t4,0(t1)
9d003c48:	1540fffb 	bnez	t2,9d003c38 <_dinit_copy>
9d003c4c:	25290001 	addiu	t1,t1,1
9d003c50:	10000005 	b	9d003c68 <_dinit_end>
9d003c54:	00000000 	nop

9d003c58 <_dinit_clear>:
9d003c58:	a1200000 	sb	zero,0(t1)
9d003c5c:	254affff 	addiu	t2,t2,-1
9d003c60:	1540fffd 	bnez	t2,9d003c58 <_dinit_clear>
9d003c64:	25290001 	addiu	t1,t1,1

9d003c68 <_dinit_end>:
9d003c68:	25080003 	addiu	t0,t0,3
9d003c6c:	240afffc 	li	t2,-4
9d003c70:	01484024 	and	t0,t2,t0
9d003c74:	8d090000 	lw	t1,0(t0)
9d003c78:	1520ffe7 	bnez	t1,9d003c18 <_dinit_init+0x8>
9d003c7c:	00000000 	nop
9d003c80:	0060f825 	move	ra,v1
9d003c84:	03e00008 	jr	ra
9d003c88:	00000000 	nop
9d003c8c:	00000000 	nop

Disassembly of section .text._fwrite_simple:

9d003c90 <_fwrite_simple>:
9d003c90:	27bdffe0 	addiu	sp,sp,-32
9d003c94:	afb10014 	sw	s1,20(sp)
9d003c98:	70c58802 	mul	s1,a2,a1
9d003c9c:	afbf001c 	sw	ra,28(sp)
9d003ca0:	afb20018 	sw	s2,24(sp)
9d003ca4:	12200007 	beqz	s1,9d003cc4 <_fwrite_simple+0x34>
9d003ca8:	afb00010 	sw	s0,16(sp)
9d003cac:	94e20010 	lhu	v0,16(a3)
9d003cb0:	30420001 	andi	v0,v0,0x1
9d003cb4:	10400005 	beqz	v0,9d003ccc <_fwrite_simple+0x3c>
9d003cb8:	3c02a000 	lui	v0,0xa000
9d003cbc:	24030009 	li	v1,9
9d003cc0:	ac430008 	sw	v1,8(v0)
9d003cc4:	10000008 	b	9d003ce8 <_fwrite_simple+0x58>
9d003cc8:	00008025 	move	s0,zero
9d003ccc:	00809025 	move	s2,a0
9d003cd0:	00e02025 	move	a0,a3
9d003cd4:	0f400f41 	jal	9d003d04 <_fflush_simple>
9d003cd8:	00c08025 	move	s0,a2
9d003cdc:	02202825 	move	a1,s1
9d003ce0:	0f400fa1 	jal	9d003e84 <_mon_write>
9d003ce4:	02402025 	move	a0,s2
9d003ce8:	8fbf001c 	lw	ra,28(sp)
9d003cec:	02001025 	move	v0,s0
9d003cf0:	8fb20018 	lw	s2,24(sp)
9d003cf4:	8fb10014 	lw	s1,20(sp)
9d003cf8:	8fb00010 	lw	s0,16(sp)
9d003cfc:	03e00008 	jr	ra
9d003d00:	27bd0020 	addiu	sp,sp,32

Disassembly of section .text._fflush_simple:

9d003d04 <_fflush_simple>:
9d003d04:	94820010 	lhu	v0,16(a0)
9d003d08:	30420002 	andi	v0,v0,0x2
9d003d0c:	10400016 	beqz	v0,9d003d68 <_fflush_simple+0x64>
9d003d10:	2402ffff 	li	v0,-1
9d003d14:	8c820000 	lw	v0,0(a0)
9d003d18:	04400014 	bltz	v0,9d003d6c <_fflush_simple+0x68>
9d003d1c:	00000000 	nop
9d003d20:	8c85000c 	lw	a1,12(a0)
9d003d24:	27bdffe8 	addiu	sp,sp,-24
9d003d28:	afb00010 	sw	s0,16(sp)
9d003d2c:	afbf0014 	sw	ra,20(sp)
9d003d30:	10450004 	beq	v0,a1,9d003d44 <_fflush_simple+0x40>
9d003d34:	00808025 	move	s0,a0
9d003d38:	8c840008 	lw	a0,8(a0)
9d003d3c:	0f400fa1 	jal	9d003e84 <_mon_write>
9d003d40:	00a22823 	subu	a1,a1,v0
9d003d44:	8e020008 	lw	v0,8(s0)
9d003d48:	8fbf0014 	lw	ra,20(sp)
9d003d4c:	ae020004 	sw	v0,4(s0)
9d003d50:	8e02000c 	lw	v0,12(s0)
9d003d54:	ae020000 	sw	v0,0(s0)
9d003d58:	00001025 	move	v0,zero
9d003d5c:	8fb00010 	lw	s0,16(sp)
9d003d60:	03e00008 	jr	ra
9d003d64:	27bd0018 	addiu	sp,sp,24
9d003d68:	ac820004 	sw	v0,4(a0)
9d003d6c:	03e00008 	jr	ra
9d003d70:	00001025 	move	v0,zero

Disassembly of section .text._sprintf_cdnopuxX:

9d003d74 <_sprintf_cdnopuxX>:
9d003d74:	3c02ffff 	lui	v0,0xffff
9d003d78:	27bdffc8 	addiu	sp,sp,-56
9d003d7c:	24420082 	addiu	v0,v0,130
9d003d80:	afa20020 	sw	v0,32(sp)
9d003d84:	3c027fff 	lui	v0,0x7fff
9d003d88:	3442fffe 	ori	v0,v0,0xfffe
9d003d8c:	afa20010 	sw	v0,16(sp)
9d003d90:	3c029d00 	lui	v0,0x9d00
9d003d94:	afa60040 	sw	a2,64(sp)
9d003d98:	afa40018 	sw	a0,24(sp)
9d003d9c:	afa40014 	sw	a0,20(sp)
9d003da0:	27a60040 	addiu	a2,sp,64
9d003da4:	24424144 	addiu	v0,v0,16708
9d003da8:	27a40010 	addiu	a0,sp,16
9d003dac:	afbf0034 	sw	ra,52(sp)
9d003db0:	afa70044 	sw	a3,68(sp)
9d003db4:	afa20028 	sw	v0,40(sp)
9d003db8:	0f400792 	jal	9d001e48 <_do_print_cdnopuxX>
9d003dbc:	afa6002c 	sw	a2,44(sp)
9d003dc0:	8fa30014 	lw	v1,20(sp)
9d003dc4:	a0600000 	sb	zero,0(v1)
9d003dc8:	8fbf0034 	lw	ra,52(sp)
9d003dcc:	03e00008 	jr	ra
9d003dd0:	27bd0038 	addiu	sp,sp,56

Disassembly of section .text.strlen:

9d003dd4 <strlen>:
9d003dd4:	30820003 	andi	v0,a0,0x3
9d003dd8:	10400010 	beqz	v0,9d003e1c <strlen+0x48>
9d003ddc:	3c07fefe 	lui	a3,0xfefe
9d003de0:	00801025 	move	v0,a0
9d003de4:	80430000 	lb	v1,0(v0)
9d003de8:	5460fffe 	bnezl	v1,9d003de4 <strlen+0x10>
9d003dec:	24420001 	addiu	v0,v0,1
9d003df0:	03e00008 	jr	ra
9d003df4:	00441023 	subu	v0,v0,a0
9d003df8:	8c450000 	lw	a1,0(v0)
9d003dfc:	00a71821 	addu	v1,a1,a3
9d003e00:	00052827 	nor	a1,zero,a1
9d003e04:	00651824 	and	v1,v1,a1
9d003e08:	00661824 	and	v1,v1,a2
9d003e0c:	5060fffa 	beqzl	v1,9d003df8 <strlen+0x24>
9d003e10:	24420004 	addiu	v0,v0,4
9d003e14:	1000fff4 	b	9d003de8 <strlen+0x14>
9d003e18:	80430000 	lb	v1,0(v0)
9d003e1c:	3c068080 	lui	a2,0x8080
9d003e20:	00801025 	move	v0,a0
9d003e24:	34e7feff 	ori	a3,a3,0xfeff
9d003e28:	1000fff3 	b	9d003df8 <strlen+0x24>
9d003e2c:	34c68080 	ori	a2,a2,0x8080

Disassembly of section .text.main_entry:

9d003e30 <_main_entry>:
9d003e30:	3c040000 	lui	a0,0x0
9d003e34:	27bdffe8 	addiu	sp,sp,-24
9d003e38:	24840000 	addiu	a0,a0,0
9d003e3c:	10800003 	beqz	a0,9d003e4c <_main_entry+0x1c>
9d003e40:	afbf0014 	sw	ra,20(sp)
9d003e44:	0080f809 	jalr	a0
9d003e48:	00000000 	nop
9d003e4c:	30840000 	andi	a0,a0,0x0
9d003e50:	30a50000 	andi	a1,a1,0x0
9d003e54:	3c089d00 	lui	t0,0x9d00
9d003e58:	25083918 	addiu	t0,t0,14616
9d003e5c:	0100f809 	jalr	t0
9d003e60:	00000000 	nop

9d003e64 <__crt0_exit>:
9d003e64:	3c020000 24420000 10400003 00000000     ...<..B$..@.....
9d003e74:	0040f809 00000000 1000fff9 00000000     ..@.............

Disassembly of section .text._mon_write:

9d003e84 <_mon_write>:
9d003e84:	10800012 	beqz	a0,9d003ed0 <_mon_write+0x4c>
9d003e88:	00000000 	nop
9d003e8c:	27bdffe0 	addiu	sp,sp,-32
9d003e90:	afb10018 	sw	s1,24(sp)
9d003e94:	afb00014 	sw	s0,20(sp)
9d003e98:	afbf001c 	sw	ra,28(sp)
9d003e9c:	00808025 	move	s0,a0
9d003ea0:	00858821 	addu	s1,a0,a1
9d003ea4:	56110006 	bnel	s0,s1,9d003ec0 <_mon_write+0x3c>
9d003ea8:	82040000 	lb	a0,0(s0)
9d003eac:	8fbf001c 	lw	ra,28(sp)
9d003eb0:	8fb10018 	lw	s1,24(sp)
9d003eb4:	8fb00014 	lw	s0,20(sp)
9d003eb8:	03e00008 	jr	ra
9d003ebc:	27bd0020 	addiu	sp,sp,32
9d003ec0:	0f400d43 	jal	9d00350c <_mon_putc>
9d003ec4:	26100001 	addiu	s0,s0,1
9d003ec8:	1000fff6 	b	9d003ea4 <_mon_write+0x20>
9d003ecc:	00000000 	nop
9d003ed0:	03e00008 	jr	ra
9d003ed4:	00000000 	nop

Disassembly of section .text._bootstrap_exception_handler:

9d003ed8 <_bootstrap_exception_handler>:
9d003ed8:	3c020000 	lui	v0,0x0
9d003edc:	24420000 	addiu	v0,v0,0
9d003ee0:	10400005 	beqz	v0,9d003ef8 <_bootstrap_exception_handler+0x20>
9d003ee4:	3c020000 	lui	v0,0x0
9d003ee8:	24420000 	addiu	v0,v0,0
9d003eec:	10400003 	beqz	v0,9d003efc <_bootstrap_exception_handler+0x24>
9d003ef0:	3c029d00 	lui	v0,0x9d00
9d003ef4:	7000003f 	sdbbp
9d003ef8:	3c029d00 	lui	v0,0x9d00
9d003efc:	24423fb0 	addiu	v0,v0,16304
9d003f00:	10400005 	beqz	v0,9d003f18 <_bootstrap_exception_handler+0x40>
9d003f04:	00000000 	nop
9d003f08:	27bdffe8 	addiu	sp,sp,-24
9d003f0c:	afbf0014 	sw	ra,20(sp)
9d003f10:	0040f809 	jalr	v0
9d003f14:	00000000 	nop
9d003f18:	1000ffff 	b	9d003f18 <_bootstrap_exception_handler+0x40>
9d003f1c:	00000000 	nop

Disassembly of section .text._general_exception_handler:

9d003f20 <_general_exception_handler>:
9d003f20:	3c020000 	lui	v0,0x0
9d003f24:	24420000 	addiu	v0,v0,0
9d003f28:	10400005 	beqz	v0,9d003f40 <_general_exception_handler+0x20>
9d003f2c:	3c020000 	lui	v0,0x0
9d003f30:	24420000 	addiu	v0,v0,0
9d003f34:	10400003 	beqz	v0,9d003f44 <_general_exception_handler+0x24>
9d003f38:	3c029d00 	lui	v0,0x9d00
9d003f3c:	7000003f 	sdbbp
9d003f40:	3c029d00 	lui	v0,0x9d00
9d003f44:	24423fb0 	addiu	v0,v0,16304
9d003f48:	10400005 	beqz	v0,9d003f60 <_general_exception_handler+0x40>
9d003f4c:	00000000 	nop
9d003f50:	27bdffe8 	addiu	sp,sp,-24
9d003f54:	afbf0014 	sw	ra,20(sp)
9d003f58:	0040f809 	jalr	v0
9d003f5c:	00000000 	nop
9d003f60:	1000ffff 	b	9d003f60 <_general_exception_handler+0x40>
9d003f64:	00000000 	nop

Disassembly of section .vector_default:

9d003f68 <_DefaultInterrupt>:
9d003f68:	3c020000 	lui	v0,0x0
9d003f6c:	24420000 	addiu	v0,v0,0
9d003f70:	10400007 	beqz	v0,9d003f90 <_DefaultInterrupt+0x28>
9d003f74:	3c020000 	lui	v0,0x0
9d003f78:	24420000 	addiu	v0,v0,0
9d003f7c:	50400005 	beqzl	v0,9d003f94 <_DefaultInterrupt+0x2c>
9d003f80:	3c029d00 	lui	v0,0x9d00
9d003f84:	7000003f 	sdbbp
9d003f88:	03e00008 	jr	ra
9d003f8c:	00000000 	nop
9d003f90:	3c029d00 	lui	v0,0x9d00
9d003f94:	24423fb0 	addiu	v0,v0,16304
9d003f98:	10400003 	beqz	v0,9d003fa8 <_DefaultInterrupt+0x40>
9d003f9c:	00000000 	nop
9d003fa0:	0040f809 	jalr	v0
9d003fa4:	00000000 	nop
9d003fa8:	03e00008 	jr	ra
9d003fac:	00000000 	nop

Disassembly of section .text:

9d003fb0 <__pic32_software_reset>:
9d003fb0:	41606000 	di
9d003fb4:	000000c0 	ehb
9d003fb8:	3c03aa99 	lui	v1,0xaa99
9d003fbc:	3c02bf81 	lui	v0,0xbf81
9d003fc0:	24636655 	addiu	v1,v1,26197
9d003fc4:	ac40f230 	sw	zero,-3536(v0)
9d003fc8:	ac43f230 	sw	v1,-3536(v0)
9d003fcc:	3c035566 	lui	v1,0x5566
9d003fd0:	346399aa 	ori	v1,v1,0x99aa
9d003fd4:	ac43f230 	sw	v1,-3536(v0)
9d003fd8:	3c02bf81 	lui	v0,0xbf81
9d003fdc:	24030001 	li	v1,1
9d003fe0:	ac43f618 	sw	v1,-2536(v0)
9d003fe4:	3c02bf81 	lui	v0,0xbf81
9d003fe8:	8c42f610 	lw	v0,-2544(v0)
9d003fec:	0b400fee 	j	9d003fb8 <__pic32_software_reset+0x8>
9d003ff0:	00000000 	nop

Disassembly of section .text._filbuf_simple:

9d003ff4 <_filbuf_simple>:
9d003ff4:	8c820004 	lw	v0,4(a0)
9d003ff8:	2403ffff 	li	v1,-1
9d003ffc:	10430003 	beq	v0,v1,9d00400c <_filbuf_simple+0x18>
9d004000:	ac800000 	sw	zero,0(a0)
9d004004:	03e00008 	jr	ra
9d004008:	ac830004 	sw	v1,4(a0)
9d00400c:	27bdffe8 	addiu	sp,sp,-24
9d004010:	afbf0014 	sw	ra,20(sp)
9d004014:	0f400cf6 	jal	9d0033d8 <_mon_getc>
9d004018:	24040001 	li	a0,1
9d00401c:	8fbf0014 	lw	ra,20(sp)
9d004020:	03e00008 	jr	ra
9d004024:	27bd0018 	addiu	sp,sp,24

Disassembly of section .text._fsync_simple:

9d004028 <_fsync_simple>:
9d004028:	94830010 	lhu	v1,16(a0)
9d00402c:	00652824 	and	a1,v1,a1
9d004030:	10a00007 	beqz	a1,9d004050 <_fsync_simple+0x28>
9d004034:	24020001 	li	v0,1
9d004038:	34630040 	ori	v1,v1,0x40
9d00403c:	3c02a000 	lui	v0,0xa000
9d004040:	a4830010 	sh	v1,16(a0)
9d004044:	24030009 	li	v1,9
9d004048:	ac430008 	sw	v1,8(v0)
9d00404c:	00001025 	move	v0,zero
9d004050:	03e00008 	jr	ra
9d004054:	00000000 	nop

Disassembly of section .text.putchar:

9d004058 <putchar>:
9d004058:	3c02a000 	lui	v0,0xa000
9d00405c:	8c420000 	lw	v0,0(v0)
9d004060:	27bdffe8 	addiu	sp,sp,-24
9d004064:	afbf0014 	sw	ra,20(sp)
9d004068:	0f400edb 	jal	9d003b6c <fputc>
9d00406c:	8c450004 	lw	a1,4(v0)
9d004070:	8fbf0014 	lw	ra,20(sp)
9d004074:	03e00008 	jr	ra
9d004078:	27bd0018 	addiu	sp,sp,24

Disassembly of section .rodata:

9d00407c <spaceData>:
9d00407c:	20202020 20202020 20202020 20202020                     
9d00408c:	20202020 20202020 20202020 20202020                     

Disassembly of section .text._vfprintf_cdnopuxX:

9d00409c <_vfprintf_cdnopuxX>:
9d00409c:	27bdffe8 	addiu	sp,sp,-24
9d0040a0:	afbf0014 	sw	ra,20(sp)
9d0040a4:	0f400792 	jal	9d001e48 <_do_print_cdnopuxX>
9d0040a8:	00000000 	nop
9d0040ac:	8fbf0014 	lw	ra,20(sp)
9d0040b0:	03e00008 	jr	ra
9d0040b4:	27bd0018 	addiu	sp,sp,24

Disassembly of section .text.putc:

9d0040b8 <putc>:
9d0040b8:	27bdffe8 	addiu	sp,sp,-24
9d0040bc:	afbf0014 	sw	ra,20(sp)
9d0040c0:	0f400edb 	jal	9d003b6c <fputc>
9d0040c4:	00000000 	nop
9d0040c8:	8fbf0014 	lw	ra,20(sp)
9d0040cc:	03e00008 	jr	ra
9d0040d0:	27bd0018 	addiu	sp,sp,24

Disassembly of section .text:

9d0040f0 <_nmi_handler>:
9d0040f0:	401a6000 	mfc0	k0,c0_status
9d0040f4:	3c1bffbf 	lui	k1,0xffbf
9d0040f8:	377bffff 	ori	k1,k1,0xffff
9d0040fc:	035bd024 	and	k0,k0,k1
9d004100:	409a6000 	mtc0	k0,c0_status
9d004104:	42000018 	eret

Disassembly of section .text._io_exit:

9d004108 <_io_exit>:
9d004108:	3c02a000 	lui	v0,0xa000
9d00410c:	8c420000 	lw	v0,0(v0)
9d004110:	24030001 	li	v1,1
9d004114:	03e00008 	jr	ra
9d004118:	ac430038 	sw	v1,56(v0)

Disassembly of section .rodata:

9d00411c <_io_funcs>:
9d00411c:	9d003ff4 9d0039f0 9d003d04 9d003c90     .?...9...=...<..
9d00412c:	9d004028                                (@..

Disassembly of section .text._io_exit:

9d004130 <.text._io_exit>:
9d004130:	3c02a000 	lui	v0,0xa000
9d004134:	8c420000 	lw	v0,0(v0)
9d004138:	24030001 	li	v1,1
9d00413c:	03e00008 	jr	ra
9d004140:	ac430038 	sw	v1,56(v0)

Disassembly of section .rodata:

9d004144 <_io_strfuncs>:
9d004144:	9d004168 9d004170 9d004178 9d004180     hA..pA..xA...A..
9d004154:	9d004188                                .A..

Disassembly of section .text._on_reset:

9d004158 <_on_reset>:
9d004158:	03e00008 	jr	ra
9d00415c:	00000000 	nop

Disassembly of section .text._on_bootstrap:

9d004160 <_on_bootstrap>:
9d004160:	03e00008 	jr	ra
9d004164:	00000000 	nop

Disassembly of section .text._filbuf_string:

9d004168 <_filbuf_string>:
9d004168:	03e00008 	jr	ra
9d00416c:	2402ffff 	li	v0,-1

Disassembly of section .text._flsbuf_string:

9d004170 <_flsbuf_string>:
9d004170:	03e00008 	jr	ra
9d004174:	00801025 	move	v0,a0

Disassembly of section .text._fflush_string:

9d004178 <_fflush_string>:
9d004178:	03e00008 	jr	ra
9d00417c:	00001025 	move	v0,zero

Disassembly of section .text._fwrite_string:

9d004180 <_fwrite_string>:
9d004180:	03e00008 	jr	ra
9d004184:	00001025 	move	v0,zero

Disassembly of section .text._fsync_string:

9d004188 <_fsync_string>:
9d004188:	03e00008 	jr	ra
9d00418c:	24020001 	li	v0,1
