
out.elf:     file format elf32-tradlittlemips


Disassembly of section .config_BFC02FF0:

bfc02ff0 <__config_BFC02FF0>:
bfc02ff0:	ff ff fe fa                                         ....

Disassembly of section .config_BFC02FF4:

bfc02ff4 <__config_BFC02FF4>:
bfc02ff4:	d9 79 f8 ff                                         .y..

Disassembly of section .config_BFC02FF8:

bfc02ff8 <__config_BFC02FF8>:
bfc02ff8:	db ce 6c ff                                         ..l.

Disassembly of section .config_BFC02FFC:

bfc02ffc <__config_BFC02FFC>:
bfc02ffc:	ff ff ff 7e                                         ...~

Disassembly of section .reset:

bd001970 <_reset>:
bd001970:	0f40065e 	jal	bd001978 <_startup>
bd001974:	00000000 	nop

bd001978 <_startup>:
bd001978:	401a6000 	mfc0	k0,c0_status
bd00197c:	7f5a04c0 	ext	k0,k0,0x13,0x1
bd001980:	13400005 	beqz	k0,bd001998 <_no_nmi>
bd001984:	00000000 	nop
bd001988:	3c1a9d01 	lui	k0,0x9d01
bd00198c:	275aa8e0 	addiu	k0,k0,-22304
bd001990:	03400008 	jr	k0
bd001994:	00000000 	nop

bd001998 <_no_nmi>:
bd001998:	3c1da002 	lui	sp,0xa002
bd00199c:	27bdfff0 	addiu	sp,sp,-16
bd0019a0:	3c1ca000 	lui	gp,0xa000
bd0019a4:	279c7ff0 	addiu	gp,gp,32752
bd0019a8:	40096002 	mfc0	t1,c0_srsctl
bd0019ac:	01205820 	add	t3,t1,zero
bd0019b0:	7d2a1e80 	ext	t2,t1,0x1a,0x4
bd0019b4:	7d494984 	ins	t1,t2,0x6,0x4
bd0019b8:	40896002 	mtc0	t1,c0_srsctl
bd0019bc:	000000c0 	ehb
bd0019c0:	41dce000 	wrpgpr	gp,gp
bd0019c4:	408b6002 	mtc0	t3,c0_srsctl
bd0019c8:	000000c0 	ehb
bd0019cc:	3c089d01 	lui	t0,0x9d01
bd0019d0:	2508a974 	addiu	t0,t0,-22156
bd0019d4:	0100f809 	jalr	t0
bd0019d8:	00000000 	nop

bd0019dc <_start_bss_init>:
bd0019dc:	3c08a000 	lui	t0,0xa000
bd0019e0:	25080008 	addiu	t0,t0,8
bd0019e4:	3c09a000 	lui	t1,0xa000
bd0019e8:	252900c0 	addiu	t1,t1,192
bd0019ec:	10000003 	b	bd0019fc <_bss_check>
bd0019f0:	00000000 	nop

bd0019f4 <_bss_init>:
bd0019f4:	ad000000 	sw	zero,0(t0)
bd0019f8:	25080004 	addiu	t0,t0,4

bd0019fc <_bss_check>:
bd0019fc:	0109082b 	sltu	at,t0,t1
bd001a00:	1420fffc 	bnez	at,bd0019f4 <_bss_init>
bd001a04:	00000000 	nop
bd001a08:	3c089d01 	lui	t0,0x9d01
bd001a0c:	25089bf8 	addiu	t0,t0,-25608
bd001a10:	0100f809 	jalr	t0
bd001a14:	00000000 	nop
bd001a18:	3c090000 	lui	t1,0x0
bd001a1c:	25290000 	addiu	t1,t1,0
bd001a20:	11200010 	beqz	t1,bd001a64 <_ramfunc_done>
bd001a24:	00000000 	nop
bd001a28:	3c090002 	lui	t1,0x2
bd001a2c:	25290000 	addiu	t1,t1,0
bd001a30:	3c0abf88 	lui	t2,0xbf88
bd001a34:	254a2010 	addiu	t2,t2,8208
bd001a38:	ad490000 	sw	t1,0(t2)
bd001a3c:	3c090002 	lui	t1,0x2
bd001a40:	25290000 	addiu	t1,t1,0
bd001a44:	3c0abf88 	lui	t2,0xbf88
bd001a48:	254a2020 	addiu	t2,t2,8224
bd001a4c:	ad490000 	sw	t1,0(t2)
bd001a50:	3c090002 	lui	t1,0x2
bd001a54:	25290000 	addiu	t1,t1,0
bd001a58:	3c0abf88 	lui	t2,0xbf88
bd001a5c:	254a2030 	addiu	t2,t2,8240
bd001a60:	ad490000 	sw	t1,0(t2)

bd001a64 <_ramfunc_done>:
bd001a64:	40804800 	mtc0	zero,c0_count
bd001a68:	240affff 	li	t2,-1
bd001a6c:	408a5800 	mtc0	t2,c0_compare
bd001a70:	3c080040 	lui	t0,0x40
bd001a74:	400a6000 	mfc0	t2,c0_status
bd001a78:	010a5025 	or	t2,t0,t2
bd001a7c:	408a6000 	mtc0	t2,c0_status
bd001a80:	3c099d00 	lui	t1,0x9d00
bd001a84:	25290000 	addiu	t1,t1,0
bd001a88:	000000c0 	ehb
bd001a8c:	40897801 	mtc0	t1,c0_ebase
bd001a90:	3c090000 	lui	t1,0x0
bd001a94:	25290001 	addiu	t1,t1,1
bd001a98:	240a0000 	li	t2,0
bd001a9c:	7d2a4944 	ins	t2,t1,0x5,0x5
bd001aa0:	408a6001 	mtc0	t2,c0_intctl
bd001aa4:	3c090080 	lui	t1,0x80
bd001aa8:	40896800 	mtc0	t1,c0_cause
bd001aac:	40088000 	mfc0	t0,c0_config
bd001ab0:	7d090580 	ext	t1,t0,0x16,0x1
bd001ab4:	00094c40 	sll	t1,t1,0x11
bd001ab8:	40086000 	mfc0	t0,c0_status
bd001abc:	3c010058 	lui	at,0x58
bd001ac0:	01014024 	and	t0,t0,at
bd001ac4:	01284025 	or	t0,t1,t0
bd001ac8:	40886000 	mtc0	t0,c0_status
bd001acc:	000000c0 	ehb
bd001ad0:	3c089d01 	lui	t0,0x9d01
bd001ad4:	2508a97c 	addiu	t0,t0,-22148
bd001ad8:	0100f809 	jalr	t0
bd001adc:	00000000 	nop
bd001ae0:	40086000 	mfc0	t0,c0_status
bd001ae4:	3c01ffbf 	lui	at,0xffbf
bd001ae8:	3421ffff 	ori	at,at,0xffff
bd001aec:	01014024 	and	t0,t0,at
bd001af0:	40886000 	mtc0	t0,c0_status
bd001af4:	30840000 	andi	a0,a0,0x0
bd001af8:	30a50000 	andi	a1,a1,0x0
bd001afc:	3c089d01 	lui	t0,0x9d01
bd001b00:	2508a33c 	addiu	t0,t0,-23748
bd001b04:	01000008 	jr	t0
bd001b08:	00000000 	nop

Disassembly of section .bev_excpt:

bd001cf0 <_bev_exception>:
bd001cf0:	3c1a9d01 	lui	k0,0x9d01
bd001cf4:	275aa484 	addiu	k0,k0,-23420
bd001cf8:	03400008 	jr	k0
bd001cfc:	00000000 	nop

Disassembly of section .app_excpt:

9d000180 <_gen_exception>:
9d000180:	3c1a9d01 	lui	k0,0x9d01
9d000184:	275a93b4 	addiu	k0,k0,-27724
9d000188:	03400008 	jr	k0
9d00018c:	00000000 	nop

Disassembly of section .vector_0:

9d000200 <__vector_dispatch_0>:
9d000200:	0b402945 	j	9d00a514 <_DefaultInterrupt>
9d000204:	00000000 	nop

Disassembly of section .vector_1:

9d000220 <__vector_dispatch_1>:
9d000220:	0b402945 	j	9d00a514 <_DefaultInterrupt>
9d000224:	00000000 	nop

Disassembly of section .vector_2:

9d000240 <__vector_dispatch_2>:
9d000240:	0b402945 	j	9d00a514 <_DefaultInterrupt>
9d000244:	00000000 	nop

Disassembly of section .vector_3:

9d000260 <__vector_dispatch_3>:
9d000260:	0b402945 	j	9d00a514 <_DefaultInterrupt>
9d000264:	00000000 	nop

Disassembly of section .vector_4:

9d000280 <__vector_dispatch_4>:
9d000280:	0b402945 	j	9d00a514 <_DefaultInterrupt>
9d000284:	00000000 	nop

Disassembly of section .vector_5:

9d0002a0 <__vector_dispatch_5>:
9d0002a0:	0b402945 	j	9d00a514 <_DefaultInterrupt>
9d0002a4:	00000000 	nop

Disassembly of section .vector_6:

9d0002c0 <__vector_dispatch_6>:
9d0002c0:	0b402945 	j	9d00a514 <_DefaultInterrupt>
9d0002c4:	00000000 	nop

Disassembly of section .vector_7:

9d0002e0 <__vector_dispatch_7>:
9d0002e0:	0b402945 	j	9d00a514 <_DefaultInterrupt>
9d0002e4:	00000000 	nop

Disassembly of section .vector_8:

9d000300 <__vector_dispatch_8>:
9d000300:	0b402945 	j	9d00a514 <_DefaultInterrupt>
9d000304:	00000000 	nop

Disassembly of section .vector_9:

9d000320 <__vector_dispatch_9>:
9d000320:	0b402945 	j	9d00a514 <_DefaultInterrupt>
9d000324:	00000000 	nop

Disassembly of section .vector_10:

9d000340 <__vector_dispatch_10>:
9d000340:	0b402945 	j	9d00a514 <_DefaultInterrupt>
9d000344:	00000000 	nop

Disassembly of section .vector_11:

9d000360 <__vector_dispatch_11>:
9d000360:	0b402945 	j	9d00a514 <_DefaultInterrupt>
9d000364:	00000000 	nop

Disassembly of section .vector_12:

9d000380 <__vector_dispatch_12>:
9d000380:	0b40221b 	j	9d00886c <CurrentControl>
9d000384:	00000000 	nop

Disassembly of section .vector_13:

9d0003a0 <__vector_dispatch_13>:
9d0003a0:	0b402945 	j	9d00a514 <_DefaultInterrupt>
9d0003a4:	00000000 	nop

Disassembly of section .vector_14:

9d0003c0 <__vector_dispatch_14>:
9d0003c0:	0b402945 	j	9d00a514 <_DefaultInterrupt>
9d0003c4:	00000000 	nop

Disassembly of section .vector_15:

9d0003e0 <__vector_dispatch_15>:
9d0003e0:	0b402945 	j	9d00a514 <_DefaultInterrupt>
9d0003e4:	00000000 	nop

Disassembly of section .vector_16:

9d000400 <__vector_dispatch_16>:
9d000400:	0b402740 	j	9d009d00 <PositionControl>
9d000404:	00000000 	nop

Disassembly of section .vector_17:

9d000420 <__vector_dispatch_17>:
9d000420:	0b402945 	j	9d00a514 <_DefaultInterrupt>
9d000424:	00000000 	nop

Disassembly of section .vector_18:

9d000440 <__vector_dispatch_18>:
9d000440:	0b402945 	j	9d00a514 <_DefaultInterrupt>
9d000444:	00000000 	nop

Disassembly of section .vector_19:

9d000460 <__vector_dispatch_19>:
9d000460:	0b402945 	j	9d00a514 <_DefaultInterrupt>
9d000464:	00000000 	nop

Disassembly of section .vector_20:

9d000480 <__vector_dispatch_20>:
9d000480:	0b402945 	j	9d00a514 <_DefaultInterrupt>
9d000484:	00000000 	nop

Disassembly of section .vector_21:

9d0004a0 <__vector_dispatch_21>:
9d0004a0:	0b402945 	j	9d00a514 <_DefaultInterrupt>
9d0004a4:	00000000 	nop

Disassembly of section .vector_22:

9d0004c0 <__vector_dispatch_22>:
9d0004c0:	0b402945 	j	9d00a514 <_DefaultInterrupt>
9d0004c4:	00000000 	nop

Disassembly of section .vector_23:

9d0004e0 <__vector_dispatch_23>:
9d0004e0:	0b402945 	j	9d00a514 <_DefaultInterrupt>
9d0004e4:	00000000 	nop

Disassembly of section .vector_24:

9d000500 <__vector_dispatch_24>:
9d000500:	0b402945 	j	9d00a514 <_DefaultInterrupt>
9d000504:	00000000 	nop

Disassembly of section .vector_25:

9d000520 <__vector_dispatch_25>:
9d000520:	0b402945 	j	9d00a514 <_DefaultInterrupt>
9d000524:	00000000 	nop

Disassembly of section .vector_26:

9d000540 <__vector_dispatch_26>:
9d000540:	0b402945 	j	9d00a514 <_DefaultInterrupt>
9d000544:	00000000 	nop

Disassembly of section .vector_27:

9d000560 <__vector_dispatch_27>:
9d000560:	0b402945 	j	9d00a514 <_DefaultInterrupt>
9d000564:	00000000 	nop

Disassembly of section .vector_28:

9d000580 <__vector_dispatch_28>:
9d000580:	0b402945 	j	9d00a514 <_DefaultInterrupt>
9d000584:	00000000 	nop

Disassembly of section .vector_29:

9d0005a0 <__vector_dispatch_29>:
9d0005a0:	0b402945 	j	9d00a514 <_DefaultInterrupt>
9d0005a4:	00000000 	nop

Disassembly of section .vector_30:

9d0005c0 <__vector_dispatch_30>:
9d0005c0:	0b402945 	j	9d00a514 <_DefaultInterrupt>
9d0005c4:	00000000 	nop

Disassembly of section .vector_31:

9d0005e0 <__vector_dispatch_31>:
9d0005e0:	0b402945 	j	9d00a514 <_DefaultInterrupt>
9d0005e4:	00000000 	nop

Disassembly of section .vector_32:

9d000600 <__vector_dispatch_32>:
9d000600:	0b401b36 	j	9d006cd8 <U2ISR>
9d000604:	00000000 	nop

Disassembly of section .vector_33:

9d000620 <__vector_dispatch_33>:
9d000620:	0b402945 	j	9d00a514 <_DefaultInterrupt>
9d000624:	00000000 	nop

Disassembly of section .vector_34:

9d000640 <__vector_dispatch_34>:
9d000640:	0b402945 	j	9d00a514 <_DefaultInterrupt>
9d000644:	00000000 	nop

Disassembly of section .vector_35:

9d000660 <__vector_dispatch_35>:
9d000660:	0b402945 	j	9d00a514 <_DefaultInterrupt>
9d000664:	00000000 	nop

Disassembly of section .vector_36:

9d000680 <__vector_dispatch_36>:
9d000680:	0b402945 	j	9d00a514 <_DefaultInterrupt>
9d000684:	00000000 	nop

Disassembly of section .vector_37:

9d0006a0 <__vector_dispatch_37>:
9d0006a0:	0b402945 	j	9d00a514 <_DefaultInterrupt>
9d0006a4:	00000000 	nop

Disassembly of section .vector_38:

9d0006c0 <__vector_dispatch_38>:
9d0006c0:	0b402945 	j	9d00a514 <_DefaultInterrupt>
9d0006c4:	00000000 	nop

Disassembly of section .vector_39:

9d0006e0 <__vector_dispatch_39>:
9d0006e0:	0b402945 	j	9d00a514 <_DefaultInterrupt>
9d0006e4:	00000000 	nop

Disassembly of section .vector_40:

9d000700 <__vector_dispatch_40>:
9d000700:	0b402945 	j	9d00a514 <_DefaultInterrupt>
9d000704:	00000000 	nop

Disassembly of section .vector_41:

9d000720 <__vector_dispatch_41>:
9d000720:	0b402945 	j	9d00a514 <_DefaultInterrupt>
9d000724:	00000000 	nop

Disassembly of section .vector_42:

9d000740 <__vector_dispatch_42>:
9d000740:	0b402945 	j	9d00a514 <_DefaultInterrupt>
9d000744:	00000000 	nop

Disassembly of section .vector_43:

9d000760 <__vector_dispatch_43>:
9d000760:	0b402945 	j	9d00a514 <_DefaultInterrupt>
9d000764:	00000000 	nop

Disassembly of section .vector_44:

9d000780 <__vector_dispatch_44>:
9d000780:	0b402945 	j	9d00a514 <_DefaultInterrupt>
9d000784:	00000000 	nop

Disassembly of section .vector_45:

9d0007a0 <__vector_dispatch_45>:
9d0007a0:	0b402945 	j	9d00a514 <_DefaultInterrupt>
9d0007a4:	00000000 	nop

Disassembly of section .vector_46:

9d0007c0 <__vector_dispatch_46>:
9d0007c0:	0b402945 	j	9d00a514 <_DefaultInterrupt>
9d0007c4:	00000000 	nop

Disassembly of section .vector_47:

9d0007e0 <__vector_dispatch_47>:
9d0007e0:	0b402945 	j	9d00a514 <_DefaultInterrupt>
9d0007e4:	00000000 	nop

Disassembly of section .vector_48:

9d000800 <__vector_dispatch_48>:
9d000800:	0b402945 	j	9d00a514 <_DefaultInterrupt>
9d000804:	00000000 	nop

Disassembly of section .vector_49:

9d000820 <__vector_dispatch_49>:
9d000820:	0b402945 	j	9d00a514 <_DefaultInterrupt>
9d000824:	00000000 	nop

Disassembly of section .vector_50:

9d000840 <__vector_dispatch_50>:
9d000840:	0b402945 	j	9d00a514 <_DefaultInterrupt>
9d000844:	00000000 	nop

Disassembly of section .vector_51:

9d000860 <__vector_dispatch_51>:
9d000860:	0b402945 	j	9d00a514 <_DefaultInterrupt>
9d000864:	00000000 	nop

Disassembly of section .rodata:

9d001e00 <.rodata>:
9d001e00:	00006425 	0x6425
9d001e04:	0a0d6425 	j	98359094 <_bmxdudba_address+0x98339094>
9d001e08:	0c000000 	jal	90000000 <_bmxdudba_address+0x8ffe0000>
9d001e0c:	7465530a 	jalx	91954c28 <_bmxdudba_address+0x91934c28>
9d001e10:	4d575020 	madd.s	$f0,$f10,$f10,$f23
9d001e14:	312d2820 	andi	t5,t1,0x2820
9d001e18:	74203030 	jalx	9080c0c0 <_bmxdudba_address+0x907ec0c0>
9d001e1c:	3031206f 	andi	s1,at,0x206f
9d001e20:	203a2930 	addi	k0,at,10544
9d001e24:	0c000000 	jal	90000000 <_bmxdudba_address+0x8ffe0000>
9d001e28:	57500a0d 	bnel	k0,s0,9d004660 <realloc+0x234>
9d001e2c:	6573204d 	0x6573204d
9d001e30:	73612074 	0x73612074
9d001e34:	6425203a 	0x6425203a
9d001e38:	000a0d20 	0xa0d20
9d001e3c:	6e450a72 	0x6e450a72
9d001e40:	20726574 	addi	s2,v1,25972
9d001e44:	2077656e 	addi	s7,v1,25966
9d001e48:	72727563 	0x72727563
9d001e4c:	20746e65 	addi	s4,v1,28261
9d001e50:	6e696167 	0x6e696167
9d001e54:	3a704b20 	xori	s0,s3,0x4b20
9d001e58:	0c000020 	jal	90000080 <_bmxdudba_address+0x8ffe0080>
9d001e5c:	00006625 	0x6625
9d001e60:	6e450a0d 	0x6e450a0d
9d001e64:	20726574 	addi	s2,v1,25972
9d001e68:	2077656e 	addi	s7,v1,25966
9d001e6c:	72727563 	0x72727563
9d001e70:	20746e65 	addi	s4,v1,28261
9d001e74:	6e696167 	0x6e696167
9d001e78:	3a694b20 	xori	t1,s3,0x4b20
9d001e7c:	0c000020 	jal	90000080 <_bmxdudba_address+0x8ffe0080>
9d001e80:	654e0a0d 	0x654e0a0d
9d001e84:	20502077 	addi	s0,v0,8311
9d001e88:	2049202b 	addi	t1,v0,8235
9d001e8c:	6e696167 	0x6e696167
9d001e90:	25203a73 	addiu	zero,t1,14963
9d001e94:	25202c66 	addiu	zero,t1,11366
9d001e98:	0c000066 	jal	90000198 <_bmxdudba_address+0x8ffe0198>
9d001e9c:	746f4d0a 	jalx	91bd3428 <_bmxdudba_address+0x91bb3428>
9d001ea0:	7320726f 	0x7320726f
9d001ea4:	74207465 	jalx	9081d194 <_bmxdudba_address+0x907fd194>
9d001ea8:	4449206f 	0x4449206f
9d001eac:	6d20454c 	0x6d20454c
9d001eb0:	2e65646f 	sltiu	a1,s3,25711
9d001eb4:	000a0a0d 	break	0xa,0x28
9d001eb8:	7275430a 	0x7275430a
9d001ebc:	746e6572 	jalx	91b995c8 <_bmxdudba_address+0x91b795c8>
9d001ec0:	646f6d20 	0x646f6d20
9d001ec4:	666f2065 	0x666f2065
9d001ec8:	6f727020 	0x6f727020
9d001ecc:	6d617267 	0x6d617267
9d001ed0:	6425203a 	0x6425203a
9d001ed4:	000a0d20 	0xa0d20
9d001ed8:	6975470a 	0x6975470a
9d001edc:	74206564 	jalx	90819590 <_bmxdudba_address+0x907f9590>
9d001ee0:	7270206f 	0x7270206f
9d001ee4:	6172676f 	0x6172676f
9d001ee8:	6f6d206d 	0x6f6d206d
9d001eec:	3a736564 	xori	s3,s3,0x6564
9d001ef0:	490a0d20 	bc2fl	$cc2,9d005374 <__strtod+0xe0>
9d001ef4:	20454c44 	addi	a1,v0,19524
9d001ef8:	65646f4d 	0x65646f4d
9d001efc:	6425203a 	0x6425203a
9d001f00:	500a0d20 	beql	zero,t2,9d005384 <__strtod+0xf0>
9d001f04:	4d204d57 	0x4d204d57
9d001f08:	3a65646f 	xori	a1,s3,0x646f
9d001f0c:	20642520 	addi	a0,v1,9504
9d001f10:	54490a0d 	bnel	v0,t1,9d004748 <realloc+0x31c>
9d001f14:	20545345 	addi	s4,v0,21317
9d001f18:	65646f4d 	0x65646f4d
9d001f1c:	6425203a 	0x6425203a
9d001f20:	480a0d20 	0x480a0d20
9d001f24:	20444c4f 	addi	a0,v0,19535
9d001f28:	65646f4d 	0x65646f4d
9d001f2c:	6425203a 	0x6425203a
9d001f30:	540a0d20 	bnel	zero,t2,9d0053b4 <__strtod+0x120>
9d001f34:	4b434152 	c2	0x1434152
9d001f38:	646f4d20 	0x646f4d20
9d001f3c:	25203a65 	addiu	zero,t1,14949
9d001f40:	0a0d2064 	j	98348190 <_bmxdudba_address+0x98328190>
9d001f44:	0c00000a 	jal	90000028 <_bmxdudba_address+0x8ffe0028>
9d001f48:	00006425 	0x6425
9d001f4c:	004e614e 	0x4e614e
9d001f50:	666e492d 	0x666e492d
9d001f54:	00000000 	nop
9d001f58:	666e492b 	0x666e492b
9d001f5c:	00000000 	nop
9d001f60:	6c756e28 	0x6c756e28
9d001f64:	0000296c 	0x296c
9d001f68:	00000000 	nop
9d001f6c:	40240000 	0x40240000
9d001f70:	47ae147b 	c1	0x1ae147b
9d001f74:	3f847ae1 	0x3f847ae1
9d001f78:	00000000 	nop
9d001f7c:	40100000 	mfc0	s0,c0_index
9d001f80:	33323130 	andi	s2,t9,0x3130
9d001f84:	37363534 	ori	s6,t9,0x3534
9d001f88:	42413938 	c0	0x413938
9d001f8c:	46454443 	c1	0x454443
9d001f90:	64636261 	0x64636261
9d001f94:	00006665 	0x6665
9d001f98:	33323130 	andi	s2,t9,0x3130
9d001f9c:	37363534 	ori	s6,t9,0x3534
9d001fa0:	00000000 	nop
9d001fa4:	33323130 	andi	s2,t9,0x3130
9d001fa8:	37363534 	ori	s6,t9,0x3534
9d001fac:	00003938 	0x3938

Disassembly of section ._debug_exception:

bfc00480 <__DbgExecReturn>:
bfc00480:	409bf800 	mtc0	k1,c0_desave
bfc00484:	000000c0 	ehb
bfc00488:	3c1b9d01 	lui	k1,0x9d01
bfc0048c:	277ba5a4 	addiu	k1,k1,-23132
bfc00490:	13600002 	beqz	k1,bfc0049c <__DbgExecReturn+0x1c>
bfc00494:	00000000 	nop
bfc00498:	409bc000 	mtc0	k1,c0_depc
bfc0049c:	401bf800 	mfc0	k1,c0_desave
bfc004a0:	000000c0 	ehb
bfc004a4:	4200001f 	deret
bfc004a8:	00000000 	nop

Disassembly of section .text.do_scan:

9d001fb0 <do_scan>:
9d001fb0:	8c820018 	lw	v0,24(a0)
9d001fb4:	27bdfef0 	addiu	sp,sp,-272
9d001fb8:	afb100ec 	sw	s1,236(sp)
9d001fbc:	8c420010 	lw	v0,16(v0)
9d001fc0:	afb000e8 	sw	s0,232(sp)
9d001fc4:	afbf010c 	sw	ra,268(sp)
9d001fc8:	afbe0108 	sw	s8,264(sp)
9d001fcc:	afb70104 	sw	s7,260(sp)
9d001fd0:	afb60100 	sw	s6,256(sp)
9d001fd4:	afb500fc 	sw	s5,252(sp)
9d001fd8:	afb400f8 	sw	s4,248(sp)
9d001fdc:	afb300f4 	sw	s3,244(sp)
9d001fe0:	afb200f0 	sw	s2,240(sp)
9d001fe4:	00a08825 	move	s1,a1
9d001fe8:	24050002 	li	a1,2
9d001fec:	afa40110 	sw	a0,272(sp)
9d001ff0:	0040f809 	jalr	v0
9d001ff4:	00c08025 	move	s0,a2
9d001ff8:	1440000e 	bnez	v0,9d002034 <do_scan+0x84>
9d001ffc:	8fa20110 	lw	v0,272(sp)
9d002000:	2402ffff 	li	v0,-1
9d002004:	8fbf010c 	lw	ra,268(sp)
9d002008:	8fbe0108 	lw	s8,264(sp)
9d00200c:	8fb70104 	lw	s7,260(sp)
9d002010:	8fb60100 	lw	s6,256(sp)
9d002014:	8fb500fc 	lw	s5,252(sp)
9d002018:	8fb400f8 	lw	s4,248(sp)
9d00201c:	8fb300f4 	lw	s3,244(sp)
9d002020:	8fb200f0 	lw	s2,240(sp)
9d002024:	8fb100ec 	lw	s1,236(sp)
9d002028:	8fb000e8 	lw	s0,232(sp)
9d00202c:	03e00008 	jr	ra
9d002030:	27bd0110 	addiu	sp,sp,272
9d002034:	3c169d00 	lui	s6,0x9d00
9d002038:	3c139d01 	lui	s3,0x9d01
9d00203c:	afa200b4 	sw	v0,180(sp)
9d002040:	2402ffff 	li	v0,-1
9d002044:	afa200b8 	sw	v0,184(sp)
9d002048:	26c221c0 	addiu	v0,s6,8640
9d00204c:	afb100bc 	sw	s1,188(sp)
9d002050:	afb000c0 	sw	s0,192(sp)
9d002054:	afa000c8 	sw	zero,200(sp)
9d002058:	afa000cc 	sw	zero,204(sp)
9d00205c:	afa000c4 	sw	zero,196(sp)
9d002060:	0000a825 	move	s5,zero
9d002064:	26738fc9 	addiu	s3,s3,-28727
9d002068:	afa200e0 	sw	v0,224(sp)
9d00206c:	8fa200bc 	lw	v0,188(sp)
9d002070:	24440001 	addiu	a0,v0,1
9d002074:	afa400bc 	sw	a0,188(sp)
9d002078:	80500000 	lb	s0,0(v0)
9d00207c:	12000004 	beqz	s0,9d002090 <do_scan+0xe0>
9d002080:	8fa400b8 	lw	a0,184(sp)
9d002084:	12a00013 	beqz	s5,9d0020d4 <do_scan+0x124>
9d002088:	24040025 	li	a0,37
9d00208c:	8fa400b8 	lw	a0,184(sp)
9d002090:	2402ffff 	li	v0,-1
9d002094:	10820007 	beq	a0,v0,9d0020b4 <do_scan+0x104>
9d002098:	8fa20110 	lw	v0,272(sp)
9d00209c:	94420010 	lhu	v0,16(v0)
9d0020a0:	30420080 	andi	v0,v0,0x80
9d0020a4:	14400004 	bnez	v0,9d0020b8 <do_scan+0x108>
9d0020a8:	2402ffff 	li	v0,-1
9d0020ac:	0f4024b4 	jal	9d0092d0 <ungetc>
9d0020b0:	8fa500b4 	lw	a1,180(sp)
9d0020b4:	2402ffff 	li	v0,-1
9d0020b8:	16a2ffd2 	bne	s5,v0,9d002004 <do_scan+0x54>
9d0020bc:	8fa200cc 	lw	v0,204(sp)
9d0020c0:	8fa200c8 	lw	v0,200(sp)
9d0020c4:	1040ffce 	beqz	v0,9d002000 <do_scan+0x50>
9d0020c8:	8fa200cc 	lw	v0,204(sp)
9d0020cc:	1000ffce 	b	9d002008 <do_scan+0x58>
9d0020d0:	8fbf010c 	lw	ra,268(sp)
9d0020d4:	56040237 	bnel	s0,a0,9d0029b4 <__jend_do_scan_80+0x720>
9d0020d8:	02131021 	addu	v0,s0,s3
9d0020dc:	24440002 	addiu	a0,v0,2
9d0020e0:	afa400bc 	sw	a0,188(sp)
9d0020e4:	80540001 	lb	s4,1(v0)
9d0020e8:	1690000d 	bne	s4,s0,9d002120 <do_scan+0x170>
9d0020ec:	2404002a 	li	a0,42
9d0020f0:	0f4028b9 	jal	9d00a2e4 <gsgetc>
9d0020f4:	27a400b4 	addiu	a0,sp,180
9d0020f8:	2403ffff 	li	v1,-1
9d0020fc:	14430004 	bne	v0,v1,9d002110 <do_scan+0x160>
9d002100:	2416ffff 	li	s6,-1
9d002104:	02c0a825 	move	s5,s6
9d002108:	1000ffd9 	b	9d002070 <do_scan+0xc0>
9d00210c:	8fa200bc 	lw	v0,188(sp)
9d002110:	54540238 	bnel	v0,s4,9d0029f4 <__jend_do_scan_80+0x760>
9d002114:	afa200b8 	sw	v0,184(sp)
9d002118:	1000fffa 	b	9d002104 <do_scan+0x154>
9d00211c:	0000b025 	move	s6,zero
9d002120:	16840005 	bne	s4,a0,9d002138 <do_scan+0x188>
9d002124:	00008025 	move	s0,zero
9d002128:	24440003 	addiu	a0,v0,3
9d00212c:	afa400bc 	sw	a0,188(sp)
9d002130:	80540002 	lb	s4,2(v0)
9d002134:	24100001 	li	s0,1
9d002138:	02931021 	addu	v0,s4,s3
9d00213c:	90420000 	lbu	v0,0(v0)
9d002140:	30420004 	andi	v0,v0,0x4
9d002144:	10400053 	beqz	v0,9d002294 <__jend_do_scan_80>
9d002148:	3c117fff 	lui	s1,0x7fff
9d00214c:	8fa400bc 	lw	a0,188(sp)
9d002150:	2406000a 	li	a2,10
9d002154:	27a500bc 	addiu	a1,sp,188
9d002158:	2484ffff 	addiu	a0,a0,-1
9d00215c:	0f402065 	jal	9d008194 <strtoul>
9d002160:	afa400bc 	sw	a0,188(sp)
9d002164:	00408825 	move	s1,v0
9d002168:	8fa200bc 	lw	v0,188(sp)
9d00216c:	24440001 	addiu	a0,v0,1
9d002170:	afa400bc 	sw	a0,188(sp)
9d002174:	80540000 	lb	s4,0(v0)
9d002178:	24040068 	li	a0,104
9d00217c:	1284004d 	beq	s4,a0,9d0022b4 <__jend_do_scan_80+0x20>
9d002180:	2a820069 	slti	v0,s4,105
9d002184:	50400045 	beqzl	v0,9d00229c <__jend_do_scan_80+0x8>
9d002188:	2404006c 	li	a0,108
9d00218c:	2402004c 	li	v0,76
9d002190:	5282005e 	beql	s4,v0,9d00230c <__jend_do_scan_80+0x78>
9d002194:	36100400 	ori	s0,s0,0x400
9d002198:	2694ffbc 	addiu	s4,s4,-68
9d00219c:	2e820035 	sltiu	v0,s4,53
9d0021a0:	1040ffd8 	beqz	v0,9d002104 <do_scan+0x154>
9d0021a4:	24160001 	li	s6,1
9d0021a8:	8fa200e0 	lw	v0,224(sp)
9d0021ac:	0014a080 	sll	s4,s4,0x2
9d0021b0:	0054a021 	addu	s4,v0,s4
9d0021b4:	8e820000 	lw	v0,0(s4)
9d0021b8:	00400008 	jr	v0
9d0021bc:	00000000 	nop

9d0021c0 <__jump_do_scan_80>:
9d0021c0:	9d002404 9d002678 9d002678 9d002678     .$..x&..x&..x&..
9d0021d0:	9d00258c 9d00258c 9d00258c 9d00258c     .%...%...%...%..
9d0021e0:	9d00258c 9d00258c 9d00258c 9d002414     .%...%...%...$..
9d0021f0:	9d00258c 9d00258c 9d00258c 9d00258c     .%...%...%...%..
9d002200:	9d00258c 9d002420 9d00258c 9d00258c     .%.. $...%...%..
9d002210:	9d002428 9d00258c 9d00258c 9d0028e8     ($...%...%...(..
9d002220:	9d00258c 9d00258c 9d00258c 9d00258c     .%...%...%...%..
9d002230:	9d00258c 9d00258c 9d00258c 9d002904     .%...%...%...)..
9d002240:	9d002408 9d002678 9d002678 9d002678     .$..x&..x&..x&..
9d002250:	9d00258c 9d002320 9d00258c 9d00258c     .%.. #...%...%..
9d002260:	9d00258c 9d00258c 9d002930 9d002418     .%...%..0)...$..
9d002270:	9d002428 9d00258c 9d00258c 9d0028b0     ($...%...%...(..
9d002280:	9d00258c 9d00240c 9d00258c 9d00258c     .%...$...%...%..
9d002290:	9d002428                                ($..

9d002294 <__jend_do_scan_80>:
9d002294:	1000ffb8 	b	9d002178 <do_scan+0x1c8>
9d002298:	3631ffff 	ori	s1,s1,0xffff
9d00229c:	12840010 	beq	s4,a0,9d0022e0 <__jend_do_scan_80+0x4c>
9d0022a0:	24020071 	li	v0,113
9d0022a4:	5682ffbd 	bnel	s4,v0,9d00219c <do_scan+0x1ec>
9d0022a8:	2694ffbc 	addiu	s4,s4,-68
9d0022ac:	10000017 	b	9d00230c <__jend_do_scan_80+0x78>
9d0022b0:	36100800 	ori	s0,s0,0x800
9d0022b4:	8fa200bc 	lw	v0,188(sp)
9d0022b8:	24450001 	addiu	a1,v0,1
9d0022bc:	afa500bc 	sw	a1,188(sp)
9d0022c0:	80540000 	lb	s4,0(v0)
9d0022c4:	5684ffb4 	bnel	s4,a0,9d002198 <do_scan+0x1e8>
9d0022c8:	36100100 	ori	s0,s0,0x100
9d0022cc:	24440002 	addiu	a0,v0,2
9d0022d0:	afa400bc 	sw	a0,188(sp)
9d0022d4:	80540001 	lb	s4,1(v0)
9d0022d8:	1000ffaf 	b	9d002198 <do_scan+0x1e8>
9d0022dc:	36100080 	ori	s0,s0,0x80
9d0022e0:	8fa200bc 	lw	v0,188(sp)
9d0022e4:	24450001 	addiu	a1,v0,1
9d0022e8:	afa500bc 	sw	a1,188(sp)
9d0022ec:	80540000 	lb	s4,0(v0)
9d0022f0:	5684ffa9 	bnel	s4,a0,9d002198 <do_scan+0x1e8>
9d0022f4:	36100200 	ori	s0,s0,0x200
9d0022f8:	24440002 	addiu	a0,v0,2
9d0022fc:	afa400bc 	sw	a0,188(sp)
9d002300:	80540001 	lb	s4,1(v0)
9d002304:	1000ffa4 	b	9d002198 <do_scan+0x1e8>
9d002308:	36100800 	ori	s0,s0,0x800
9d00230c:	8fa200bc 	lw	v0,188(sp)
9d002310:	24440001 	addiu	a0,v0,1
9d002314:	afa400bc 	sw	a0,188(sp)
9d002318:	1000ff9f 	b	9d002198 <do_scan+0x1e8>
9d00231c:	80540000 	lb	s4,0(v0)
9d002320:	36101000 	ori	s0,s0,0x1000
9d002324:	0f40275e 	jal	9d009d78 <_eat_white>
9d002328:	27a400b4 	addiu	a0,sp,180
9d00232c:	1440ff75 	bnez	v0,9d002104 <do_scan+0x154>
9d002330:	0040b025 	move	s6,v0
9d002334:	27a20018 	addiu	v0,sp,24
9d002338:	122001b2 	beqz	s1,9d002a04 <__jend_do_scan_80+0x770>
9d00233c:	afa200d0 	sw	v0,208(sp)
9d002340:	0f4028b9 	jal	9d00a2e4 <gsgetc>
9d002344:	27a400b4 	addiu	a0,sp,180
9d002348:	0040b025 	move	s6,v0
9d00234c:	2402ffff 	li	v0,-1
9d002350:	12c201b8 	beq	s6,v0,9d002a34 <__jend_do_scan_80+0x7a0>
9d002354:	2402002b 	li	v0,43
9d002358:	12c20004 	beq	s6,v0,9d00236c <__jend_do_scan_80+0xd8>
9d00235c:	2634ffff 	addiu	s4,s1,-1
9d002360:	2402002d 	li	v0,45
9d002364:	16c2000d 	bne	s6,v0,9d00239c <__jend_do_scan_80+0x108>
9d002368:	00000000 	nop
9d00236c:	8fa200d0 	lw	v0,208(sp)
9d002370:	24440001 	addiu	a0,v0,1
9d002374:	afa400d0 	sw	a0,208(sp)
9d002378:	128001a2 	beqz	s4,9d002a04 <__jend_do_scan_80+0x770>
9d00237c:	a0560000 	sb	s6,0(v0)
9d002380:	0f4028b9 	jal	9d00a2e4 <gsgetc>
9d002384:	27a400b4 	addiu	a0,sp,180
9d002388:	0040b025 	move	s6,v0
9d00238c:	2402ffff 	li	v0,-1
9d002390:	12c2019d 	beq	s6,v0,9d002a08 <__jend_do_scan_80+0x774>
9d002394:	00000000 	nop
9d002398:	2634fffe 	addiu	s4,s1,-2
9d00239c:	16a0002e 	bnez	s5,9d002458 <__jend_do_scan_80+0x1c4>
9d0023a0:	8fa200d0 	lw	v0,208(sp)
9d0023a4:	24030030 	li	v1,48
9d0023a8:	16c3007e 	bne	s6,v1,9d0025a4 <__jend_do_scan_80+0x310>
9d0023ac:	24430001 	addiu	v1,v0,1
9d0023b0:	afa300d0 	sw	v1,208(sp)
9d0023b4:	a0560000 	sb	s6,0(v0)
9d0023b8:	12800077 	beqz	s4,9d002598 <__jend_do_scan_80+0x304>
9d0023bc:	2416ffff 	li	s6,-1
9d0023c0:	0f4028b9 	jal	9d00a2e4 <gsgetc>
9d0023c4:	27a400b4 	addiu	a0,sp,180
9d0023c8:	2415ffff 	li	s5,-1
9d0023cc:	10550072 	beq	v0,s5,9d002598 <__jend_do_scan_80+0x304>
9d0023d0:	0040b025 	move	s6,v0
9d0023d4:	24040058 	li	a0,88
9d0023d8:	7c022944 	ins	v0,zero,0x5,0x1
9d0023dc:	1444006d 	bne	v0,a0,9d002594 <__jend_do_scan_80+0x300>
9d0023e0:	2697ffff 	addiu	s7,s4,-1
9d0023e4:	16e00012 	bnez	s7,9d002430 <__jend_do_scan_80+0x19c>
9d0023e8:	00000000 	nop
9d0023ec:	2416ffff 	li	s6,-1
9d0023f0:	0000a025 	move	s4,zero
9d0023f4:	24150010 	li	s5,16
9d0023f8:	3c1e9d00 	lui	s8,0x9d00
9d0023fc:	1000018b 	b	9d002a2c <__jend_do_scan_80+0x798>
9d002400:	27de1f80 	addiu	s8,s8,8064
9d002404:	36100200 	ori	s0,s0,0x200
9d002408:	36101000 	ori	s0,s0,0x1000
9d00240c:	1000ffc5 	b	9d002324 <__jend_do_scan_80+0x90>
9d002410:	2415000a 	li	s5,10
9d002414:	36100200 	ori	s0,s0,0x200
9d002418:	1000ffc2 	b	9d002324 <__jend_do_scan_80+0x90>
9d00241c:	24150008 	li	s5,8
9d002420:	1000fffa 	b	9d00240c <__jend_do_scan_80+0x178>
9d002424:	36100200 	ori	s0,s0,0x200
9d002428:	1000ffbe 	b	9d002324 <__jend_do_scan_80+0x90>
9d00242c:	24150010 	li	s5,16
9d002430:	0f4028b9 	jal	9d00a2e4 <gsgetc>
9d002434:	27a400b4 	addiu	a0,sp,180
9d002438:	3c1e9d00 	lui	s8,0x9d00
9d00243c:	0040b025 	move	s6,v0
9d002440:	27de1f80 	addiu	s8,s8,8064
9d002444:	14550002 	bne	v0,s5,9d002450 <__jend_do_scan_80+0x1bc>
9d002448:	2694fffe 	addiu	s4,s4,-2
9d00244c:	02e0a025 	move	s4,s7
9d002450:	10000176 	b	9d002a2c <__jend_do_scan_80+0x798>
9d002454:	24150010 	li	s5,16
9d002458:	24040010 	li	a0,16
9d00245c:	56a4016f 	bnel	s5,a0,9d002a1c <__jend_do_scan_80+0x788>
9d002460:	24020008 	li	v0,8
9d002464:	3c179d00 	lui	s7,0x9d00
9d002468:	26f71f80 	addiu	s7,s7,8064
9d00246c:	24040030 	li	a0,48
9d002470:	16c4016e 	bne	s6,a0,9d002a2c <__jend_do_scan_80+0x798>
9d002474:	02e0f025 	move	s8,s7
9d002478:	24440001 	addiu	a0,v0,1
9d00247c:	afa400d0 	sw	a0,208(sp)
9d002480:	1280ffda 	beqz	s4,9d0023ec <__jend_do_scan_80+0x158>
9d002484:	a0560000 	sb	s6,0(v0)
9d002488:	0f4028b9 	jal	9d00a2e4 <gsgetc>
9d00248c:	27a400b4 	addiu	a0,sp,180
9d002490:	2405ffff 	li	a1,-1
9d002494:	10450165 	beq	v0,a1,9d002a2c <__jend_do_scan_80+0x798>
9d002498:	0040b025 	move	s6,v0
9d00249c:	24040058 	li	a0,88
9d0024a0:	7c022944 	ins	v0,zero,0x5,0x1
9d0024a4:	14440009 	bne	v0,a0,9d0024cc <__jend_do_scan_80+0x238>
9d0024a8:	269effff 	addiu	s8,s4,-1
9d0024ac:	13c0ffd0 	beqz	s8,9d0023f0 <__jend_do_scan_80+0x15c>
9d0024b0:	2416ffff 	li	s6,-1
9d0024b4:	0f4028b9 	jal	9d00a2e4 <gsgetc>
9d0024b8:	27a400b4 	addiu	a0,sp,180
9d0024bc:	2405ffff 	li	a1,-1
9d0024c0:	0040b025 	move	s6,v0
9d0024c4:	14450002 	bne	v0,a1,9d0024d0 <__jend_do_scan_80+0x23c>
9d0024c8:	2694fffe 	addiu	s4,s4,-2
9d0024cc:	03c0a025 	move	s4,s8
9d0024d0:	10000156 	b	9d002a2c <__jend_do_scan_80+0x798>
9d0024d4:	02e0f025 	move	s8,s7
9d0024d8:	24c20001 	addiu	v0,a2,1
9d0024dc:	afa200d0 	sw	v0,208(sp)
9d0024e0:	12800034 	beqz	s4,9d0025b4 <__jend_do_scan_80+0x320>
9d0024e4:	a0d60000 	sb	s6,0(a2)
9d0024e8:	0f4028b9 	jal	9d00a2e4 <gsgetc>
9d0024ec:	27a400b4 	addiu	a0,sp,180
9d0024f0:	10570002 	beq	v0,s7,9d0024fc <__jend_do_scan_80+0x268>
9d0024f4:	0040b025 	move	s6,v0
9d0024f8:	2694ffff 	addiu	s4,s4,-1
9d0024fc:	8fa600d0 	lw	a2,208(sp)
9d002500:	12d70006 	beq	s6,s7,9d00251c <__jend_do_scan_80+0x288>
9d002504:	afa600e4 	sw	a2,228(sp)
9d002508:	02c02825 	move	a1,s6
9d00250c:	0f402692 	jal	9d009a48 <strchr>
9d002510:	03c02025 	move	a0,s8
9d002514:	1440fff0 	bnez	v0,9d0024d8 <__jend_do_scan_80+0x244>
9d002518:	8fa600e4 	lw	a2,228(sp)
9d00251c:	8fa200d0 	lw	v0,208(sp)
9d002520:	a0400000 	sb	zero,0(v0)
9d002524:	2402ffff 	li	v0,-1
9d002528:	12c20005 	beq	s6,v0,9d002540 <__jend_do_scan_80+0x2ac>
9d00252c:	8fa200c4 	lw	v0,196(sp)
9d002530:	26940001 	addiu	s4,s4,1
9d002534:	afb600b8 	sw	s6,184(sp)
9d002538:	2442ffff 	addiu	v0,v0,-1
9d00253c:	afa200c4 	sw	v0,196(sp)
9d002540:	32170800 	andi	s7,s0,0x800
9d002544:	321e1000 	andi	s8,s0,0x1000
9d002548:	02a03025 	move	a2,s5
9d00254c:	27a500d0 	addiu	a1,sp,208
9d002550:	12e0001e 	beqz	s7,9d0025cc <__jend_do_scan_80+0x338>
9d002554:	27a40018 	addiu	a0,sp,24
9d002558:	13c00018 	beqz	s8,9d0025bc <__jend_do_scan_80+0x328>
9d00255c:	00000000 	nop
9d002560:	0f401bdf 	jal	9d006f7c <strtoll>
9d002564:	00000000 	nop
9d002568:	afa200d8 	sw	v0,216(sp)
9d00256c:	afa300dc 	sw	v1,220(sp)
9d002570:	8fa200c8 	lw	v0,200(sp)
9d002574:	24420001 	addiu	v0,v0,1
9d002578:	1634001e 	bne	s1,s4,9d0025f4 <__jend_do_scan_80+0x360>
9d00257c:	afa200c8 	sw	v0,200(sp)
9d002580:	2402ffff 	li	v0,-1
9d002584:	52c2fee0 	beql	s6,v0,9d002108 <do_scan+0x158>
9d002588:	02c0a825 	move	s5,s6
9d00258c:	1000fedd 	b	9d002104 <do_scan+0x154>
9d002590:	24160001 	li	s6,1
9d002594:	02e0a025 	move	s4,s7
9d002598:	10000122 	b	9d002a24 <__jend_do_scan_80+0x790>
9d00259c:	24150008 	li	s5,8
9d0025a0:	2416ffff 	li	s6,-1
9d0025a4:	2415000a 	li	s5,10
9d0025a8:	3c1e9d00 	lui	s8,0x9d00
9d0025ac:	1000011f 	b	9d002a2c <__jend_do_scan_80+0x798>
9d0025b0:	27de1fa4 	addiu	s8,s8,8100
9d0025b4:	1000ffd9 	b	9d00251c <__jend_do_scan_80+0x288>
9d0025b8:	2416ffff 	li	s6,-1
9d0025bc:	0f401dc6 	jal	9d007718 <strtoull>
9d0025c0:	00000000 	nop
9d0025c4:	1000ffe9 	b	9d00256c <__jend_do_scan_80+0x2d8>
9d0025c8:	afa200d8 	sw	v0,216(sp)
9d0025cc:	13c00005 	beqz	s8,9d0025e4 <__jend_do_scan_80+0x350>
9d0025d0:	00000000 	nop
9d0025d4:	0f401fef 	jal	9d007fbc <strtol>
9d0025d8:	00000000 	nop
9d0025dc:	1000ffe4 	b	9d002570 <__jend_do_scan_80+0x2dc>
9d0025e0:	00409025 	move	s2,v0
9d0025e4:	0f402065 	jal	9d008194 <strtoul>
9d0025e8:	00000000 	nop
9d0025ec:	1000ffe0 	b	9d002570 <__jend_do_scan_80+0x2dc>
9d0025f0:	00409025 	move	s2,v0
9d0025f4:	32160001 	andi	s6,s0,0x1
9d0025f8:	56c0fec2 	bnezl	s6,9d002104 <do_scan+0x154>
9d0025fc:	0000b025 	move	s6,zero
9d002600:	8fa200c0 	lw	v0,192(sp)
9d002604:	12e0000b 	beqz	s7,9d002634 <__jend_do_scan_80+0x3a0>
9d002608:	24430004 	addiu	v1,v0,4
9d00260c:	afa300c0 	sw	v1,192(sp)
9d002610:	8c420000 	lw	v0,0(v0)
9d002614:	8fa400d8 	lw	a0,216(sp)
9d002618:	8fa500dc 	lw	a1,220(sp)
9d00261c:	ac440000 	sw	a0,0(v0)
9d002620:	ac450004 	sw	a1,4(v0)
9d002624:	8fa200cc 	lw	v0,204(sp)
9d002628:	24420001 	addiu	v0,v0,1
9d00262c:	1000feb5 	b	9d002104 <do_scan+0x154>
9d002630:	afa200cc 	sw	v0,204(sp)
9d002634:	32040200 	andi	a0,s0,0x200
9d002638:	10800005 	beqz	a0,9d002650 <__jend_do_scan_80+0x3bc>
9d00263c:	32040100 	andi	a0,s0,0x100
9d002640:	afa300c0 	sw	v1,192(sp)
9d002644:	8c420000 	lw	v0,0(v0)
9d002648:	1000fff6 	b	9d002624 <__jend_do_scan_80+0x390>
9d00264c:	ac520000 	sw	s2,0(v0)
9d002650:	10800004 	beqz	a0,9d002664 <__jend_do_scan_80+0x3d0>
9d002654:	afa300c0 	sw	v1,192(sp)
9d002658:	8c420000 	lw	v0,0(v0)
9d00265c:	1000fff1 	b	9d002624 <__jend_do_scan_80+0x390>
9d002660:	a4520000 	sh	s2,0(v0)
9d002664:	32100080 	andi	s0,s0,0x80
9d002668:	1200fff7 	beqz	s0,9d002648 <__jend_do_scan_80+0x3b4>
9d00266c:	8c420000 	lw	v0,0(v0)
9d002670:	1000ffec 	b	9d002624 <__jend_do_scan_80+0x390>
9d002674:	a0520000 	sb	s2,0(v0)
9d002678:	27b700b4 	addiu	s7,sp,180
9d00267c:	0f40275e 	jal	9d009d78 <_eat_white>
9d002680:	02e02025 	move	a0,s7
9d002684:	1440fe9f 	bnez	v0,9d002104 <do_scan+0x154>
9d002688:	0040b025 	move	s6,v0
9d00268c:	27a20110 	addiu	v0,sp,272
9d002690:	afa200b0 	sw	v0,176(sp)
9d002694:	27a20018 	addiu	v0,sp,24
9d002698:	afa200a0 	sw	v0,160(sp)
9d00269c:	24020080 	li	v0,128
9d0026a0:	afb1009c 	sw	s1,156(sp)
9d0026a4:	afb70098 	sw	s7,152(sp)
9d0026a8:	afa000a4 	sw	zero,164(sp)
9d0026ac:	afa200a8 	sw	v0,168(sp)
9d0026b0:	12200070 	beqz	s1,9d002874 <__jend_do_scan_80+0x5e0>
9d0026b4:	afa000ac 	sw	zero,172(sp)
9d0026b8:	0f4028b9 	jal	9d00a2e4 <gsgetc>
9d0026bc:	02e02025 	move	a0,s7
9d0026c0:	0040b825 	move	s7,v0
9d0026c4:	2402ffff 	li	v0,-1
9d0026c8:	12e2006a 	beq	s7,v0,9d002874 <__jend_do_scan_80+0x5e0>
9d0026cc:	8fa2009c 	lw	v0,156(sp)
9d0026d0:	2442ffff 	addiu	v0,v0,-1
9d0026d4:	afa2009c 	sw	v0,156(sp)
9d0026d8:	2402002b 	li	v0,43
9d0026dc:	12e20003 	beq	s7,v0,9d0026ec <__jend_do_scan_80+0x458>
9d0026e0:	2402002d 	li	v0,45
9d0026e4:	16e20006 	bne	s7,v0,9d002700 <__jend_do_scan_80+0x46c>
9d0026e8:	00008825 	move	s1,zero
9d0026ec:	02e02025 	move	a0,s7
9d0026f0:	0f402590 	jal	9d009640 <putget.2903>
9d0026f4:	27af0098 	addiu	t7,sp,152
9d0026f8:	0040b825 	move	s7,v0
9d0026fc:	24110001 	li	s1,1
9d002700:	02771021 	addu	v0,s3,s7
9d002704:	90420000 	lbu	v0,0(v0)
9d002708:	30420004 	andi	v0,v0,0x4
9d00270c:	14400055 	bnez	v0,9d002864 <__jend_do_scan_80+0x5d0>
9d002710:	02e02025 	move	a0,s7
9d002714:	2402002e 	li	v0,46
9d002718:	16e2000c 	bne	s7,v0,9d00274c <__jend_do_scan_80+0x4b8>
9d00271c:	8fa200ac 	lw	v0,172(sp)
9d002720:	27af0098 	addiu	t7,sp,152
9d002724:	2404002e 	li	a0,46
9d002728:	0f402590 	jal	9d009640 <putget.2903>
9d00272c:	00000000 	nop
9d002730:	0040b825 	move	s7,v0
9d002734:	02621021 	addu	v0,s3,v0
9d002738:	90420000 	lbu	v0,0(v0)
9d00273c:	30420004 	andi	v0,v0,0x4
9d002740:	1440004f 	bnez	v0,9d002880 <__jend_do_scan_80+0x5ec>
9d002744:	27af0098 	addiu	t7,sp,152
9d002748:	8fa200ac 	lw	v0,172(sp)
9d00274c:	00511023 	subu	v0,v0,s1
9d002750:	18400016 	blez	v0,9d0027ac <__jend_do_scan_80+0x518>
9d002754:	02e01025 	move	v0,s7
9d002758:	24030045 	li	v1,69
9d00275c:	7c022944 	ins	v0,zero,0x5,0x1
9d002760:	14430013 	bne	v0,v1,9d0027b0 <__jend_do_scan_80+0x51c>
9d002764:	27af0098 	addiu	t7,sp,152
9d002768:	02e02025 	move	a0,s7
9d00276c:	0f402590 	jal	9d009640 <putget.2903>
9d002770:	27af0098 	addiu	t7,sp,152
9d002774:	0040b825 	move	s7,v0
9d002778:	2442ffd5 	addiu	v0,v0,-43
9d00277c:	7c020844 	ins	v0,zero,0x1,0x1
9d002780:	14400006 	bnez	v0,9d00279c <__jend_do_scan_80+0x508>
9d002784:	02771021 	addu	v0,s3,s7
9d002788:	02e02025 	move	a0,s7
9d00278c:	0f402590 	jal	9d009640 <putget.2903>
9d002790:	27af0098 	addiu	t7,sp,152
9d002794:	0040b825 	move	s7,v0
9d002798:	02771021 	addu	v0,s3,s7
9d00279c:	90420000 	lbu	v0,0(v0)
9d0027a0:	30420004 	andi	v0,v0,0x4
9d0027a4:	1440fff9 	bnez	v0,9d00278c <__jend_do_scan_80+0x4f8>
9d0027a8:	02e02025 	move	a0,s7
9d0027ac:	27af0098 	addiu	t7,sp,152
9d0027b0:	0f402590 	jal	9d009640 <putget.2903>
9d0027b4:	00002025 	move	a0,zero
9d0027b8:	2402ffff 	li	v0,-1
9d0027bc:	12e20008 	beq	s7,v0,9d0027e0 <__jend_do_scan_80+0x54c>
9d0027c0:	8fa2009c 	lw	v0,156(sp)
9d0027c4:	24420001 	addiu	v0,v0,1
9d0027c8:	afa2009c 	sw	v0,156(sp)
9d0027cc:	8fa20098 	lw	v0,152(sp)
9d0027d0:	8c430010 	lw	v1,16(v0)
9d0027d4:	ac570004 	sw	s7,4(v0)
9d0027d8:	2463ffff 	addiu	v1,v1,-1
9d0027dc:	ac430010 	sw	v1,16(v0)
9d0027e0:	8fa200ac 	lw	v0,172(sp)
9d0027e4:	00518823 	subu	s1,v0,s1
9d0027e8:	1a20002f 	blez	s1,9d0028a8 <__jend_do_scan_80+0x614>
9d0027ec:	8fa20098 	lw	v0,152(sp)
9d0027f0:	8c430014 	lw	v1,20(v0)
9d0027f4:	24630001 	addiu	v1,v1,1
9d0027f8:	ac430014 	sw	v1,20(v0)
9d0027fc:	32030001 	andi	v1,s0,0x1
9d002800:	14600012 	bnez	v1,9d00284c <__jend_do_scan_80+0x5b8>
9d002804:	8fa400a4 	lw	a0,164(sp)
9d002808:	8c43000c 	lw	v1,12(v0)
9d00280c:	32060400 	andi	a2,s0,0x400
9d002810:	8fa400a0 	lw	a0,160(sp)
9d002814:	10c0001c 	beqz	a2,9d002888 <__jend_do_scan_80+0x5f4>
9d002818:	24650004 	addiu	a1,v1,4
9d00281c:	ac45000c 	sw	a1,12(v0)
9d002820:	8c700000 	lw	s0,0(v1)
9d002824:	0f402a15 	jal	9d00a854 <strtod>
9d002828:	00002825 	move	a1,zero
9d00282c:	ae020000 	sw	v0,0(s0)
9d002830:	ae030004 	sw	v1,4(s0)
9d002834:	8fa30098 	lw	v1,152(sp)
9d002838:	0000b025 	move	s6,zero
9d00283c:	8c620018 	lw	v0,24(v1)
9d002840:	24420001 	addiu	v0,v0,1
9d002844:	ac620018 	sw	v0,24(v1)
9d002848:	8fa400a4 	lw	a0,164(sp)
9d00284c:	1080fe2e 	beqz	a0,9d002108 <do_scan+0x158>
9d002850:	02c0a825 	move	s5,s6
9d002854:	0f401d2c 	jal	9d0074b0 <free>
9d002858:	00000000 	nop
9d00285c:	1000fe04 	b	9d002070 <do_scan+0xc0>
9d002860:	8fa200bc 	lw	v0,188(sp)
9d002864:	0f402590 	jal	9d009640 <putget.2903>
9d002868:	27af0098 	addiu	t7,sp,152
9d00286c:	1000ffa4 	b	9d002700 <__jend_do_scan_80+0x46c>
9d002870:	0040b825 	move	s7,v0
9d002874:	00008825 	move	s1,zero
9d002878:	1000ffa1 	b	9d002700 <__jend_do_scan_80+0x46c>
9d00287c:	2417ffff 	li	s7,-1
9d002880:	1000ffa9 	b	9d002728 <__jend_do_scan_80+0x494>
9d002884:	02e02025 	move	a0,s7
9d002888:	32100200 	andi	s0,s0,0x200
9d00288c:	1600ffe4 	bnez	s0,9d002820 <__jend_do_scan_80+0x58c>
9d002890:	ac45000c 	sw	a1,12(v0)
9d002894:	8c700000 	lw	s0,0(v1)
9d002898:	0f402a1c 	jal	9d00a870 <strtof>
9d00289c:	00002825 	move	a1,zero
9d0028a0:	1000ffe4 	b	9d002834 <__jend_do_scan_80+0x5a0>
9d0028a4:	ae020000 	sw	v0,0(s0)
9d0028a8:	1000ffe7 	b	9d002848 <__jend_do_scan_80+0x5b4>
9d0028ac:	24160001 	li	s6,1
9d0028b0:	27b700b4 	addiu	s7,sp,180
9d0028b4:	0f40275e 	jal	9d009d78 <_eat_white>
9d0028b8:	02e02025 	move	a0,s7
9d0028bc:	1440fe11 	bnez	v0,9d002104 <do_scan+0x154>
9d0028c0:	0040b025 	move	s6,v0
9d0028c4:	afb70010 	sw	s7,16(sp)
9d0028c8:	02203825 	move	a3,s1
9d0028cc:	02003025 	move	a2,s0
9d0028d0:	24050001 	li	a1,1
9d0028d4:	24040001 	li	a0,1
9d0028d8:	0f401ee5 	jal	9d007b94 <_strtostr>
9d0028dc:	00000000 	nop
9d0028e0:	1000fe08 	b	9d002104 <do_scan+0x154>
9d0028e4:	0040b025 	move	s6,v0
9d0028e8:	27a200b4 	addiu	v0,sp,180
9d0028ec:	afa20010 	sw	v0,16(sp)
9d0028f0:	02203825 	move	a3,s1
9d0028f4:	02003025 	move	a2,s0
9d0028f8:	24050001 	li	a1,1
9d0028fc:	1000fff6 	b	9d0028d8 <__jend_do_scan_80+0x644>
9d002900:	24040002 	li	a0,2
9d002904:	3c027fff 	lui	v0,0x7fff
9d002908:	3442ffff 	ori	v0,v0,0xffff
9d00290c:	52220001 	beql	s1,v0,9d002914 <__jend_do_scan_80+0x680>
9d002910:	24110001 	li	s1,1
9d002914:	27a200b4 	addiu	v0,sp,180
9d002918:	afa20010 	sw	v0,16(sp)
9d00291c:	02203825 	move	a3,s1
9d002920:	02003025 	move	a2,s0
9d002924:	00002825 	move	a1,zero
9d002928:	1000ffeb 	b	9d0028d8 <__jend_do_scan_80+0x644>
9d00292c:	00002025 	move	a0,zero
9d002930:	32160001 	andi	s6,s0,0x1
9d002934:	56c0fdf3 	bnezl	s6,9d002104 <do_scan+0x154>
9d002938:	0000b025 	move	s6,zero
9d00293c:	8fa300c0 	lw	v1,192(sp)
9d002940:	32050800 	andi	a1,s0,0x800
9d002944:	8fa200c4 	lw	v0,196(sp)
9d002948:	10a00007 	beqz	a1,9d002968 <__jend_do_scan_80+0x6d4>
9d00294c:	24640004 	addiu	a0,v1,4
9d002950:	afa400c0 	sw	a0,192(sp)
9d002954:	8c630000 	lw	v1,0(v1)
9d002958:	ac620000 	sw	v0,0(v1)
9d00295c:	000217c3 	sra	v0,v0,0x1f
9d002960:	1000fde8 	b	9d002104 <do_scan+0x154>
9d002964:	ac620004 	sw	v0,4(v1)
9d002968:	32160200 	andi	s6,s0,0x200
9d00296c:	12c00005 	beqz	s6,9d002984 <__jend_do_scan_80+0x6f0>
9d002970:	32050100 	andi	a1,s0,0x100
9d002974:	afa400c0 	sw	a0,192(sp)
9d002978:	8c630000 	lw	v1,0(v1)
9d00297c:	1000fde6 	b	9d002118 <do_scan+0x168>
9d002980:	ac620000 	sw	v0,0(v1)
9d002984:	10a00004 	beqz	a1,9d002998 <__jend_do_scan_80+0x704>
9d002988:	afa400c0 	sw	a0,192(sp)
9d00298c:	8c630000 	lw	v1,0(v1)
9d002990:	1000fddc 	b	9d002104 <do_scan+0x154>
9d002994:	a4620000 	sh	v0,0(v1)
9d002998:	32160080 	andi	s6,s0,0x80
9d00299c:	12c00003 	beqz	s6,9d0029ac <__jend_do_scan_80+0x718>
9d0029a0:	8c630000 	lw	v1,0(v1)
9d0029a4:	1000fddc 	b	9d002118 <do_scan+0x168>
9d0029a8:	a0620000 	sb	v0,0(v1)
9d0029ac:	1000fdd5 	b	9d002104 <do_scan+0x154>
9d0029b0:	ac620000 	sw	v0,0(v1)
9d0029b4:	80420000 	lb	v0,0(v0)
9d0029b8:	30420088 	andi	v0,v0,0x88
9d0029bc:	10400005 	beqz	v0,9d0029d4 <__jend_do_scan_80+0x740>
9d0029c0:	27a400b4 	addiu	a0,sp,180
9d0029c4:	0f40275e 	jal	9d009d78 <_eat_white>
9d0029c8:	00000000 	nop
9d0029cc:	1000fdcd 	b	9d002104 <do_scan+0x154>
9d0029d0:	0040b025 	move	s6,v0
9d0029d4:	0f4028b9 	jal	9d00a2e4 <gsgetc>
9d0029d8:	00000000 	nop
9d0029dc:	2403ffff 	li	v1,-1
9d0029e0:	1043fdc8 	beq	v0,v1,9d002104 <do_scan+0x154>
9d0029e4:	2416ffff 	li	s6,-1
9d0029e8:	5202fdc6 	beql	s0,v0,9d002104 <do_scan+0x154>
9d0029ec:	0000b025 	move	s6,zero
9d0029f0:	afa200b8 	sw	v0,184(sp)
9d0029f4:	8fa200c4 	lw	v0,196(sp)
9d0029f8:	2442ffff 	addiu	v0,v0,-1
9d0029fc:	1000fee3 	b	9d00258c <__jend_do_scan_80+0x2f8>
9d002a00:	afa200c4 	sw	v0,196(sp)
9d002a04:	0000a025 	move	s4,zero
9d002a08:	12a0fee5 	beqz	s5,9d0025a0 <__jend_do_scan_80+0x30c>
9d002a0c:	24020010 	li	v0,16
9d002a10:	12a2fe79 	beq	s5,v0,9d0023f8 <__jend_do_scan_80+0x164>
9d002a14:	2416ffff 	li	s6,-1
9d002a18:	24020008 	li	v0,8
9d002a1c:	56a2fee3 	bnel	s5,v0,9d0025ac <__jend_do_scan_80+0x318>
9d002a20:	3c1e9d00 	lui	s8,0x9d00
9d002a24:	3c1e9d00 	lui	s8,0x9d00
9d002a28:	27de1f98 	addiu	s8,s8,8088
9d002a2c:	1000feb3 	b	9d0024fc <__jend_do_scan_80+0x268>
9d002a30:	2417ffff 	li	s7,-1
9d002a34:	1000fff4 	b	9d002a08 <__jend_do_scan_80+0x774>
9d002a38:	0220a025 	move	s4,s1

Disassembly of section .text._do_print_cdfFnopuxX:

9d002a3c <_do_print_cdfFnopuxX>:
9d002a3c:	8c820018 	lw	v0,24(a0)
9d002a40:	27bdff50 	addiu	sp,sp,-176
9d002a44:	afb600a0 	sw	s6,160(sp)
9d002a48:	8c420010 	lw	v0,16(v0)
9d002a4c:	afb30094 	sw	s3,148(sp)
9d002a50:	afb20090 	sw	s2,144(sp)
9d002a54:	afbf00ac 	sw	ra,172(sp)
9d002a58:	afbe00a8 	sw	s8,168(sp)
9d002a5c:	afb700a4 	sw	s7,164(sp)
9d002a60:	afb5009c 	sw	s5,156(sp)
9d002a64:	afb40098 	sw	s4,152(sp)
9d002a68:	afb1008c 	sw	s1,140(sp)
9d002a6c:	afb00088 	sw	s0,136(sp)
9d002a70:	00a0b025 	move	s6,a1
9d002a74:	24050001 	li	a1,1
9d002a78:	00809025 	move	s2,a0
9d002a7c:	0040f809 	jalr	v0
9d002a80:	00c09825 	move	s3,a2
9d002a84:	104001d6 	beqz	v0,9d0031e0 <_do_print_cdfFnopuxX+0x7a4>
9d002a88:	3c159d00 	lui	s5,0x9d00
9d002a8c:	26a21f60 	addiu	v0,s5,8032
9d002a90:	00008825 	move	s1,zero
9d002a94:	afa20070 	sw	v0,112(sp)
9d002a98:	82c40000 	lb	a0,0(s6)
9d002a9c:	108001cc 	beqz	a0,9d0031d0 <_do_print_cdfFnopuxX+0x794>
9d002aa0:	26d00001 	addiu	s0,s6,1
9d002aa4:	24020025 	li	v0,37
9d002aa8:	50820006 	beql	a0,v0,9d002ac4 <_do_print_cdfFnopuxX+0x88>
9d002aac:	82c70001 	lb	a3,1(s6)
9d002ab0:	0f402644 	jal	9d009910 <fputc>
9d002ab4:	02402825 	move	a1,s2
9d002ab8:	26310001 	addiu	s1,s1,1
9d002abc:	1000fff6 	b	9d002a98 <_do_print_cdfFnopuxX+0x5c>
9d002ac0:	0200b025 	move	s6,s0
9d002ac4:	10e4000b 	beq	a3,a0,9d002af4 <_do_print_cdfFnopuxX+0xb8>
9d002ac8:	00004025 	move	t0,zero
9d002acc:	2403002d 	li	v1,45
9d002ad0:	24040020 	li	a0,32
9d002ad4:	24050023 	li	a1,35
9d002ad8:	24060030 	li	a2,48
9d002adc:	14e3000a 	bne	a3,v1,9d002b08 <_do_print_cdfFnopuxX+0xcc>
9d002ae0:	26020001 	addiu	v0,s0,1
9d002ae4:	35080008 	ori	t0,t0,0x8
9d002ae8:	00408025 	move	s0,v0
9d002aec:	1000fffb 	b	9d002adc <_do_print_cdfFnopuxX+0xa0>
9d002af0:	80470000 	lb	a3,0(v0)
9d002af4:	02402825 	move	a1,s2
9d002af8:	0f402644 	jal	9d009910 <fputc>
9d002afc:	24040025 	li	a0,37
9d002b00:	1000ffed 	b	9d002ab8 <_do_print_cdfFnopuxX+0x7c>
9d002b04:	26d00002 	addiu	s0,s6,2
9d002b08:	2409002b 	li	t1,43
9d002b0c:	14e90003 	bne	a3,t1,9d002b1c <_do_print_cdfFnopuxX+0xe0>
9d002b10:	00000000 	nop
9d002b14:	1000fff4 	b	9d002ae8 <_do_print_cdfFnopuxX+0xac>
9d002b18:	35080002 	ori	t0,t0,0x2
9d002b1c:	14e40003 	bne	a3,a0,9d002b2c <_do_print_cdfFnopuxX+0xf0>
9d002b20:	00000000 	nop
9d002b24:	1000fff0 	b	9d002ae8 <_do_print_cdfFnopuxX+0xac>
9d002b28:	35080001 	ori	t0,t0,0x1
9d002b2c:	14e50003 	bne	a3,a1,9d002b3c <_do_print_cdfFnopuxX+0x100>
9d002b30:	00000000 	nop
9d002b34:	1000ffec 	b	9d002ae8 <_do_print_cdfFnopuxX+0xac>
9d002b38:	35080800 	ori	t0,t0,0x800
9d002b3c:	54e60003 	bnel	a3,a2,9d002b4c <_do_print_cdfFnopuxX+0x110>
9d002b40:	2403002a 	li	v1,42
9d002b44:	1000ffe8 	b	9d002ae8 <_do_print_cdfFnopuxX+0xac>
9d002b48:	35080004 	ori	t0,t0,0x4
9d002b4c:	14e30023 	bne	a3,v1,9d002bdc <_do_print_cdfFnopuxX+0x1a0>
9d002b50:	26760004 	addiu	s6,s3,4
9d002b54:	8e750000 	lw	s5,0(s3)
9d002b58:	06a00024 	bltz	s5,9d002bec <_do_print_cdfFnopuxX+0x1b0>
9d002b5c:	82070001 	lb	a3,1(s0)
9d002b60:	2403002e 	li	v1,46
9d002b64:	14e30029 	bne	a3,v1,9d002c0c <_do_print_cdfFnopuxX+0x1d0>
9d002b68:	2414ffff 	li	s4,-1
9d002b6c:	80470001 	lb	a3,1(v0)
9d002b70:	2403002a 	li	v1,42
9d002b74:	50e30020 	beql	a3,v1,9d002bf8 <_do_print_cdfFnopuxX+0x1bc>
9d002b78:	8ec30000 	lw	v1,0(s6)
9d002b7c:	24420001 	addiu	v0,v0,1
9d002b80:	0000a025 	move	s4,zero
9d002b84:	2406000a 	li	a2,10
9d002b88:	24e3ffd0 	addiu	v1,a3,-48
9d002b8c:	2c63000a 	sltiu	v1,v1,10
9d002b90:	1060001e 	beqz	v1,9d002c0c <_do_print_cdfFnopuxX+0x1d0>
9d002b94:	24440001 	addiu	a0,v0,1
9d002b98:	72861802 	mul	v1,s4,a2
9d002b9c:	00674821 	addu	t1,v1,a3
9d002ba0:	2534ffd0 	addiu	s4,t1,-48
9d002ba4:	80470001 	lb	a3,1(v0)
9d002ba8:	1000fff7 	b	9d002b88 <_do_print_cdfFnopuxX+0x14c>
9d002bac:	00801025 	move	v0,a0
9d002bb0:	72a51802 	mul	v1,s5,a1
9d002bb4:	00675821 	addu	t3,v1,a3
9d002bb8:	2575ffd0 	addiu	s5,t3,-48
9d002bbc:	80470001 	lb	a3,1(v0)
9d002bc0:	00801025 	move	v0,a0
9d002bc4:	24e3ffd0 	addiu	v1,a3,-48
9d002bc8:	2c63000a 	sltiu	v1,v1,10
9d002bcc:	1460fff8 	bnez	v1,9d002bb0 <_do_print_cdfFnopuxX+0x174>
9d002bd0:	24440001 	addiu	a0,v0,1
9d002bd4:	1000ffe2 	b	9d002b60 <_do_print_cdfFnopuxX+0x124>
9d002bd8:	0260b025 	move	s6,s3
9d002bdc:	02001025 	move	v0,s0
9d002be0:	0000a825 	move	s5,zero
9d002be4:	1000fff7 	b	9d002bc4 <_do_print_cdfFnopuxX+0x188>
9d002be8:	2405000a 	li	a1,10
9d002bec:	35080008 	ori	t0,t0,0x8
9d002bf0:	1000ffdb 	b	9d002b60 <_do_print_cdfFnopuxX+0x124>
9d002bf4:	0015a823 	negu	s5,s5
9d002bf8:	80470002 	lb	a3,2(v0)
9d002bfc:	26d60004 	addiu	s6,s6,4
9d002c00:	28640000 	slti	a0,v1,0
9d002c04:	0064a00a 	movz	s4,v1,a0
9d002c08:	24420002 	addiu	v0,v0,2
9d002c0c:	24030068 	li	v1,104
9d002c10:	14e30022 	bne	a3,v1,9d002c9c <_do_print_cdfFnopuxX+0x260>
9d002c14:	24500001 	addiu	s0,v0,1
9d002c18:	80430001 	lb	v1,1(v0)
9d002c1c:	54670003 	bnel	v1,a3,9d002c2c <_do_print_cdfFnopuxX+0x1f0>
9d002c20:	35080040 	ori	t0,t0,0x40
9d002c24:	35080001 	ori	t0,t0,0x1
9d002c28:	02001025 	move	v0,s0
9d002c2c:	24500001 	addiu	s0,v0,1
9d002c30:	80470001 	lb	a3,1(v0)
9d002c34:	31020002 	andi	v0,t0,0x2
9d002c38:	10400002 	beqz	v0,9d002c44 <_do_print_cdfFnopuxX+0x208>
9d002c3c:	26100001 	addiu	s0,s0,1
9d002c40:	3108fffe 	andi	t0,t0,0xfffe
9d002c44:	31020008 	andi	v0,t0,0x8
9d002c48:	54400001 	bnezl	v0,9d002c50 <_do_print_cdfFnopuxX+0x214>
9d002c4c:	3108fffb 	andi	t0,t0,0xfffb
9d002c50:	24020064 	li	v0,100
9d002c54:	10e2009e 	beq	a3,v0,9d002ed0 <_do_print_cdfFnopuxX+0x494>
9d002c58:	28e20065 	slti	v0,a3,101
9d002c5c:	10400029 	beqz	v0,9d002d04 <_do_print_cdfFnopuxX+0x2c8>
9d002c60:	2402006f 	li	v0,111
9d002c64:	24020050 	li	v0,80
9d002c68:	10e200a3 	beq	a3,v0,9d002ef8 <_do_print_cdfFnopuxX+0x4bc>
9d002c6c:	28e20051 	slti	v0,a3,81
9d002c70:	1040001a 	beqz	v0,9d002cdc <_do_print_cdfFnopuxX+0x2a0>
9d002c74:	24020058 	li	v0,88
9d002c78:	24020046 	li	v0,70
9d002c7c:	10e2011d 	beq	a3,v0,9d0030f4 <_do_print_cdfFnopuxX+0x6b8>
9d002c80:	2402004f 	li	v0,79
9d002c84:	10e20096 	beq	a3,v0,9d002ee0 <_do_print_cdfFnopuxX+0x4a4>
9d002c88:	24020044 	li	v0,68
9d002c8c:	50e20090 	beql	a3,v0,9d002ed0 <_do_print_cdfFnopuxX+0x494>
9d002c90:	35080010 	ori	t0,t0,0x10
9d002c94:	10000038 	b	9d002d78 <_do_print_cdfFnopuxX+0x33c>
9d002c98:	00001025 	move	v0,zero
9d002c9c:	2403006c 	li	v1,108
9d002ca0:	14e30006 	bne	a3,v1,9d002cbc <_do_print_cdfFnopuxX+0x280>
9d002ca4:	24030071 	li	v1,113
9d002ca8:	80430001 	lb	v1,1(v0)
9d002cac:	5467ffdf 	bnel	v1,a3,9d002c2c <_do_print_cdfFnopuxX+0x1f0>
9d002cb0:	35080010 	ori	t0,t0,0x10
9d002cb4:	1000ffdc 	b	9d002c28 <_do_print_cdfFnopuxX+0x1ec>
9d002cb8:	35088000 	ori	t0,t0,0x8000
9d002cbc:	54e30003 	bnel	a3,v1,9d002ccc <_do_print_cdfFnopuxX+0x290>
9d002cc0:	2403004c 	li	v1,76
9d002cc4:	1000ffda 	b	9d002c30 <_do_print_cdfFnopuxX+0x1f4>
9d002cc8:	35088000 	ori	t0,t0,0x8000
9d002ccc:	54e3ffd9 	bnel	a3,v1,9d002c34 <_do_print_cdfFnopuxX+0x1f8>
9d002cd0:	00408025 	move	s0,v0
9d002cd4:	1000ffd6 	b	9d002c30 <_do_print_cdfFnopuxX+0x1f4>
9d002cd8:	35080080 	ori	t0,t0,0x80
9d002cdc:	10e20083 	beq	a3,v0,9d002eec <_do_print_cdfFnopuxX+0x4b0>
9d002ce0:	24020063 	li	v0,99
9d002ce4:	50e20105 	beql	a3,v0,9d0030fc <_do_print_cdfFnopuxX+0x6c0>
9d002ce8:	8ec20000 	lw	v0,0(s6)
9d002cec:	24020055 	li	v0,85
9d002cf0:	14e20021 	bne	a3,v0,9d002d78 <_do_print_cdfFnopuxX+0x33c>
9d002cf4:	00001025 	move	v0,zero
9d002cf8:	35080010 	ori	t0,t0,0x10
9d002cfc:	10000076 	b	9d002ed8 <_do_print_cdfFnopuxX+0x49c>
9d002d00:	3108f7ff 	andi	t0,t0,0xf7ff
9d002d04:	10e20077 	beq	a3,v0,9d002ee4 <_do_print_cdfFnopuxX+0x4a8>
9d002d08:	28e20070 	slti	v0,a3,112
9d002d0c:	1040001d 	beqz	v0,9d002d84 <_do_print_cdfFnopuxX+0x348>
9d002d10:	24020073 	li	v0,115
9d002d14:	24020069 	li	v0,105
9d002d18:	10e2006d 	beq	a3,v0,9d002ed0 <_do_print_cdfFnopuxX+0x494>
9d002d1c:	2402006e 	li	v0,110
9d002d20:	10e20116 	beq	a3,v0,9d00317c <_do_print_cdfFnopuxX+0x740>
9d002d24:	24020066 	li	v0,102
9d002d28:	14e20013 	bne	a3,v0,9d002d78 <_do_print_cdfFnopuxX+0x33c>
9d002d2c:	00001025 	move	v0,zero
9d002d30:	26d60007 	addiu	s6,s6,7
9d002d34:	7c161004 	ins	s6,zero,0x0,0x3
9d002d38:	8ec20000 	lw	v0,0(s6)
9d002d3c:	8ec30004 	lw	v1,4(s6)
9d002d40:	35040400 	ori	a0,t0,0x400
9d002d44:	afa20060 	sw	v0,96(sp)
9d002d48:	afa30064 	sw	v1,100(sp)
9d002d4c:	8fa20060 	lw	v0,96(sp)
9d002d50:	8fa30064 	lw	v1,100(sp)
9d002d54:	afa4001c 	sw	a0,28(sp)
9d002d58:	afa70010 	sw	a3,16(sp)
9d002d5c:	afb40018 	sw	s4,24(sp)
9d002d60:	afb50014 	sw	s5,20(sp)
9d002d64:	00403025 	move	a2,v0
9d002d68:	00603825 	move	a3,v1
9d002d6c:	02402025 	move	a0,s2
9d002d70:	0f400faa 	jal	9d003ea8 <_fconvert>
9d002d74:	26d60008 	addiu	s6,s6,8
9d002d78:	02228821 	addu	s1,s1,v0
9d002d7c:	1000ff4f 	b	9d002abc <_do_print_cdfFnopuxX+0x80>
9d002d80:	02c09825 	move	s3,s6
9d002d84:	10e200e4 	beq	a3,v0,9d003118 <_do_print_cdfFnopuxX+0x6dc>
9d002d88:	28e20074 	slti	v0,a3,116
9d002d8c:	10400006 	beqz	v0,9d002da8 <_do_print_cdfFnopuxX+0x36c>
9d002d90:	24020075 	li	v0,117
9d002d94:	24020070 	li	v0,112
9d002d98:	14e2fff7 	bne	a3,v0,9d002d78 <_do_print_cdfFnopuxX+0x33c>
9d002d9c:	00001025 	move	v0,zero
9d002da0:	10000053 	b	9d002ef0 <_do_print_cdfFnopuxX+0x4b4>
9d002da4:	35080810 	ori	t0,t0,0x810
9d002da8:	10e2ffd4 	beq	a3,v0,9d002cfc <_do_print_cdfFnopuxX+0x2c0>
9d002dac:	24020078 	li	v0,120
9d002db0:	14e2ffb8 	bne	a3,v0,9d002c94 <_do_print_cdfFnopuxX+0x258>
9d002db4:	24170010 	li	s7,16
9d002db8:	2402ffff 	li	v0,-1
9d002dbc:	52820002 	beql	s4,v0,9d002dc8 <_do_print_cdfFnopuxX+0x38c>
9d002dc0:	24140001 	li	s4,1
9d002dc4:	3108fffb 	andi	t0,t0,0xfffb
9d002dc8:	310d00c0 	andi	t5,t0,0xc0
9d002dcc:	11a00055 	beqz	t5,9d002f24 <_do_print_cdfFnopuxX+0x4e8>
9d002dd0:	7c081620 	seh	v0,t0
9d002dd4:	0441004a 	bgez	v0,9d002f00 <_do_print_cdfFnopuxX+0x4c4>
9d002dd8:	31020010 	andi	v0,t0,0x10
9d002ddc:	26d60007 	addiu	s6,s6,7
9d002de0:	7c161004 	ins	s6,zero,0x0,0x3
9d002de4:	8ed80000 	lw	t8,0(s6)
9d002de8:	8ed90004 	lw	t9,4(s6)
9d002dec:	26d30008 	addiu	s3,s6,8
9d002df0:	07210007 	bgez	t9,9d002e10 <_do_print_cdfFnopuxX+0x3d4>
9d002df4:	0000f025 	move	s8,zero
9d002df8:	00181023 	negu	v0,t8
9d002dfc:	0002202b 	sltu	a0,zero,v0
9d002e00:	0019c823 	negu	t9,t9
9d002e04:	0040c025 	move	t8,v0
9d002e08:	0324c823 	subu	t9,t9,a0
9d002e0c:	241e0001 	li	s8,1
9d002e10:	13200050 	beqz	t9,9d002f54 <_do_print_cdfFnopuxX+0x518>
9d002e14:	310e0020 	andi	t6,t0,0x20
9d002e18:	24160037 	li	s6,55
9d002e1c:	24020057 	li	v0,87
9d002e20:	02ce100b 	movn	v0,s6,t6
9d002e24:	afa2006c 	sw	v0,108(sp)
9d002e28:	001717c3 	sra	v0,s7,0x1f
9d002e2c:	27b6005f 	addiu	s6,sp,95
9d002e30:	afa20068 	sw	v0,104(sp)
9d002e34:	03191025 	or	v0,t8,t9
9d002e38:	1040004d 	beqz	v0,9d002f70 <_do_print_cdfFnopuxX+0x534>
9d002e3c:	8fa70068 	lw	a3,104(sp)
9d002e40:	03002025 	move	a0,t8
9d002e44:	03202825 	move	a1,t9
9d002e48:	02e03025 	move	a2,s7
9d002e4c:	afae0084 	sw	t6,132(sp)
9d002e50:	afad0080 	sw	t5,128(sp)
9d002e54:	afa8007c 	sw	t0,124(sp)
9d002e58:	afb80078 	sw	t8,120(sp)
9d002e5c:	0f4016c0 	jal	9d005b00 <__umoddi3>
9d002e60:	afb90074 	sw	t9,116(sp)
9d002e64:	8fa3006c 	lw	v1,108(sp)
9d002e68:	2844000a 	slti	a0,v0,10
9d002e6c:	8fb90074 	lw	t9,116(sp)
9d002e70:	00431821 	addu	v1,v0,v1
9d002e74:	8fb80078 	lw	t8,120(sp)
9d002e78:	8fa8007c 	lw	t0,124(sp)
9d002e7c:	8fad0080 	lw	t5,128(sp)
9d002e80:	10800002 	beqz	a0,9d002e8c <_do_print_cdfFnopuxX+0x450>
9d002e84:	8fae0084 	lw	t6,132(sp)
9d002e88:	24430030 	addiu	v1,v0,48
9d002e8c:	8fa70068 	lw	a3,104(sp)
9d002e90:	26d6ffff 	addiu	s6,s6,-1
9d002e94:	03002025 	move	a0,t8
9d002e98:	03202825 	move	a1,t9
9d002e9c:	a2c30001 	sb	v1,1(s6)
9d002ea0:	02e03025 	move	a2,s7
9d002ea4:	afae007c 	sw	t6,124(sp)
9d002ea8:	afad0078 	sw	t5,120(sp)
9d002eac:	0f4017be 	jal	9d005ef8 <__udivdi3>
9d002eb0:	afa80074 	sw	t0,116(sp)
9d002eb4:	0040c025 	move	t8,v0
9d002eb8:	0060c825 	move	t9,v1
9d002ebc:	2694ffff 	addiu	s4,s4,-1
9d002ec0:	8fae007c 	lw	t6,124(sp)
9d002ec4:	8fad0078 	lw	t5,120(sp)
9d002ec8:	1000ffda 	b	9d002e34 <_do_print_cdfFnopuxX+0x3f8>
9d002ecc:	8fa80074 	lw	t0,116(sp)
9d002ed0:	3108f7ff 	andi	t0,t0,0xf7ff
9d002ed4:	350800c0 	ori	t0,t0,0xc0
9d002ed8:	1000ffb7 	b	9d002db8 <_do_print_cdfFnopuxX+0x37c>
9d002edc:	2417000a 	li	s7,10
9d002ee0:	35080010 	ori	t0,t0,0x10
9d002ee4:	1000ffb4 	b	9d002db8 <_do_print_cdfFnopuxX+0x37c>
9d002ee8:	24170008 	li	s7,8
9d002eec:	35080020 	ori	t0,t0,0x20
9d002ef0:	1000ffb1 	b	9d002db8 <_do_print_cdfFnopuxX+0x37c>
9d002ef4:	24170010 	li	s7,16
9d002ef8:	1000ffa9 	b	9d002da0 <_do_print_cdfFnopuxX+0x364>
9d002efc:	35080020 	ori	t0,t0,0x20
9d002f00:	10400004 	beqz	v0,9d002f14 <_do_print_cdfFnopuxX+0x4d8>
9d002f04:	26d30004 	addiu	s3,s6,4
9d002f08:	8ed80000 	lw	t8,0(s6)
9d002f0c:	1000ffb8 	b	9d002df0 <_do_print_cdfFnopuxX+0x3b4>
9d002f10:	0018cfc3 	sra	t9,t8,0x1f
9d002f14:	8ec20000 	lw	v0,0(s6)
9d002f18:	0040c025 	move	t8,v0
9d002f1c:	1000ffb4 	b	9d002df0 <_do_print_cdfFnopuxX+0x3b4>
9d002f20:	0002cfc3 	sra	t9,v0,0x1f
9d002f24:	04430008 	bgezl	v0,9d002f48 <_do_print_cdfFnopuxX+0x50c>
9d002f28:	26d30004 	addiu	s3,s6,4
9d002f2c:	26d60007 	addiu	s6,s6,7
9d002f30:	7c161004 	ins	s6,zero,0x0,0x3
9d002f34:	8ed80000 	lw	t8,0(s6)
9d002f38:	8ed90004 	lw	t9,4(s6)
9d002f3c:	26d30008 	addiu	s3,s6,8
9d002f40:	1000ffb3 	b	9d002e10 <_do_print_cdfFnopuxX+0x3d4>
9d002f44:	0000f025 	move	s8,zero
9d002f48:	8ed80000 	lw	t8,0(s6)
9d002f4c:	1000fffc 	b	9d002f40 <_do_print_cdfFnopuxX+0x504>
9d002f50:	0000c825 	move	t9,zero
9d002f54:	24030037 	li	v1,55
9d002f58:	24040057 	li	a0,87
9d002f5c:	03001025 	move	v0,t8
9d002f60:	008e180a 	movz	v1,a0,t6
9d002f64:	27b6005f 	addiu	s6,sp,95
9d002f68:	14400004 	bnez	v0,9d002f7c <_do_print_cdfFnopuxX+0x540>
9d002f6c:	00000000 	nop
9d002f70:	02c01025 	move	v0,s6
9d002f74:	1000000d 	b	9d002fac <_do_print_cdfFnopuxX+0x570>
9d002f78:	24040030 	li	a0,48
9d002f7c:	0057001b 	divu	zero,v0,s7
9d002f80:	02e001f4 	teq	s7,zero,0x7
9d002f84:	00002010 	mfhi	a0
9d002f88:	2c86000a 	sltiu	a2,a0,10
9d002f8c:	00832821 	addu	a1,a0,v1
9d002f90:	10c00002 	beqz	a2,9d002f9c <_do_print_cdfFnopuxX+0x560>
9d002f94:	00001012 	mflo	v0
9d002f98:	24850030 	addiu	a1,a0,48
9d002f9c:	26d6ffff 	addiu	s6,s6,-1
9d002fa0:	a2c50001 	sb	a1,1(s6)
9d002fa4:	1000fff0 	b	9d002f68 <_do_print_cdfFnopuxX+0x52c>
9d002fa8:	2694ffff 	addiu	s4,s4,-1
9d002fac:	2442ffff 	addiu	v0,v0,-1
9d002fb0:	02821821 	addu	v1,s4,v0
9d002fb4:	00761823 	subu	v1,v1,s6
9d002fb8:	0463fffc 	bgezl	v1,9d002fac <_do_print_cdfFnopuxX+0x570>
9d002fbc:	a0440001 	sb	a0,1(v0)
9d002fc0:	2a850000 	slti	a1,s4,0
9d002fc4:	0005a00b 	movn	s4,zero,a1
9d002fc8:	31020004 	andi	v0,t0,0x4
9d002fcc:	02d42823 	subu	a1,s6,s4
9d002fd0:	10400022 	beqz	v0,9d00305c <_do_print_cdfFnopuxX+0x620>
9d002fd4:	31060800 	andi	a2,t0,0x800
9d002fd8:	27a2005f 	addiu	v0,sp,95
9d002fdc:	00451023 	subu	v0,v0,a1
9d002fe0:	10c00008 	beqz	a2,9d003004 <_do_print_cdfFnopuxX+0x5c8>
9d002fe4:	02a21023 	subu	v0,s5,v0
9d002fe8:	24030008 	li	v1,8
9d002fec:	16e3000f 	bne	s7,v1,9d00302c <_do_print_cdfFnopuxX+0x5f0>
9d002ff0:	24030010 	li	v1,16
9d002ff4:	80a40001 	lb	a0,1(a1)
9d002ff8:	24030030 	li	v1,48
9d002ffc:	54830001 	bnel	a0,v1,9d003004 <_do_print_cdfFnopuxX+0x5c8>
9d003000:	2442ffff 	addiu	v0,v0,-1
9d003004:	11a00007 	beqz	t5,9d003024 <_do_print_cdfFnopuxX+0x5e8>
9d003008:	00a01825 	move	v1,a1
9d00300c:	57c00005 	bnezl	s8,9d003024 <_do_print_cdfFnopuxX+0x5e8>
9d003010:	2442ffff 	addiu	v0,v0,-1
9d003014:	31030003 	andi	v1,t0,0x3
9d003018:	10600002 	beqz	v1,9d003024 <_do_print_cdfFnopuxX+0x5e8>
9d00301c:	00a01825 	move	v1,a1
9d003020:	2442ffff 	addiu	v0,v0,-1
9d003024:	10000005 	b	9d00303c <_do_print_cdfFnopuxX+0x600>
9d003028:	24070030 	li	a3,48
9d00302c:	52e3fff5 	beql	s7,v1,9d003004 <_do_print_cdfFnopuxX+0x5c8>
9d003030:	2442fffe 	addiu	v0,v0,-2
9d003034:	1000fff3 	b	9d003004 <_do_print_cdfFnopuxX+0x5c8>
9d003038:	00000000 	nop
9d00303c:	2463ffff 	addiu	v1,v1,-1
9d003040:	00652023 	subu	a0,v1,a1
9d003044:	00822021 	addu	a0,a0,v0
9d003048:	0483fffc 	bgezl	a0,9d00303c <_do_print_cdfFnopuxX+0x600>
9d00304c:	a0670001 	sb	a3,1(v1)
9d003050:	28430000 	slti	v1,v0,0
9d003054:	0003100b 	movn	v0,zero,v1
9d003058:	00a22823 	subu	a1,a1,v0
9d00305c:	10c00009 	beqz	a2,9d003084 <_do_print_cdfFnopuxX+0x648>
9d003060:	24020008 	li	v0,8
9d003064:	16e2001a 	bne	s7,v0,9d0030d0 <_do_print_cdfFnopuxX+0x694>
9d003068:	24020010 	li	v0,16
9d00306c:	80a30001 	lb	v1,1(a1)
9d003070:	24020030 	li	v0,48
9d003074:	10620003 	beq	v1,v0,9d003084 <_do_print_cdfFnopuxX+0x648>
9d003078:	00000000 	nop
9d00307c:	a0a20000 	sb	v0,0(a1)
9d003080:	24a5ffff 	addiu	a1,a1,-1
9d003084:	51a0000a 	beqzl	t5,9d0030b0 <_do_print_cdfFnopuxX+0x674>
9d003088:	24a50001 	addiu	a1,a1,1
9d00308c:	17c00005 	bnez	s8,9d0030a4 <_do_print_cdfFnopuxX+0x668>
9d003090:	2402002d 	li	v0,45
9d003094:	31020002 	andi	v0,t0,0x2
9d003098:	50400005 	beqzl	v0,9d0030b0 <_do_print_cdfFnopuxX+0x674>
9d00309c:	24a50001 	addiu	a1,a1,1
9d0030a0:	2402002b 	li	v0,43
9d0030a4:	a0a20000 	sb	v0,0(a1)
9d0030a8:	24a5ffff 	addiu	a1,a1,-1
9d0030ac:	24a50001 	addiu	a1,a1,1
9d0030b0:	27a60060 	addiu	a2,sp,96
9d0030b4:	afa80010 	sw	t0,16(sp)
9d0030b8:	02a03825 	move	a3,s5
9d0030bc:	00c53023 	subu	a2,a2,a1
9d0030c0:	0f402524 	jal	9d009490 <_outcnvrt>
9d0030c4:	02402025 	move	a0,s2
9d0030c8:	1000ff2b 	b	9d002d78 <_do_print_cdfFnopuxX+0x33c>
9d0030cc:	0260b025 	move	s6,s3
9d0030d0:	16e2ffec 	bne	s7,v0,9d003084 <_do_print_cdfFnopuxX+0x648>
9d0030d4:	24030058 	li	v1,88
9d0030d8:	24020078 	li	v0,120
9d0030dc:	006e100b 	movn	v0,v1,t6
9d0030e0:	a0a20000 	sb	v0,0(a1)
9d0030e4:	24020030 	li	v0,48
9d0030e8:	a0a2ffff 	sb	v0,-1(a1)
9d0030ec:	1000ffe5 	b	9d003084 <_do_print_cdfFnopuxX+0x648>
9d0030f0:	24a5fffe 	addiu	a1,a1,-2
9d0030f4:	1000ff0e 	b	9d002d30 <_do_print_cdfFnopuxX+0x2f4>
9d0030f8:	35080020 	ori	t0,t0,0x20
9d0030fc:	26d30004 	addiu	s3,s6,4
9d003100:	afa80010 	sw	t0,16(sp)
9d003104:	a3a20020 	sb	v0,32(sp)
9d003108:	02a03825 	move	a3,s5
9d00310c:	24060001 	li	a2,1
9d003110:	1000ffeb 	b	9d0030c0 <_do_print_cdfFnopuxX+0x684>
9d003114:	27a50020 	addiu	a1,sp,32
9d003118:	8fa20070 	lw	v0,112(sp)
9d00311c:	26d30004 	addiu	s3,s6,4
9d003120:	8ed60000 	lw	s6,0(s6)
9d003124:	0056b00a 	movz	s6,v0,s6
9d003128:	2402ffff 	li	v0,-1
9d00312c:	1282000a 	beq	s4,v0,9d003158 <_do_print_cdfFnopuxX+0x71c>
9d003130:	02c02025 	move	a0,s6
9d003134:	02d44821 	addu	t1,s6,s4
9d003138:	02c01025 	move	v0,s6
9d00313c:	5049000b 	beql	v0,t1,9d00316c <_do_print_cdfFnopuxX+0x730>
9d003140:	afa80010 	sw	t0,16(sp)
9d003144:	80430000 	lb	v1,0(v0)
9d003148:	50600008 	beqzl	v1,9d00316c <_do_print_cdfFnopuxX+0x730>
9d00314c:	afa80010 	sw	t0,16(sp)
9d003150:	1000fffa 	b	9d00313c <_do_print_cdfFnopuxX+0x700>
9d003154:	24420001 	addiu	v0,v0,1
9d003158:	0f4028a2 	jal	9d00a288 <strlen>
9d00315c:	afa80068 	sw	t0,104(sp)
9d003160:	8fa80068 	lw	t0,104(sp)
9d003164:	02c21021 	addu	v0,s6,v0
9d003168:	afa80010 	sw	t0,16(sp)
9d00316c:	02a03825 	move	a3,s5
9d003170:	00563023 	subu	a2,v0,s6
9d003174:	1000ffd2 	b	9d0030c0 <_do_print_cdfFnopuxX+0x684>
9d003178:	02c02825 	move	a1,s6
9d00317c:	7c081e20 	seh	v1,t0
9d003180:	8ec20000 	lw	v0,0(s6)
9d003184:	04610005 	bgez	v1,9d00319c <_do_print_cdfFnopuxX+0x760>
9d003188:	26d60004 	addiu	s6,s6,4
9d00318c:	00111fc3 	sra	v1,s1,0x1f
9d003190:	ac510000 	sw	s1,0(v0)
9d003194:	1000febf 	b	9d002c94 <_do_print_cdfFnopuxX+0x258>
9d003198:	ac430004 	sw	v1,4(v0)
9d00319c:	31030010 	andi	v1,t0,0x10
9d0031a0:	10600003 	beqz	v1,9d0031b0 <_do_print_cdfFnopuxX+0x774>
9d0031a4:	31030040 	andi	v1,t0,0x40
9d0031a8:	1000feba 	b	9d002c94 <_do_print_cdfFnopuxX+0x258>
9d0031ac:	ac510000 	sw	s1,0(v0)
9d0031b0:	50600003 	beqzl	v1,9d0031c0 <_do_print_cdfFnopuxX+0x784>
9d0031b4:	31080001 	andi	t0,t0,0x1
9d0031b8:	1000feb6 	b	9d002c94 <_do_print_cdfFnopuxX+0x258>
9d0031bc:	a4510000 	sh	s1,0(v0)
9d0031c0:	5100feb4 	beqzl	t0,9d002c94 <_do_print_cdfFnopuxX+0x258>
9d0031c4:	ac510000 	sw	s1,0(v0)
9d0031c8:	1000feb2 	b	9d002c94 <_do_print_cdfFnopuxX+0x258>
9d0031cc:	a0510000 	sb	s1,0(v0)
9d0031d0:	96420010 	lhu	v0,16(s2)
9d0031d4:	30420040 	andi	v0,v0,0x40
9d0031d8:	10400003 	beqz	v0,9d0031e8 <_do_print_cdfFnopuxX+0x7ac>
9d0031dc:	8fbf00ac 	lw	ra,172(sp)
9d0031e0:	2411ffff 	li	s1,-1
9d0031e4:	8fbf00ac 	lw	ra,172(sp)
9d0031e8:	02201025 	move	v0,s1
9d0031ec:	8fbe00a8 	lw	s8,168(sp)
9d0031f0:	8fb700a4 	lw	s7,164(sp)
9d0031f4:	8fb600a0 	lw	s6,160(sp)
9d0031f8:	8fb5009c 	lw	s5,156(sp)
9d0031fc:	8fb40098 	lw	s4,152(sp)
9d003200:	8fb30094 	lw	s3,148(sp)
9d003204:	8fb20090 	lw	s2,144(sp)
9d003208:	8fb1008c 	lw	s1,140(sp)
9d00320c:	8fb00088 	lw	s0,136(sp)
9d003210:	03e00008 	jr	ra
9d003214:	27bd00b0 	addiu	sp,sp,176

Disassembly of section .text.malloc:

9d003218 <malloc>:
9d003218:	27bdffc0 	addiu	sp,sp,-64
9d00321c:	afb00018 	sw	s0,24(sp)
9d003220:	2490000b 	addiu	s0,a0,11
9d003224:	2e020017 	sltiu	v0,s0,23
9d003228:	afbf003c 	sw	ra,60(sp)
9d00322c:	afbe0038 	sw	s8,56(sp)
9d003230:	afb70034 	sw	s7,52(sp)
9d003234:	afb60030 	sw	s6,48(sp)
9d003238:	afb5002c 	sw	s5,44(sp)
9d00323c:	afb40028 	sw	s4,40(sp)
9d003240:	afb30024 	sw	s3,36(sp)
9d003244:	afb20020 	sw	s2,32(sp)
9d003248:	144001a2 	bnez	v0,9d0038d4 <malloc+0x6bc>
9d00324c:	afb1001c 	sw	s1,28(sp)
9d003250:	7c101004 	ins	s0,zero,0x0,0x3
9d003254:	06000003 	bltz	s0,9d003264 <malloc+0x4c>
9d003258:	0204202b 	sltu	a0,s0,a0
9d00325c:	10800011 	beqz	a0,9d0032a4 <malloc+0x8c>
9d003260:	2e0201f8 	sltiu	v0,s0,504
9d003264:	3c02a000 	lui	v0,0xa000
9d003268:	2403000c 	li	v1,12
9d00326c:	ac430038 	sw	v1,56(v0)
9d003270:	00001025 	move	v0,zero
9d003274:	8fbf003c 	lw	ra,60(sp)
9d003278:	8fbe0038 	lw	s8,56(sp)
9d00327c:	8fb70034 	lw	s7,52(sp)
9d003280:	8fb60030 	lw	s6,48(sp)
9d003284:	8fb5002c 	lw	s5,44(sp)
9d003288:	8fb40028 	lw	s4,40(sp)
9d00328c:	8fb30024 	lw	s3,36(sp)
9d003290:	8fb20020 	lw	s2,32(sp)
9d003294:	8fb1001c 	lw	s1,28(sp)
9d003298:	8fb00018 	lw	s0,24(sp)
9d00329c:	03e00008 	jr	ra
9d0032a0:	27bd0040 	addiu	sp,sp,64
9d0032a4:	10400018 	beqz	v0,9d003308 <malloc+0xf0>
9d0032a8:	00101242 	srl	v0,s0,0x9
9d0032ac:	3c02a000 	lui	v0,0xa000
9d0032b0:	244200c8 	addiu	v0,v0,200
9d0032b4:	26040008 	addiu	a0,s0,8
9d0032b8:	00442021 	addu	a0,v0,a0
9d0032bc:	8c820004 	lw	v0,4(a0)
9d0032c0:	2485fff8 	addiu	a1,a0,-8
9d0032c4:	14450004 	bne	v0,a1,9d0032d8 <malloc+0xc0>
9d0032c8:	001018c2 	srl	v1,s0,0x3
9d0032cc:	8c82000c 	lw	v0,12(a0)
9d0032d0:	10820026 	beq	a0,v0,9d00336c <malloc+0x154>
9d0032d4:	24630002 	addiu	v1,v1,2
9d0032d8:	8c430004 	lw	v1,4(v0)
9d0032dc:	8c44000c 	lw	a0,12(v0)
9d0032e0:	8c450008 	lw	a1,8(v0)
9d0032e4:	7c030804 	ins	v1,zero,0x0,0x2
9d0032e8:	00431821 	addu	v1,v0,v1
9d0032ec:	aca4000c 	sw	a0,12(a1)
9d0032f0:	ac850008 	sw	a1,8(a0)
9d0032f4:	8c640004 	lw	a0,4(v1)
9d0032f8:	34840001 	ori	a0,a0,0x1
9d0032fc:	ac640004 	sw	a0,4(v1)
9d003300:	1000ffdc 	b	9d003274 <malloc+0x5c>
9d003304:	24420008 	addiu	v0,v0,8
9d003308:	10400006 	beqz	v0,9d003324 <malloc+0x10c>
9d00330c:	2403003f 	li	v1,63
9d003310:	2c430005 	sltiu	v1,v0,5
9d003314:	1060002e 	beqz	v1,9d0033d0 <malloc+0x1b8>
9d003318:	2c430015 	sltiu	v1,v0,21
9d00331c:	00101982 	srl	v1,s0,0x6
9d003320:	24630038 	addiu	v1,v1,56
9d003324:	24620001 	addiu	v0,v1,1
9d003328:	000220c0 	sll	a0,v0,0x3
9d00332c:	3c02a000 	lui	v0,0xa000
9d003330:	244200c8 	addiu	v0,v0,200
9d003334:	00441021 	addu	v0,v0,a0
9d003338:	2447fff8 	addiu	a3,v0,-8
9d00333c:	8c420004 	lw	v0,4(v0)
9d003340:	2408fffc 	li	t0,-4
9d003344:	50470009 	beql	v0,a3,9d00336c <malloc+0x154>
9d003348:	24630001 	addiu	v1,v1,1
9d00334c:	8c440004 	lw	a0,4(v0)
9d003350:	01042024 	and	a0,t0,a0
9d003354:	00903023 	subu	a2,a0,s0
9d003358:	28c50010 	slti	a1,a2,16
9d00335c:	14a0002f 	bnez	a1,9d00341c <malloc+0x204>
9d003360:	00000000 	nop
9d003364:	2463ffff 	addiu	v1,v1,-1
9d003368:	24630001 	addiu	v1,v1,1
9d00336c:	3c11a000 	lui	s1,0xa000
9d003370:	263100c8 	addiu	s1,s1,200
9d003374:	8e220010 	lw	v0,16(s1)
9d003378:	3c06a000 	lui	a2,0xa000
9d00337c:	24c600d0 	addiu	a2,a2,208
9d003380:	50460049 	beql	v0,a2,9d0034a8 <malloc+0x290>
9d003384:	00031083 	sra	v0,v1,0x2
9d003388:	8c440004 	lw	a0,4(v0)
9d00338c:	7c040804 	ins	a0,zero,0x0,0x2
9d003390:	00902823 	subu	a1,a0,s0
9d003394:	28a70010 	slti	a3,a1,16
9d003398:	54e00029 	bnezl	a3,9d003440 <malloc+0x228>
9d00339c:	ae260014 	sw	a2,20(s1)
9d0033a0:	00501821 	addu	v1,v0,s0
9d0033a4:	36100001 	ori	s0,s0,0x1
9d0033a8:	ac500004 	sw	s0,4(v0)
9d0033ac:	00442021 	addu	a0,v0,a0
9d0033b0:	ae230014 	sw	v1,20(s1)
9d0033b4:	ae230010 	sw	v1,16(s1)
9d0033b8:	ac66000c 	sw	a2,12(v1)
9d0033bc:	ac660008 	sw	a2,8(v1)
9d0033c0:	34a60001 	ori	a2,a1,0x1
9d0033c4:	ac660004 	sw	a2,4(v1)
9d0033c8:	1000ffcd 	b	9d003300 <malloc+0xe8>
9d0033cc:	ac850000 	sw	a1,0(a0)
9d0033d0:	50600003 	beqzl	v1,9d0033e0 <malloc+0x1c8>
9d0033d4:	2c430055 	sltiu	v1,v0,85
9d0033d8:	1000ffd2 	b	9d003324 <malloc+0x10c>
9d0033dc:	2443005b 	addiu	v1,v0,91
9d0033e0:	50600004 	beqzl	v1,9d0033f4 <malloc+0x1dc>
9d0033e4:	2c430155 	sltiu	v1,v0,341
9d0033e8:	00101b02 	srl	v1,s0,0xc
9d0033ec:	1000ffcd 	b	9d003324 <malloc+0x10c>
9d0033f0:	2463006e 	addiu	v1,v1,110
9d0033f4:	10600004 	beqz	v1,9d003408 <malloc+0x1f0>
9d0033f8:	2c420555 	sltiu	v0,v0,1365
9d0033fc:	00101bc2 	srl	v1,s0,0xf
9d003400:	1000ffc8 	b	9d003324 <malloc+0x10c>
9d003404:	24630077 	addiu	v1,v1,119
9d003408:	1040ffc6 	beqz	v0,9d003324 <malloc+0x10c>
9d00340c:	2403007e 	li	v1,126
9d003410:	00101c82 	srl	v1,s0,0x12
9d003414:	1000ffc3 	b	9d003324 <malloc+0x10c>
9d003418:	2463007c 	addiu	v1,v1,124
9d00341c:	04c00006 	bltz	a2,9d003438 <malloc+0x220>
9d003420:	8c45000c 	lw	a1,12(v0)
9d003424:	8c430008 	lw	v1,8(v0)
9d003428:	ac65000c 	sw	a1,12(v1)
9d00342c:	aca30008 	sw	v1,8(a1)
9d003430:	1000ffb0 	b	9d0032f4 <malloc+0xdc>
9d003434:	00441821 	addu	v1,v0,a0
9d003438:	1000ffc2 	b	9d003344 <malloc+0x12c>
9d00343c:	00a01025 	move	v0,a1
9d003440:	04a00006 	bltz	a1,9d00345c <malloc+0x244>
9d003444:	ae260010 	sw	a2,16(s1)
9d003448:	00442021 	addu	a0,v0,a0
9d00344c:	8c830004 	lw	v1,4(a0)
9d003450:	34630001 	ori	v1,v1,0x1
9d003454:	1000ffaa 	b	9d003300 <malloc+0xe8>
9d003458:	ac830004 	sw	v1,4(a0)
9d00345c:	2c850200 	sltiu	a1,a0,512
9d003460:	10a00079 	beqz	a1,9d003648 <malloc+0x430>
9d003464:	8e290004 	lw	t1,4(s1)
9d003468:	000420c2 	srl	a0,a0,0x3
9d00346c:	00043883 	sra	a3,a0,0x2
9d003470:	24050001 	li	a1,1
9d003474:	24840001 	addiu	a0,a0,1
9d003478:	00e52804 	sllv	a1,a1,a3
9d00347c:	000420c0 	sll	a0,a0,0x3
9d003480:	02242021 	addu	a0,s1,a0
9d003484:	00a92825 	or	a1,a1,t1
9d003488:	ae250004 	sw	a1,4(s1)
9d00348c:	8c850000 	lw	a1,0(a0)
9d003490:	2487fff8 	addiu	a3,a0,-8
9d003494:	ac47000c 	sw	a3,12(v0)
9d003498:	ac450008 	sw	a1,8(v0)
9d00349c:	ac820000 	sw	v0,0(a0)
9d0034a0:	aca2000c 	sw	v0,12(a1)
9d0034a4:	00031083 	sra	v0,v1,0x2
9d0034a8:	240b0001 	li	t3,1
9d0034ac:	004b5804 	sllv	t3,t3,v0
9d0034b0:	8e220004 	lw	v0,4(s1)
9d0034b4:	004b202b 	sltu	a0,v0,t3
9d0034b8:	54800024 	bnezl	a0,9d00354c <malloc+0x334>
9d0034bc:	8e340008 	lw	s4,8(s1)
9d0034c0:	004b2024 	and	a0,v0,t3
9d0034c4:	14800007 	bnez	a0,9d0034e4 <malloc+0x2cc>
9d0034c8:	240cfffc 	li	t4,-4
9d0034cc:	7c030804 	ins	v1,zero,0x0,0x2
9d0034d0:	000b5840 	sll	t3,t3,0x1
9d0034d4:	004b2024 	and	a0,v0,t3
9d0034d8:	1080fffd 	beqz	a0,9d0034d0 <malloc+0x2b8>
9d0034dc:	24630004 	addiu	v1,v1,4
9d0034e0:	240cfffc 	li	t4,-4
9d0034e4:	000328c0 	sll	a1,v1,0x3
9d0034e8:	02252821 	addu	a1,s1,a1
9d0034ec:	00a04825 	move	t1,a1
9d0034f0:	00604025 	move	t0,v1
9d0034f4:	8d22000c 	lw	v0,12(t1)
9d0034f8:	54490086 	bnel	v0,t1,9d003714 <malloc+0x4fc>
9d0034fc:	8c440004 	lw	a0,4(v0)
9d003500:	25080001 	addiu	t0,t0,1
9d003504:	31020003 	andi	v0,t0,0x3
9d003508:	1440fffa 	bnez	v0,9d0034f4 <malloc+0x2dc>
9d00350c:	25290008 	addiu	t1,t1,8
9d003510:	30620003 	andi	v0,v1,0x3
9d003514:	5440009d 	bnezl	v0,9d00378c <malloc+0x574>
9d003518:	24a5fff8 	addiu	a1,a1,-8
9d00351c:	8e230004 	lw	v1,4(s1)
9d003520:	000b1027 	nor	v0,zero,t3
9d003524:	00621024 	and	v0,v1,v0
9d003528:	ae220004 	sw	v0,4(s1)
9d00352c:	8e220004 	lw	v0,4(s1)
9d003530:	000b5840 	sll	t3,t3,0x1
9d003534:	004b182b 	sltu	v1,v0,t3
9d003538:	54600004 	bnezl	v1,9d00354c <malloc+0x334>
9d00353c:	8e340008 	lw	s4,8(s1)
9d003540:	15600098 	bnez	t3,9d0037a4 <malloc+0x58c>
9d003544:	01001825 	move	v1,t0
9d003548:	8e340008 	lw	s4,8(s1)
9d00354c:	8e820004 	lw	v0,4(s4)
9d003550:	7c020804 	ins	v0,zero,0x0,0x2
9d003554:	0040a825 	move	s5,v0
9d003558:	0050102b 	sltu	v0,v0,s0
9d00355c:	14400004 	bnez	v0,9d003570 <malloc+0x358>
9d003560:	02b01823 	subu	v1,s5,s0
9d003564:	28620010 	slti	v0,v1,16
9d003568:	504000c1 	beqzl	v0,9d003870 <malloc+0x658>
9d00356c:	8e220008 	lw	v0,8(s1)
9d003570:	3c02a000 	lui	v0,0xa000
9d003574:	8c42065c 	lw	v0,1628(v0)
9d003578:	0295f021 	addu	s8,s4,s5
9d00357c:	24420010 	addiu	v0,v0,16
9d003580:	0f402a95 	jal	9d00aa54 <getpagesize>
9d003584:	0050b821 	addu	s7,v0,s0
9d003588:	3c04a000 	lui	a0,0xa000
9d00358c:	8c8500c0 	lw	a1,192(a0)
9d003590:	00409025 	move	s2,v0
9d003594:	2402ffff 	li	v0,-1
9d003598:	10a20005 	beq	a1,v0,9d0035b0 <malloc+0x398>
9d00359c:	00801825 	move	v1,a0
9d0035a0:	26e2ffff 	addiu	v0,s7,-1
9d0035a4:	00521021 	addu	v0,v0,s2
9d0035a8:	0012b823 	negu	s7,s2
9d0035ac:	02e2b824 	and	s7,s7,v0
9d0035b0:	02e02025 	move	a0,s7
9d0035b4:	0f40290e 	jal	9d00a438 <sbrk>
9d0035b8:	afa30010 	sw	v1,16(sp)
9d0035bc:	0040b025 	move	s6,v0
9d0035c0:	2402ffff 	li	v0,-1
9d0035c4:	52c200a0 	beql	s6,v0,9d003848 <malloc+0x630>
9d0035c8:	8e220008 	lw	v0,8(s1)
9d0035cc:	02de102b 	sltu	v0,s6,s8
9d0035d0:	10400003 	beqz	v0,9d0035e0 <malloc+0x3c8>
9d0035d4:	8fa30010 	lw	v1,16(sp)
9d0035d8:	5691009b 	bnel	s4,s1,9d003848 <malloc+0x630>
9d0035dc:	8e220008 	lw	v0,8(s1)
9d0035e0:	3c13a000 	lui	s3,0xa000
9d0035e4:	8e65062c 	lw	a1,1580(s3)
9d0035e8:	2644ffff 	addiu	a0,s2,-1
9d0035ec:	02e52821 	addu	a1,s7,a1
9d0035f0:	17d60071 	bne	s8,s6,9d0037b8 <malloc+0x5a0>
9d0035f4:	ae65062c 	sw	a1,1580(s3)
9d0035f8:	03c41024 	and	v0,s8,a0
9d0035fc:	1440006f 	bnez	v0,9d0037bc <malloc+0x5a4>
9d003600:	8c6600c0 	lw	a2,192(v1)
9d003604:	8e230008 	lw	v1,8(s1)
9d003608:	02b71021 	addu	v0,s5,s7
9d00360c:	34420001 	ori	v0,v0,0x1
9d003610:	ac620004 	sw	v0,4(v1)
9d003614:	3c04a000 	lui	a0,0xa000
9d003618:	8e62062c 	lw	v0,1580(s3)
9d00361c:	8c830658 	lw	v1,1624(a0)
9d003620:	0062182b 	sltu	v1,v1,v0
9d003624:	54600001 	bnezl	v1,9d00362c <malloc+0x414>
9d003628:	ac820658 	sw	v0,1624(a0)
9d00362c:	3c04a000 	lui	a0,0xa000
9d003630:	8c830654 	lw	v1,1620(a0)
9d003634:	0062182b 	sltu	v1,v1,v0
9d003638:	54600082 	bnezl	v1,9d003844 <malloc+0x62c>
9d00363c:	ac820654 	sw	v0,1620(a0)
9d003640:	10000081 	b	9d003848 <malloc+0x630>
9d003644:	8e220008 	lw	v0,8(s1)
9d003648:	00042a42 	srl	a1,a0,0x9
9d00364c:	2ca70005 	sltiu	a3,a1,5
9d003650:	10e00014 	beqz	a3,9d0036a4 <malloc+0x48c>
9d003654:	2ca70015 	sltiu	a3,a1,21
9d003658:	00042982 	srl	a1,a0,0x6
9d00365c:	24a50038 	addiu	a1,a1,56
9d003660:	24a70001 	addiu	a3,a1,1
9d003664:	000738c0 	sll	a3,a3,0x3
9d003668:	02273821 	addu	a3,s1,a3
9d00366c:	24e8fff8 	addiu	t0,a3,-8
9d003670:	8ce70000 	lw	a3,0(a3)
9d003674:	15070020 	bne	t0,a3,9d0036f8 <malloc+0x4e0>
9d003678:	240afffc 	li	t2,-4
9d00367c:	00052883 	sra	a1,a1,0x2
9d003680:	24040001 	li	a0,1
9d003684:	00a42804 	sllv	a1,a0,a1
9d003688:	00a92825 	or	a1,a1,t1
9d00368c:	ae250004 	sw	a1,4(s1)
9d003690:	ac48000c 	sw	t0,12(v0)
9d003694:	ac470008 	sw	a3,8(v0)
9d003698:	ad020008 	sw	v0,8(t0)
9d00369c:	1000ff81 	b	9d0034a4 <malloc+0x28c>
9d0036a0:	ace2000c 	sw	v0,12(a3)
9d0036a4:	10e00003 	beqz	a3,9d0036b4 <malloc+0x49c>
9d0036a8:	2ca70055 	sltiu	a3,a1,85
9d0036ac:	1000ffec 	b	9d003660 <malloc+0x448>
9d0036b0:	24a5005b 	addiu	a1,a1,91
9d0036b4:	10e00004 	beqz	a3,9d0036c8 <malloc+0x4b0>
9d0036b8:	2ca70155 	sltiu	a3,a1,341
9d0036bc:	00042b02 	srl	a1,a0,0xc
9d0036c0:	1000ffe7 	b	9d003660 <malloc+0x448>
9d0036c4:	24a5006e 	addiu	a1,a1,110
9d0036c8:	10e00004 	beqz	a3,9d0036dc <malloc+0x4c4>
9d0036cc:	2ca70555 	sltiu	a3,a1,1365
9d0036d0:	00042bc2 	srl	a1,a0,0xf
9d0036d4:	1000ffe2 	b	9d003660 <malloc+0x448>
9d0036d8:	24a50077 	addiu	a1,a1,119
9d0036dc:	10e0ffe0 	beqz	a3,9d003660 <malloc+0x448>
9d0036e0:	2405007e 	li	a1,126
9d0036e4:	00042c82 	srl	a1,a0,0x12
9d0036e8:	1000ffdd 	b	9d003660 <malloc+0x448>
9d0036ec:	24a5007c 	addiu	a1,a1,124
9d0036f0:	5107ffe7 	beql	t0,a3,9d003690 <malloc+0x478>
9d0036f4:	8ce8000c 	lw	t0,12(a3)
9d0036f8:	8ce50004 	lw	a1,4(a3)
9d0036fc:	01452824 	and	a1,t2,a1
9d003700:	0085282b 	sltu	a1,a0,a1
9d003704:	54a0fffa 	bnezl	a1,9d0036f0 <malloc+0x4d8>
9d003708:	8ce70008 	lw	a3,8(a3)
9d00370c:	1000ffe0 	b	9d003690 <malloc+0x478>
9d003710:	8ce8000c 	lw	t0,12(a3)
9d003714:	01842024 	and	a0,t4,a0
9d003718:	00905023 	subu	t2,a0,s0
9d00371c:	294d0010 	slti	t5,t2,16
9d003720:	15a00010 	bnez	t5,9d003764 <malloc+0x54c>
9d003724:	8c47000c 	lw	a3,12(v0)
9d003728:	8c450008 	lw	a1,8(v0)
9d00372c:	00501821 	addu	v1,v0,s0
9d003730:	36100001 	ori	s0,s0,0x1
9d003734:	ac500004 	sw	s0,4(v0)
9d003738:	00442021 	addu	a0,v0,a0
9d00373c:	aca7000c 	sw	a3,12(a1)
9d003740:	ace50008 	sw	a1,8(a3)
9d003744:	35450001 	ori	a1,t2,0x1
9d003748:	ae230014 	sw	v1,20(s1)
9d00374c:	ae230010 	sw	v1,16(s1)
9d003750:	ac66000c 	sw	a2,12(v1)
9d003754:	ac660008 	sw	a2,8(v1)
9d003758:	ac650004 	sw	a1,4(v1)
9d00375c:	1000fee8 	b	9d003300 <malloc+0xe8>
9d003760:	ac8a0000 	sw	t2,0(a0)
9d003764:	0542ff64 	bltzl	t2,9d0034f8 <malloc+0x2e0>
9d003768:	00e01025 	move	v0,a3
9d00376c:	00442021 	addu	a0,v0,a0
9d003770:	8c830004 	lw	v1,4(a0)
9d003774:	34630001 	ori	v1,v1,0x1
9d003778:	ac830004 	sw	v1,4(a0)
9d00377c:	8c430008 	lw	v1,8(v0)
9d003780:	ac67000c 	sw	a3,12(v1)
9d003784:	1000fede 	b	9d003300 <malloc+0xe8>
9d003788:	ace30008 	sw	v1,8(a3)
9d00378c:	8ca20008 	lw	v0,8(a1)
9d003790:	1045ff5f 	beq	v0,a1,9d003510 <malloc+0x2f8>
9d003794:	2463ffff 	addiu	v1,v1,-1
9d003798:	1000ff65 	b	9d003530 <malloc+0x318>
9d00379c:	8e220004 	lw	v0,4(s1)
9d0037a0:	000b5840 	sll	t3,t3,0x1
9d0037a4:	004b2024 	and	a0,v0,t3
9d0037a8:	5080fffd 	beqzl	a0,9d0037a0 <malloc+0x588>
9d0037ac:	24630004 	addiu	v1,v1,4
9d0037b0:	1000ff4d 	b	9d0034e8 <malloc+0x2d0>
9d0037b4:	000328c0 	sll	a1,v1,0x3
9d0037b8:	8c6600c0 	lw	a2,192(v1)
9d0037bc:	2402ffff 	li	v0,-1
9d0037c0:	54c20032 	bnel	a2,v0,9d00388c <malloc+0x674>
9d0037c4:	02de1823 	subu	v1,s6,s8
9d0037c8:	ac7600c0 	sw	s6,192(v1)
9d0037cc:	32c30007 	andi	v1,s6,0x7
9d0037d0:	10600005 	beqz	v1,9d0037e8 <malloc+0x5d0>
9d0037d4:	02d71021 	addu	v0,s6,s7
9d0037d8:	24020008 	li	v0,8
9d0037dc:	00431823 	subu	v1,v0,v1
9d0037e0:	02c3b021 	addu	s6,s6,v1
9d0037e4:	02d71021 	addu	v0,s6,s7
9d0037e8:	02439021 	addu	s2,s2,v1
9d0037ec:	00441024 	and	v0,v0,a0
9d0037f0:	02429023 	subu	s2,s2,v0
9d0037f4:	0f40290e 	jal	9d00a438 <sbrk>
9d0037f8:	02402025 	move	a0,s2
9d0037fc:	2403ffff 	li	v1,-1
9d003800:	14430003 	bne	v0,v1,9d003810 <malloc+0x5f8>
9d003804:	8e63062c 	lw	v1,1580(s3)
9d003808:	02c01025 	move	v0,s6
9d00380c:	00009025 	move	s2,zero
9d003810:	00561023 	subu	v0,v0,s6
9d003814:	ae360008 	sw	s6,8(s1)
9d003818:	00721821 	addu	v1,v1,s2
9d00381c:	00529021 	addu	s2,v0,s2
9d003820:	36520001 	ori	s2,s2,0x1
9d003824:	ae63062c 	sw	v1,1580(s3)
9d003828:	1291ff7a 	beq	s4,s1,9d003614 <malloc+0x3fc>
9d00382c:	aed20004 	sw	s2,4(s6)
9d003830:	2ea20010 	sltiu	v0,s5,16
9d003834:	50400018 	beqzl	v0,9d003898 <malloc+0x680>
9d003838:	26a2fff4 	addiu	v0,s5,-12
9d00383c:	24020001 	li	v0,1
9d003840:	aec20004 	sw	v0,4(s6)
9d003844:	8e220008 	lw	v0,8(s1)
9d003848:	8c420004 	lw	v0,4(v0)
9d00384c:	7c020804 	ins	v0,zero,0x0,0x2
9d003850:	0050202b 	sltu	a0,v0,s0
9d003854:	00501823 	subu	v1,v0,s0
9d003858:	1480fe86 	bnez	a0,9d003274 <malloc+0x5c>
9d00385c:	00001025 	move	v0,zero
9d003860:	28640010 	slti	a0,v1,16
9d003864:	1480fe84 	bnez	a0,9d003278 <malloc+0x60>
9d003868:	8fbf003c 	lw	ra,60(sp)
9d00386c:	8e220008 	lw	v0,8(s1)
9d003870:	36040001 	ori	a0,s0,0x1
9d003874:	34630001 	ori	v1,v1,0x1
9d003878:	00508021 	addu	s0,v0,s0
9d00387c:	ac440004 	sw	a0,4(v0)
9d003880:	ae300008 	sw	s0,8(s1)
9d003884:	1000fe9e 	b	9d003300 <malloc+0xe8>
9d003888:	ae030004 	sw	v1,4(s0)
9d00388c:	00651821 	addu	v1,v1,a1
9d003890:	1000ffce 	b	9d0037cc <malloc+0x5b4>
9d003894:	ae63062c 	sw	v1,1580(s3)
9d003898:	7c021004 	ins	v0,zero,0x0,0x3
9d00389c:	02821821 	addu	v1,s4,v0
9d0038a0:	24040005 	li	a0,5
9d0038a4:	ac640004 	sw	a0,4(v1)
9d0038a8:	ac640008 	sw	a0,8(v1)
9d0038ac:	8e830004 	lw	v1,4(s4)
9d0038b0:	30630001 	andi	v1,v1,0x1
9d0038b4:	00621825 	or	v1,v1,v0
9d0038b8:	2c420010 	sltiu	v0,v0,16
9d0038bc:	1440ff55 	bnez	v0,9d003614 <malloc+0x3fc>
9d0038c0:	ae830004 	sw	v1,4(s4)
9d0038c4:	0f401d2c 	jal	9d0074b0 <free>
9d0038c8:	26840008 	addiu	a0,s4,8
9d0038cc:	1000ff52 	b	9d003618 <malloc+0x400>
9d0038d0:	3c04a000 	lui	a0,0xa000
9d0038d4:	2c840011 	sltiu	a0,a0,17
9d0038d8:	1480fe74 	bnez	a0,9d0032ac <malloc+0x94>
9d0038dc:	24100010 	li	s0,16
9d0038e0:	1000fe61 	b	9d003268 <malloc+0x50>
9d0038e4:	3c02a000 	lui	v0,0xa000

Disassembly of section .dinit:

9d0038e8 <.dinit>:
9d0038e8:	a0000008 	sb	zero,8(zero)
9d0038ec:	00000024 	and	zero,zero,zero
9d0038f0:	00000000 	nop
9d0038f4:	a000002c 	sb	zero,44(zero)
9d0038f8:	0000000c 	syscall
9d0038fc:	00000000 	nop
9d003900:	a000005c 	sb	zero,92(zero)
9d003904:	00000064 	0x64
9d003908:	00000000 	nop
9d00390c:	a00004d0 	sb	zero,1232(zero)
9d003910:	000000d4 	0xd4
9d003914:	00000001 	movf	zero,zero,$fcc0
9d003918:	a0000534 	sb	zero,1332(zero)
9d00391c:	a0000550 	sb	zero,1360(zero)
9d003920:	a000056c 	sb	zero,1388(zero)
9d003924:	a0000530 	sb	zero,1328(zero)
9d003928:	a00005a4 	sb	zero,1444(zero)
9d00392c:	00000001 	movf	zero,zero,$fcc0
	...
9d00397c:	ffffffff 	sdc3	$31,-1(ra)
9d003980:	ffffffff 	sdc3	$31,-1(ra)
9d003984:	00000000 	nop
9d003988:	00000040 	ssnop
9d00398c:	00001009 	jalr	v0,zero
9d003990:	00000000 	nop
9d003994:	9d00a924 	0x9d00a924
9d003998:	ffffffff 	sdc3	$31,-1(ra)
	...
9d0039a8:	00011002 	srl	v0,at,0x0
9d0039ac:	00000000 	nop
9d0039b0:	9d00a924 	0x9d00a924
9d0039b4:	ffffffff 	sdc3	$31,-1(ra)
	...
9d0039c4:	00020002 	srl	zero,v0,0x0
9d0039c8:	00000000 	nop
9d0039cc:	9d00a924 	0x9d00a924
9d0039d0:	fffffffd 	sdc3	$31,-3(ra)
	...
9d0039ec:	a00005a4 	sb	zero,1444(zero)
9d0039f0:	00000088 	0x88
9d0039f4:	00000000 	nop
9d0039f8:	a0000000 	sb	zero,0(zero)
9d0039fc:	00000004 	sllv	zero,zero,zero
9d003a00:	00000001 	movf	zero,zero,$fcc0
9d003a04:	a00004d0 	sb	zero,1232(zero)
9d003a08:	a00006a4 	sb	zero,1700(zero)
9d003a0c:	00000004 	sllv	zero,zero,zero
9d003a10:	00000000 	nop
9d003a14:	a00000c0 	sb	zero,192(zero)
9d003a18:	00000410 	0x410
9d003a1c:	00000001 	movf	zero,zero,$fcc0
9d003a20:	ffffffff 	sdc3	$31,-1(ra)
9d003a24:	00002000 	sll	a0,zero,0x0
	...
9d003a30:	a00000c8 	sb	zero,200(zero)
9d003a34:	a00000c8 	sb	zero,200(zero)
9d003a38:	a00000d0 	sb	zero,208(zero)
9d003a3c:	a00000d0 	sb	zero,208(zero)
9d003a40:	a00000d8 	sb	zero,216(zero)
9d003a44:	a00000d8 	sb	zero,216(zero)
9d003a48:	a00000e0 	sb	zero,224(zero)
9d003a4c:	a00000e0 	sb	zero,224(zero)
9d003a50:	a00000e8 	sb	zero,232(zero)
9d003a54:	a00000e8 	sb	zero,232(zero)
9d003a58:	a00000f0 	sb	zero,240(zero)
9d003a5c:	a00000f0 	sb	zero,240(zero)
9d003a60:	a00000f8 	sb	zero,248(zero)
9d003a64:	a00000f8 	sb	zero,248(zero)
9d003a68:	a0000100 	sb	zero,256(zero)
9d003a6c:	a0000100 	sb	zero,256(zero)
9d003a70:	a0000108 	sb	zero,264(zero)
9d003a74:	a0000108 	sb	zero,264(zero)
9d003a78:	a0000110 	sb	zero,272(zero)
9d003a7c:	a0000110 	sb	zero,272(zero)
9d003a80:	a0000118 	sb	zero,280(zero)
9d003a84:	a0000118 	sb	zero,280(zero)
9d003a88:	a0000120 	sb	zero,288(zero)
9d003a8c:	a0000120 	sb	zero,288(zero)
9d003a90:	a0000128 	sb	zero,296(zero)
9d003a94:	a0000128 	sb	zero,296(zero)
9d003a98:	a0000130 	sb	zero,304(zero)
9d003a9c:	a0000130 	sb	zero,304(zero)
9d003aa0:	a0000138 	sb	zero,312(zero)
9d003aa4:	a0000138 	sb	zero,312(zero)
9d003aa8:	a0000140 	sb	zero,320(zero)
9d003aac:	a0000140 	sb	zero,320(zero)
9d003ab0:	a0000148 	sb	zero,328(zero)
9d003ab4:	a0000148 	sb	zero,328(zero)
9d003ab8:	a0000150 	sb	zero,336(zero)
9d003abc:	a0000150 	sb	zero,336(zero)
9d003ac0:	a0000158 	sb	zero,344(zero)
9d003ac4:	a0000158 	sb	zero,344(zero)
9d003ac8:	a0000160 	sb	zero,352(zero)
9d003acc:	a0000160 	sb	zero,352(zero)
9d003ad0:	a0000168 	sb	zero,360(zero)
9d003ad4:	a0000168 	sb	zero,360(zero)
9d003ad8:	a0000170 	sb	zero,368(zero)
9d003adc:	a0000170 	sb	zero,368(zero)
9d003ae0:	a0000178 	sb	zero,376(zero)
9d003ae4:	a0000178 	sb	zero,376(zero)
9d003ae8:	a0000180 	sb	zero,384(zero)
9d003aec:	a0000180 	sb	zero,384(zero)
9d003af0:	a0000188 	sb	zero,392(zero)
9d003af4:	a0000188 	sb	zero,392(zero)
9d003af8:	a0000190 	sb	zero,400(zero)
9d003afc:	a0000190 	sb	zero,400(zero)
9d003b00:	a0000198 	sb	zero,408(zero)
9d003b04:	a0000198 	sb	zero,408(zero)
9d003b08:	a00001a0 	sb	zero,416(zero)
9d003b0c:	a00001a0 	sb	zero,416(zero)
9d003b10:	a00001a8 	sb	zero,424(zero)
9d003b14:	a00001a8 	sb	zero,424(zero)
9d003b18:	a00001b0 	sb	zero,432(zero)
9d003b1c:	a00001b0 	sb	zero,432(zero)
9d003b20:	a00001b8 	sb	zero,440(zero)
9d003b24:	a00001b8 	sb	zero,440(zero)
9d003b28:	a00001c0 	sb	zero,448(zero)
9d003b2c:	a00001c0 	sb	zero,448(zero)
9d003b30:	a00001c8 	sb	zero,456(zero)
9d003b34:	a00001c8 	sb	zero,456(zero)
9d003b38:	a00001d0 	sb	zero,464(zero)
9d003b3c:	a00001d0 	sb	zero,464(zero)
9d003b40:	a00001d8 	sb	zero,472(zero)
9d003b44:	a00001d8 	sb	zero,472(zero)
9d003b48:	a00001e0 	sb	zero,480(zero)
9d003b4c:	a00001e0 	sb	zero,480(zero)
9d003b50:	a00001e8 	sb	zero,488(zero)
9d003b54:	a00001e8 	sb	zero,488(zero)
9d003b58:	a00001f0 	sb	zero,496(zero)
9d003b5c:	a00001f0 	sb	zero,496(zero)
9d003b60:	a00001f8 	sb	zero,504(zero)
9d003b64:	a00001f8 	sb	zero,504(zero)
9d003b68:	a0000200 	sb	zero,512(zero)
9d003b6c:	a0000200 	sb	zero,512(zero)
9d003b70:	a0000208 	sb	zero,520(zero)
9d003b74:	a0000208 	sb	zero,520(zero)
9d003b78:	a0000210 	sb	zero,528(zero)
9d003b7c:	a0000210 	sb	zero,528(zero)
9d003b80:	a0000218 	sb	zero,536(zero)
9d003b84:	a0000218 	sb	zero,536(zero)
9d003b88:	a0000220 	sb	zero,544(zero)
9d003b8c:	a0000220 	sb	zero,544(zero)
9d003b90:	a0000228 	sb	zero,552(zero)
9d003b94:	a0000228 	sb	zero,552(zero)
9d003b98:	a0000230 	sb	zero,560(zero)
9d003b9c:	a0000230 	sb	zero,560(zero)
9d003ba0:	a0000238 	sb	zero,568(zero)
9d003ba4:	a0000238 	sb	zero,568(zero)
9d003ba8:	a0000240 	sb	zero,576(zero)
9d003bac:	a0000240 	sb	zero,576(zero)
9d003bb0:	a0000248 	sb	zero,584(zero)
9d003bb4:	a0000248 	sb	zero,584(zero)
9d003bb8:	a0000250 	sb	zero,592(zero)
9d003bbc:	a0000250 	sb	zero,592(zero)
9d003bc0:	a0000258 	sb	zero,600(zero)
9d003bc4:	a0000258 	sb	zero,600(zero)
9d003bc8:	a0000260 	sb	zero,608(zero)
9d003bcc:	a0000260 	sb	zero,608(zero)
9d003bd0:	a0000268 	sb	zero,616(zero)
9d003bd4:	a0000268 	sb	zero,616(zero)
9d003bd8:	a0000270 	sb	zero,624(zero)
9d003bdc:	a0000270 	sb	zero,624(zero)
9d003be0:	a0000278 	sb	zero,632(zero)
9d003be4:	a0000278 	sb	zero,632(zero)
9d003be8:	a0000280 	sb	zero,640(zero)
9d003bec:	a0000280 	sb	zero,640(zero)
9d003bf0:	a0000288 	sb	zero,648(zero)
9d003bf4:	a0000288 	sb	zero,648(zero)
9d003bf8:	a0000290 	sb	zero,656(zero)
9d003bfc:	a0000290 	sb	zero,656(zero)
9d003c00:	a0000298 	sb	zero,664(zero)
9d003c04:	a0000298 	sb	zero,664(zero)
9d003c08:	a00002a0 	sb	zero,672(zero)
9d003c0c:	a00002a0 	sb	zero,672(zero)
9d003c10:	a00002a8 	sb	zero,680(zero)
9d003c14:	a00002a8 	sb	zero,680(zero)
9d003c18:	a00002b0 	sb	zero,688(zero)
9d003c1c:	a00002b0 	sb	zero,688(zero)
9d003c20:	a00002b8 	sb	zero,696(zero)
9d003c24:	a00002b8 	sb	zero,696(zero)
9d003c28:	a00002c0 	sb	zero,704(zero)
9d003c2c:	a00002c0 	sb	zero,704(zero)
9d003c30:	a00002c8 	sb	zero,712(zero)
9d003c34:	a00002c8 	sb	zero,712(zero)
9d003c38:	a00002d0 	sb	zero,720(zero)
9d003c3c:	a00002d0 	sb	zero,720(zero)
9d003c40:	a00002d8 	sb	zero,728(zero)
9d003c44:	a00002d8 	sb	zero,728(zero)
9d003c48:	a00002e0 	sb	zero,736(zero)
9d003c4c:	a00002e0 	sb	zero,736(zero)
9d003c50:	a00002e8 	sb	zero,744(zero)
9d003c54:	a00002e8 	sb	zero,744(zero)
9d003c58:	a00002f0 	sb	zero,752(zero)
9d003c5c:	a00002f0 	sb	zero,752(zero)
9d003c60:	a00002f8 	sb	zero,760(zero)
9d003c64:	a00002f8 	sb	zero,760(zero)
9d003c68:	a0000300 	sb	zero,768(zero)
9d003c6c:	a0000300 	sb	zero,768(zero)
9d003c70:	a0000308 	sb	zero,776(zero)
9d003c74:	a0000308 	sb	zero,776(zero)
9d003c78:	a0000310 	sb	zero,784(zero)
9d003c7c:	a0000310 	sb	zero,784(zero)
9d003c80:	a0000318 	sb	zero,792(zero)
9d003c84:	a0000318 	sb	zero,792(zero)
9d003c88:	a0000320 	sb	zero,800(zero)
9d003c8c:	a0000320 	sb	zero,800(zero)
9d003c90:	a0000328 	sb	zero,808(zero)
9d003c94:	a0000328 	sb	zero,808(zero)
9d003c98:	a0000330 	sb	zero,816(zero)
9d003c9c:	a0000330 	sb	zero,816(zero)
9d003ca0:	a0000338 	sb	zero,824(zero)
9d003ca4:	a0000338 	sb	zero,824(zero)
9d003ca8:	a0000340 	sb	zero,832(zero)
9d003cac:	a0000340 	sb	zero,832(zero)
9d003cb0:	a0000348 	sb	zero,840(zero)
9d003cb4:	a0000348 	sb	zero,840(zero)
9d003cb8:	a0000350 	sb	zero,848(zero)
9d003cbc:	a0000350 	sb	zero,848(zero)
9d003cc0:	a0000358 	sb	zero,856(zero)
9d003cc4:	a0000358 	sb	zero,856(zero)
9d003cc8:	a0000360 	sb	zero,864(zero)
9d003ccc:	a0000360 	sb	zero,864(zero)
9d003cd0:	a0000368 	sb	zero,872(zero)
9d003cd4:	a0000368 	sb	zero,872(zero)
9d003cd8:	a0000370 	sb	zero,880(zero)
9d003cdc:	a0000370 	sb	zero,880(zero)
9d003ce0:	a0000378 	sb	zero,888(zero)
9d003ce4:	a0000378 	sb	zero,888(zero)
9d003ce8:	a0000380 	sb	zero,896(zero)
9d003cec:	a0000380 	sb	zero,896(zero)
9d003cf0:	a0000388 	sb	zero,904(zero)
9d003cf4:	a0000388 	sb	zero,904(zero)
9d003cf8:	a0000390 	sb	zero,912(zero)
9d003cfc:	a0000390 	sb	zero,912(zero)
9d003d00:	a0000398 	sb	zero,920(zero)
9d003d04:	a0000398 	sb	zero,920(zero)
9d003d08:	a00003a0 	sb	zero,928(zero)
9d003d0c:	a00003a0 	sb	zero,928(zero)
9d003d10:	a00003a8 	sb	zero,936(zero)
9d003d14:	a00003a8 	sb	zero,936(zero)
9d003d18:	a00003b0 	sb	zero,944(zero)
9d003d1c:	a00003b0 	sb	zero,944(zero)
9d003d20:	a00003b8 	sb	zero,952(zero)
9d003d24:	a00003b8 	sb	zero,952(zero)
9d003d28:	a00003c0 	sb	zero,960(zero)
9d003d2c:	a00003c0 	sb	zero,960(zero)
9d003d30:	a00003c8 	sb	zero,968(zero)
9d003d34:	a00003c8 	sb	zero,968(zero)
9d003d38:	a00003d0 	sb	zero,976(zero)
9d003d3c:	a00003d0 	sb	zero,976(zero)
9d003d40:	a00003d8 	sb	zero,984(zero)
9d003d44:	a00003d8 	sb	zero,984(zero)
9d003d48:	a00003e0 	sb	zero,992(zero)
9d003d4c:	a00003e0 	sb	zero,992(zero)
9d003d50:	a00003e8 	sb	zero,1000(zero)
9d003d54:	a00003e8 	sb	zero,1000(zero)
9d003d58:	a00003f0 	sb	zero,1008(zero)
9d003d5c:	a00003f0 	sb	zero,1008(zero)
9d003d60:	a00003f8 	sb	zero,1016(zero)
9d003d64:	a00003f8 	sb	zero,1016(zero)
9d003d68:	a0000400 	sb	zero,1024(zero)
9d003d6c:	a0000400 	sb	zero,1024(zero)
9d003d70:	a0000408 	sb	zero,1032(zero)
9d003d74:	a0000408 	sb	zero,1032(zero)
9d003d78:	a0000410 	sb	zero,1040(zero)
9d003d7c:	a0000410 	sb	zero,1040(zero)
9d003d80:	a0000418 	sb	zero,1048(zero)
9d003d84:	a0000418 	sb	zero,1048(zero)
9d003d88:	a0000420 	sb	zero,1056(zero)
9d003d8c:	a0000420 	sb	zero,1056(zero)
9d003d90:	a0000428 	sb	zero,1064(zero)
9d003d94:	a0000428 	sb	zero,1064(zero)
9d003d98:	a0000430 	sb	zero,1072(zero)
9d003d9c:	a0000430 	sb	zero,1072(zero)
9d003da0:	a0000438 	sb	zero,1080(zero)
9d003da4:	a0000438 	sb	zero,1080(zero)
9d003da8:	a0000440 	sb	zero,1088(zero)
9d003dac:	a0000440 	sb	zero,1088(zero)
9d003db0:	a0000448 	sb	zero,1096(zero)
9d003db4:	a0000448 	sb	zero,1096(zero)
9d003db8:	a0000450 	sb	zero,1104(zero)
9d003dbc:	a0000450 	sb	zero,1104(zero)
9d003dc0:	a0000458 	sb	zero,1112(zero)
9d003dc4:	a0000458 	sb	zero,1112(zero)
9d003dc8:	a0000460 	sb	zero,1120(zero)
9d003dcc:	a0000460 	sb	zero,1120(zero)
9d003dd0:	a0000468 	sb	zero,1128(zero)
9d003dd4:	a0000468 	sb	zero,1128(zero)
9d003dd8:	a0000470 	sb	zero,1136(zero)
9d003ddc:	a0000470 	sb	zero,1136(zero)
9d003de0:	a0000478 	sb	zero,1144(zero)
9d003de4:	a0000478 	sb	zero,1144(zero)
9d003de8:	a0000480 	sb	zero,1152(zero)
9d003dec:	a0000480 	sb	zero,1152(zero)
9d003df0:	a0000488 	sb	zero,1160(zero)
9d003df4:	a0000488 	sb	zero,1160(zero)
9d003df8:	a0000490 	sb	zero,1168(zero)
9d003dfc:	a0000490 	sb	zero,1168(zero)
9d003e00:	a0000498 	sb	zero,1176(zero)
9d003e04:	a0000498 	sb	zero,1176(zero)
9d003e08:	a00004a0 	sb	zero,1184(zero)
9d003e0c:	a00004a0 	sb	zero,1184(zero)
9d003e10:	a00004a8 	sb	zero,1192(zero)
9d003e14:	a00004a8 	sb	zero,1192(zero)
9d003e18:	a00004b0 	sb	zero,1200(zero)
9d003e1c:	a00004b0 	sb	zero,1200(zero)
9d003e20:	a00004b8 	sb	zero,1208(zero)
9d003e24:	a00004b8 	sb	zero,1208(zero)
9d003e28:	a00004c0 	sb	zero,1216(zero)
9d003e2c:	a00004c0 	sb	zero,1216(zero)
9d003e30:	a000062c 	sb	zero,1580(zero)
9d003e34:	00000034 	teq	zero,zero
9d003e38:	00000000 	nop
9d003e3c:	a0000038 	sb	zero,56(zero)
9d003e40:	00000004 	sllv	zero,zero,zero
9d003e44:	00000000 	nop
9d003e48:	a0000684 	sb	zero,1668(zero)
9d003e4c:	00000020 	add	zero,zero,zero
9d003e50:	00000001 	movf	zero,zero,$fcc0
9d003e54:	00000000 	nop
9d003e58:	ffffffff 	sdc3	$31,-1(ra)
	...
9d003e74:	a00006a8 	sb	zero,1704(zero)
9d003e78:	00000004 	sllv	zero,zero,zero
9d003e7c:	00000000 	nop
9d003e80:	a0000660 	sb	zero,1632(zero)
9d003e84:	00000024 	and	zero,zero,zero
9d003e88:	00000000 	nop
9d003e8c:	a0000004 	sb	zero,4(zero)
9d003e90:	00000004 	sllv	zero,zero,zero
9d003e94:	00000001 	movf	zero,zero,$fcc0
9d003e98:	00000002 	srl	zero,zero,0x0
9d003e9c:	00000000 	nop
9d003ea0:	22222222 	addi	v0,s1,8738
9d003ea4:	22222222 	addi	v0,s1,8738

Disassembly of section .text._fconvert:

9d003ea8 <_fconvert>:
9d003ea8:	3c027ff0 	lui	v0,0x7ff0
9d003eac:	27bdfd78 	addiu	sp,sp,-648
9d003eb0:	00471824 	and	v1,v0,a3
9d003eb4:	afb50274 	sw	s5,628(sp)
9d003eb8:	afb40270 	sw	s4,624(sp)
9d003ebc:	afb3026c 	sw	s3,620(sp)
9d003ec0:	afb20268 	sw	s2,616(sp)
9d003ec4:	afb10264 	sw	s1,612(sp)
9d003ec8:	afb00260 	sw	s0,608(sp)
9d003ecc:	afbf0284 	sw	ra,644(sp)
9d003ed0:	afbe0280 	sw	s8,640(sp)
9d003ed4:	afb7027c 	sw	s7,636(sp)
9d003ed8:	afb60278 	sw	s6,632(sp)
9d003edc:	00809825 	move	s3,a0
9d003ee0:	00c0a825 	move	s5,a2
9d003ee4:	00e0a025 	move	s4,a3
9d003ee8:	8fb2029c 	lw	s2,668(sp)
9d003eec:	8fb002a0 	lw	s0,672(sp)
9d003ef0:	14620027 	bne	v1,v0,9d003f90 <_fconvert+0xe8>
9d003ef4:	97b102a4 	lhu	s1,676(sp)
9d003ef8:	00c02025 	move	a0,a2
9d003efc:	0f402315 	jal	9d008c54 <__eqdf2>
9d003f00:	00e02825 	move	a1,a3
9d003f04:	10400014 	beqz	v0,9d003f58 <_fconvert+0xb0>
9d003f08:	00003025 	move	a2,zero
9d003f0c:	3c059d00 	lui	a1,0x9d00
9d003f10:	afb10010 	sw	s1,16(sp)
9d003f14:	02403825 	move	a3,s2
9d003f18:	24060003 	li	a2,3
9d003f1c:	24a51f4c 	addiu	a1,a1,8012
9d003f20:	0f402524 	jal	9d009490 <_outcnvrt>
9d003f24:	02602025 	move	a0,s3
9d003f28:	8fbf0284 	lw	ra,644(sp)
9d003f2c:	8fbe0280 	lw	s8,640(sp)
9d003f30:	8fb7027c 	lw	s7,636(sp)
9d003f34:	8fb60278 	lw	s6,632(sp)
9d003f38:	8fb50274 	lw	s5,628(sp)
9d003f3c:	8fb40270 	lw	s4,624(sp)
9d003f40:	8fb3026c 	lw	s3,620(sp)
9d003f44:	8fb20268 	lw	s2,616(sp)
9d003f48:	8fb10264 	lw	s1,612(sp)
9d003f4c:	8fb00260 	lw	s0,608(sp)
9d003f50:	03e00008 	jr	ra
9d003f54:	27bd0288 	addiu	sp,sp,648
9d003f58:	00003825 	move	a3,zero
9d003f5c:	02a02025 	move	a0,s5
9d003f60:	0f402315 	jal	9d008c54 <__eqdf2>
9d003f64:	02802825 	move	a1,s4
9d003f68:	afb10010 	sw	s1,16(sp)
9d003f6c:	02403825 	move	a3,s2
9d003f70:	04410004 	bgez	v0,9d003f84 <_fconvert+0xdc>
9d003f74:	24060004 	li	a2,4
9d003f78:	3c059d00 	lui	a1,0x9d00
9d003f7c:	1000ffe8 	b	9d003f20 <_fconvert+0x78>
9d003f80:	24a51f50 	addiu	a1,a1,8016
9d003f84:	3c059d00 	lui	a1,0x9d00
9d003f88:	1000ffe5 	b	9d003f20 <_fconvert+0x78>
9d003f8c:	24a51f58 	addiu	a1,a1,8024
9d003f90:	2402ffff 	li	v0,-1
9d003f94:	1202000e 	beq	s0,v0,9d003fd0 <_fconvert+0x128>
9d003f98:	2a020028 	slti	v0,s0,40
9d003f9c:	1440000e 	bnez	v0,9d003fd8 <_fconvert+0x130>
9d003fa0:	0000b025 	move	s6,zero
9d003fa4:	8fa30298 	lw	v1,664(sp)
9d003fa8:	24020047 	li	v0,71
9d003fac:	7c032944 	ins	v1,zero,0x5,0x1
9d003fb0:	54620005 	bnel	v1,v0,9d003fc8 <_fconvert+0x120>
9d003fb4:	2616ffd9 	addiu	s6,s0,-39
9d003fb8:	32220800 	andi	v0,s1,0x800
9d003fbc:	50400006 	beqzl	v0,9d003fd8 <_fconvert+0x130>
9d003fc0:	24100027 	li	s0,39
9d003fc4:	2616ffd9 	addiu	s6,s0,-39
9d003fc8:	10000003 	b	9d003fd8 <_fconvert+0x130>
9d003fcc:	24100027 	li	s0,39
9d003fd0:	0000b025 	move	s6,zero
9d003fd4:	24100006 	li	s0,6
9d003fd8:	a3a00019 	sb	zero,25(sp)
9d003fdc:	06810004 	bgez	s4,9d003ff0 <_fconvert+0x148>
9d003fe0:	0000b825 	move	s7,zero
9d003fe4:	3c028000 	lui	v0,0x8000
9d003fe8:	0054a026 	xor	s4,v0,s4
9d003fec:	2417002d 	li	s7,45
9d003ff0:	02a02025 	move	a0,s5
9d003ff4:	02802825 	move	a1,s4
9d003ff8:	0f4023aa 	jal	9d008ea8 <dpmodf>
9d003ffc:	27a60230 	addiu	a2,sp,560
9d004000:	0040a025 	move	s4,v0
9d004004:	3c029d00 	lui	v0,0x9d00
9d004008:	0060a825 	move	s5,v1
9d00400c:	8c431f68 	lw	v1,8040(v0)
9d004010:	8c421f6c 	lw	v0,8044(v0)
9d004014:	00004825 	move	t1,zero
9d004018:	afa30238 	sw	v1,568(sp)
9d00401c:	afa20240 	sw	v0,576(sp)
9d004020:	3c029d00 	lui	v0,0x9d00
9d004024:	8c431f74 	lw	v1,8052(v0)
9d004028:	8c421f70 	lw	v0,8048(v0)
9d00402c:	27be0218 	addiu	s8,sp,536
9d004030:	afa3024c 	sw	v1,588(sp)
9d004034:	afa20248 	sw	v0,584(sp)
9d004038:	8fa20238 	lw	v0,568(sp)
9d00403c:	afa20244 	sw	v0,580(sp)
9d004040:	8fa20240 	lw	v0,576(sp)
9d004044:	afa20250 	sw	v0,592(sp)
9d004048:	8faa0230 	lw	t2,560(sp)
9d00404c:	8fab0234 	lw	t3,564(sp)
9d004050:	00003025 	move	a2,zero
9d004054:	01402025 	move	a0,t2
9d004058:	01602825 	move	a1,t3
9d00405c:	00003825 	move	a3,zero
9d004060:	afa90254 	sw	t1,596(sp)
9d004064:	afaa0258 	sw	t2,600(sp)
9d004068:	0f402315 	jal	9d008c54 <__eqdf2>
9d00406c:	afab025c 	sw	t3,604(sp)
9d004070:	8faa0258 	lw	t2,600(sp)
9d004074:	8fab025c 	lw	t3,604(sp)
9d004078:	1440000d 	bnez	v0,9d0040b0 <_fconvert+0x208>
9d00407c:	8fa90254 	lw	t1,596(sp)
9d004080:	8fa30298 	lw	v1,664(sp)
9d004084:	24020046 	li	v0,70
9d004088:	10620003 	beq	v1,v0,9d004098 <_fconvert+0x1f0>
9d00408c:	24020066 	li	v0,102
9d004090:	546200ab 	bnel	v1,v0,9d004340 <_fconvert+0x498>
9d004094:	27be001a 	addiu	s8,sp,26
9d004098:	5520005c 	bnezl	t1,9d00420c <_fconvert+0x364>
9d00409c:	27a3001a 	addiu	v1,sp,26
9d0040a0:	24020030 	li	v0,48
9d0040a4:	a3a2001a 	sb	v0,26(sp)
9d0040a8:	10000026 	b	9d004144 <_fconvert+0x29c>
9d0040ac:	27a3001b 	addiu	v1,sp,27
9d0040b0:	8fa60238 	lw	a2,568(sp)
9d0040b4:	8fa70240 	lw	a3,576(sp)
9d0040b8:	01402025 	move	a0,t2
9d0040bc:	01602825 	move	a1,t3
9d0040c0:	0f401267 	jal	9d00499c <__divdf3>
9d0040c4:	afa90258 	sw	t1,600(sp)
9d0040c8:	00402025 	move	a0,v0
9d0040cc:	27a60230 	addiu	a2,sp,560
9d0040d0:	0f4023aa 	jal	9d008ea8 <dpmodf>
9d0040d4:	00602825 	move	a1,v1
9d0040d8:	8fa60248 	lw	a2,584(sp)
9d0040dc:	8fa7024c 	lw	a3,588(sp)
9d0040e0:	00402025 	move	a0,v0
9d0040e4:	00602825 	move	a1,v1
9d0040e8:	afa20228 	sw	v0,552(sp)
9d0040ec:	0f4015b6 	jal	9d0056d8 <__adddf3>
9d0040f0:	afa3022c 	sw	v1,556(sp)
9d0040f4:	8fa60244 	lw	a2,580(sp)
9d0040f8:	8fa70250 	lw	a3,592(sp)
9d0040fc:	00402025 	move	a0,v0
9d004100:	0f4019a3 	jal	9d00668c <__muldf3>
9d004104:	00602825 	move	a1,v1
9d004108:	00402025 	move	a0,v0
9d00410c:	0f4026da 	jal	9d009b68 <__fixdfsi>
9d004110:	00602825 	move	a1,v1
9d004114:	8fa90258 	lw	t1,600(sp)
9d004118:	27deffff 	addiu	s8,s8,-1
9d00411c:	24420030 	addiu	v0,v0,48
9d004120:	a3c20001 	sb	v0,1(s8)
9d004124:	1000ffc8 	b	9d004048 <_fconvert+0x1a0>
9d004128:	25290001 	addiu	t1,t1,1
9d00412c:	24630001 	addiu	v1,v1,1
9d004130:	a062ffff 	sb	v0,-1(v1)
9d004134:	27de0001 	addiu	s8,s8,1
9d004138:	03c4102b 	sltu	v0,s8,a0
9d00413c:	5440fffb 	bnezl	v0,9d00412c <_fconvert+0x284>
9d004140:	83c20000 	lb	v0,0(s8)
9d004144:	16000005 	bnez	s0,9d00415c <_fconvert+0x2b4>
9d004148:	2402002e 	li	v0,46
9d00414c:	32220800 	andi	v0,s1,0x800
9d004150:	104000ae 	beqz	v0,9d00440c <_fconvert+0x564>
9d004154:	00003025 	move	a2,zero
9d004158:	2402002e 	li	v0,46
9d00415c:	a0620000 	sb	v0,0(v1)
9d004160:	00003025 	move	a2,zero
9d004164:	00003825 	move	a3,zero
9d004168:	02802025 	move	a0,s4
9d00416c:	02a02825 	move	a1,s5
9d004170:	0f402315 	jal	9d008c54 <__eqdf2>
9d004174:	247e0001 	addiu	s8,v1,1
9d004178:	10400052 	beqz	v0,9d0042c4 <_fconvert+0x41c>
9d00417c:	27a2001a 	addiu	v0,sp,26
9d004180:	12000028 	beqz	s0,9d004224 <_fconvert+0x37c>
9d004184:	3c029d00 	lui	v0,0x9d00
9d004188:	8c431f6c 	lw	v1,8044(v0)
9d00418c:	8c421f68 	lw	v0,8040(v0)
9d004190:	afa3023c 	sw	v1,572(sp)
9d004194:	afa20238 	sw	v0,568(sp)
9d004198:	8fa7023c 	lw	a3,572(sp)
9d00419c:	8fa60238 	lw	a2,568(sp)
9d0041a0:	02802025 	move	a0,s4
9d0041a4:	0f4019a3 	jal	9d00668c <__muldf3>
9d0041a8:	02a02825 	move	a1,s5
9d0041ac:	00402025 	move	a0,v0
9d0041b0:	27a60228 	addiu	a2,sp,552
9d0041b4:	0f4023aa 	jal	9d008ea8 <dpmodf>
9d0041b8:	00602825 	move	a1,v1
9d0041bc:	8fa40228 	lw	a0,552(sp)
9d0041c0:	8fa5022c 	lw	a1,556(sp)
9d0041c4:	0040a025 	move	s4,v0
9d0041c8:	0f4026da 	jal	9d009b68 <__fixdfsi>
9d0041cc:	0060a825 	move	s5,v1
9d0041d0:	27de0001 	addiu	s8,s8,1
9d0041d4:	24420030 	addiu	v0,v0,48
9d0041d8:	2610ffff 	addiu	s0,s0,-1
9d0041dc:	a3c2ffff 	sb	v0,-1(s8)
9d0041e0:	00003025 	move	a2,zero
9d0041e4:	00003825 	move	a3,zero
9d0041e8:	02802025 	move	a0,s4
9d0041ec:	12000009 	beqz	s0,9d004214 <_fconvert+0x36c>
9d0041f0:	02a02825 	move	a1,s5
9d0041f4:	0f402315 	jal	9d008c54 <__eqdf2>
9d0041f8:	00000000 	nop
9d0041fc:	1440ffe7 	bnez	v0,9d00419c <_fconvert+0x2f4>
9d004200:	8fa7023c 	lw	a3,572(sp)
9d004204:	1000002f 	b	9d0042c4 <_fconvert+0x41c>
9d004208:	27a2001a 	addiu	v0,sp,26
9d00420c:	1000ffc9 	b	9d004134 <_fconvert+0x28c>
9d004210:	27a40219 	addiu	a0,sp,537
9d004214:	0f402315 	jal	9d008c54 <__eqdf2>
9d004218:	00000000 	nop
9d00421c:	10400029 	beqz	v0,9d0042c4 <_fconvert+0x41c>
9d004220:	27a2001a 	addiu	v0,sp,26
9d004224:	3c029d00 	lui	v0,0x9d00
9d004228:	8c461f68 	lw	a2,8040(v0)
9d00422c:	8c471f6c 	lw	a3,8044(v0)
9d004230:	02802025 	move	a0,s4
9d004234:	0f4019a3 	jal	9d00668c <__muldf3>
9d004238:	02a02825 	move	a1,s5
9d00423c:	00402025 	move	a0,v0
9d004240:	27a60220 	addiu	a2,sp,544
9d004244:	0f4023aa 	jal	9d008ea8 <dpmodf>
9d004248:	00602825 	move	a1,v1
9d00424c:	3c029d00 	lui	v0,0x9d00
9d004250:	8c461f78 	lw	a2,8056(v0)
9d004254:	8c471f7c 	lw	a3,8060(v0)
9d004258:	8fa40220 	lw	a0,544(sp)
9d00425c:	8fa50224 	lw	a1,548(sp)
9d004260:	0f402315 	jal	9d008c54 <__eqdf2>
9d004264:	27b0001a 	addiu	s0,sp,26
9d004268:	18400015 	blez	v0,9d0042c0 <_fconvert+0x418>
9d00426c:	02001025 	move	v0,s0
9d004270:	27c2ffff 	addiu	v0,s8,-1
9d004274:	2404002e 	li	a0,46
9d004278:	24050030 	li	a1,48
9d00427c:	80430000 	lb	v1,0(v0)
9d004280:	50640001 	beql	v1,a0,9d004288 <_fconvert+0x3e0>
9d004284:	2442ffff 	addiu	v0,v0,-1
9d004288:	90430000 	lbu	v1,0(v0)
9d00428c:	24630001 	addiu	v1,v1,1
9d004290:	7c031c20 	seb	v1,v1
9d004294:	2866003a 	slti	a2,v1,58
9d004298:	10c00004 	beqz	a2,9d0042ac <_fconvert+0x404>
9d00429c:	00000000 	nop
9d0042a0:	a0430000 	sb	v1,0(v0)
9d0042a4:	10000006 	b	9d0042c0 <_fconvert+0x418>
9d0042a8:	02001025 	move	v0,s0
9d0042ac:	14500008 	bne	v0,s0,9d0042d0 <_fconvert+0x428>
9d0042b0:	a0450000 	sb	a1,0(v0)
9d0042b4:	24020031 	li	v0,49
9d0042b8:	a3a20019 	sb	v0,25(sp)
9d0042bc:	27a20019 	addiu	v0,sp,25
9d0042c0:	00008025 	move	s0,zero
9d0042c4:	03d08021 	addu	s0,s8,s0
9d0042c8:	10000004 	b	9d0042dc <_fconvert+0x434>
9d0042cc:	24030030 	li	v1,48
9d0042d0:	1000ffea 	b	9d00427c <_fconvert+0x3d4>
9d0042d4:	2442ffff 	addiu	v0,v0,-1
9d0042d8:	a3c3ffff 	sb	v1,-1(s8)
9d0042dc:	561efffe 	bnel	s0,s8,9d0042d8 <_fconvert+0x430>
9d0042e0:	27de0001 	addiu	s8,s8,1
9d0042e4:	03c2f023 	subu	s8,s8,v0
9d0042e8:	83a20019 	lb	v0,25(sp)
9d0042ec:	14400002 	bnez	v0,9d0042f8 <_fconvert+0x450>
9d0042f0:	27b40019 	addiu	s4,sp,25
9d0042f4:	27b4001a 	addiu	s4,sp,26
9d0042f8:	12e00013 	beqz	s7,9d004348 <_fconvert+0x4a0>
9d0042fc:	32220002 	andi	v0,s1,0x2
9d004300:	a297ffff 	sb	s7,-1(s4)
9d004304:	27de0001 	addiu	s8,s8,1
9d004308:	2694ffff 	addiu	s4,s4,-1
9d00430c:	32370008 	andi	s7,s1,0x8
9d004310:	12e00016 	beqz	s7,9d00436c <_fconvert+0x4c4>
9d004314:	03d6a821 	addu	s5,s8,s6
9d004318:	02603025 	move	a2,s3
9d00431c:	03c02825 	move	a1,s8
9d004320:	0f402826 	jal	9d00a098 <__sputn>
9d004324:	02802025 	move	a0,s4
9d004328:	2410ffff 	li	s0,-1
9d00432c:	14500021 	bne	v0,s0,9d0043b4 <_fconvert+0x50c>
9d004330:	0255102a 	slt	v0,s2,s5
9d004334:	0242a80a 	movz	s5,s2,v0
9d004338:	1000fefb 	b	9d003f28 <_fconvert+0x80>
9d00433c:	02a01025 	move	v0,s5
9d004340:	1000ffe8 	b	9d0042e4 <_fconvert+0x43c>
9d004344:	03c01025 	move	v0,s8
9d004348:	10400004 	beqz	v0,9d00435c <_fconvert+0x4b4>
9d00434c:	32220001 	andi	v0,s1,0x1
9d004350:	2402002b 	li	v0,43
9d004354:	1000ffeb 	b	9d004304 <_fconvert+0x45c>
9d004358:	a282ffff 	sb	v0,-1(s4)
9d00435c:	1040ffec 	beqz	v0,9d004310 <_fconvert+0x468>
9d004360:	32370008 	andi	s7,s1,0x8
9d004364:	1000fffb 	b	9d004354 <_fconvert+0x4ac>
9d004368:	24020020 	li	v0,32
9d00436c:	02b2102a 	slt	v0,s5,s2
9d004370:	1040ffea 	beqz	v0,9d00431c <_fconvert+0x474>
9d004374:	02603025 	move	a2,s3
9d004378:	32310004 	andi	s1,s1,0x4
9d00437c:	1220000a 	beqz	s1,9d0043a8 <_fconvert+0x500>
9d004380:	02552823 	subu	a1,s2,s5
9d004384:	3c069d01 	lui	a2,0x9d01
9d004388:	24c6a5e8 	addiu	a2,a2,-23064
9d00438c:	0f40271f 	jal	9d009c7c <repl>
9d004390:	02602025 	move	a0,s3
9d004394:	2403ffff 	li	v1,-1
9d004398:	1443ffe0 	bne	v0,v1,9d00431c <_fconvert+0x474>
9d00439c:	02603025 	move	a2,s3
9d0043a0:	1000ffe4 	b	9d004334 <_fconvert+0x48c>
9d0043a4:	0255102a 	slt	v0,s2,s5
9d0043a8:	3c069d01 	lui	a2,0x9d01
9d0043ac:	1000fff7 	b	9d00438c <_fconvert+0x4e4>
9d0043b0:	24c6a608 	addiu	a2,a2,-23032
9d0043b4:	16c0000d 	bnez	s6,9d0043ec <_fconvert+0x544>
9d0043b8:	3c069d01 	lui	a2,0x9d01
9d0043bc:	12e0ffdd 	beqz	s7,9d004334 <_fconvert+0x48c>
9d0043c0:	0255102a 	slt	v0,s2,s5
9d0043c4:	02b2102a 	slt	v0,s5,s2
9d0043c8:	5040ffda 	beqzl	v0,9d004334 <_fconvert+0x48c>
9d0043cc:	0255102a 	slt	v0,s2,s5
9d0043d0:	3c069d01 	lui	a2,0x9d01
9d0043d4:	24c6a608 	addiu	a2,a2,-23032
9d0043d8:	02552823 	subu	a1,s2,s5
9d0043dc:	0f40271f 	jal	9d009c7c <repl>
9d0043e0:	02602025 	move	a0,s3
9d0043e4:	1000ffd3 	b	9d004334 <_fconvert+0x48c>
9d0043e8:	0255102a 	slt	v0,s2,s5
9d0043ec:	24c6a5e8 	addiu	a2,a2,-23064
9d0043f0:	02c02825 	move	a1,s6
9d0043f4:	0f40271f 	jal	9d009c7c <repl>
9d0043f8:	02602025 	move	a0,s3
9d0043fc:	1450ffef 	bne	v0,s0,9d0043bc <_fconvert+0x514>
9d004400:	0255102a 	slt	v0,s2,s5
9d004404:	1000ffcc 	b	9d004338 <_fconvert+0x490>
9d004408:	0242a80a 	movz	s5,s2,v0
9d00440c:	00003825 	move	a3,zero
9d004410:	02802025 	move	a0,s4
9d004414:	02a02825 	move	a1,s5
9d004418:	0f402315 	jal	9d008c54 <__eqdf2>
9d00441c:	afa30238 	sw	v1,568(sp)
9d004420:	8fa30238 	lw	v1,568(sp)
9d004424:	1000ff7d 	b	9d00421c <_fconvert+0x374>
9d004428:	0060f025 	move	s8,v1

Disassembly of section .text.realloc:

9d00442c <realloc>:
9d00442c:	27bdffc8 	addiu	sp,sp,-56
9d004430:	afb00010 	sw	s0,16(sp)
9d004434:	00808025 	move	s0,a0
9d004438:	afbf0034 	sw	ra,52(sp)
9d00443c:	afbe0030 	sw	s8,48(sp)
9d004440:	afb7002c 	sw	s7,44(sp)
9d004444:	afb60028 	sw	s6,40(sp)
9d004448:	afb50024 	sw	s5,36(sp)
9d00444c:	afb40020 	sw	s4,32(sp)
9d004450:	afb3001c 	sw	s3,28(sp)
9d004454:	afb20018 	sw	s2,24(sp)
9d004458:	afb10014 	sw	s1,20(sp)
9d00445c:	16000011 	bnez	s0,9d0044a4 <realloc+0x78>
9d004460:	00a02025 	move	a0,a1
9d004464:	0f400c86 	jal	9d003218 <malloc>
9d004468:	00000000 	nop
9d00446c:	0040a025 	move	s4,v0
9d004470:	8fbf0034 	lw	ra,52(sp)
9d004474:	02801025 	move	v0,s4
9d004478:	8fbe0030 	lw	s8,48(sp)
9d00447c:	8fb7002c 	lw	s7,44(sp)
9d004480:	8fb60028 	lw	s6,40(sp)
9d004484:	8fb50024 	lw	s5,36(sp)
9d004488:	8fb40020 	lw	s4,32(sp)
9d00448c:	8fb3001c 	lw	s3,28(sp)
9d004490:	8fb20018 	lw	s2,24(sp)
9d004494:	8fb10014 	lw	s1,20(sp)
9d004498:	8fb00010 	lw	s0,16(sp)
9d00449c:	03e00008 	jr	ra
9d0044a0:	27bd0038 	addiu	sp,sp,56
9d0044a4:	24a2000b 	addiu	v0,a1,11
9d0044a8:	2c430017 	sltiu	v1,v0,23
9d0044ac:	54600009 	bnezl	v1,9d0044d4 <realloc+0xa8>
9d0044b0:	24160010 	li	s6,16
9d0044b4:	7c021004 	ins	v0,zero,0x0,0x3
9d0044b8:	04410006 	bgez	v0,9d0044d4 <realloc+0xa8>
9d0044bc:	0040b025 	move	s6,v0
9d0044c0:	3c02a000 	lui	v0,0xa000
9d0044c4:	2403000c 	li	v1,12
9d0044c8:	ac430038 	sw	v1,56(v0)
9d0044cc:	1000ffe8 	b	9d004470 <realloc+0x44>
9d0044d0:	0000a025 	move	s4,zero
9d0044d4:	02c4102b 	sltu	v0,s6,a0
9d0044d8:	1440fffa 	bnez	v0,9d0044c4 <realloc+0x98>
9d0044dc:	3c02a000 	lui	v0,0xa000
9d0044e0:	8e1efffc 	lw	s8,-4(s0)
9d0044e4:	03c09025 	move	s2,s8
9d0044e8:	7c120804 	ins	s2,zero,0x0,0x2
9d0044ec:	0256102a 	slt	v0,s2,s6
9d0044f0:	10400122 	beqz	v0,9d00497c <realloc+0x550>
9d0044f4:	2613fff8 	addiu	s3,s0,-8
9d0044f8:	3c17a000 	lui	s7,0xa000
9d0044fc:	26f700c8 	addiu	s7,s7,200
9d004500:	8ee20008 	lw	v0,8(s7)
9d004504:	02721821 	addu	v1,s3,s2
9d004508:	10430008 	beq	v0,v1,9d00452c <realloc+0x100>
9d00450c:	8c660004 	lw	a2,4(v1)
9d004510:	00c02825 	move	a1,a2
9d004514:	7c050004 	ins	a1,zero,0x0,0x1
9d004518:	00652821 	addu	a1,v1,a1
9d00451c:	8ca50004 	lw	a1,4(a1)
9d004520:	30a50001 	andi	a1,a1,0x1
9d004524:	54a0001c 	bnezl	a1,9d004598 <realloc+0x16c>
9d004528:	00003025 	move	a2,zero
9d00452c:	7c060804 	ins	a2,zero,0x0,0x2
9d004530:	14430010 	bne	v0,v1,9d004574 <realloc+0x148>
9d004534:	0246a821 	addu	s5,s2,a2
9d004538:	26c50010 	addiu	a1,s6,16
9d00453c:	02a5282a 	slt	a1,s5,a1
9d004540:	14a00017 	bnez	a1,9d0045a0 <realloc+0x174>
9d004544:	33c50001 	andi	a1,s8,0x1
9d004548:	02b61023 	subu	v0,s5,s6
9d00454c:	02769821 	addu	s3,s3,s6
9d004550:	34420001 	ori	v0,v0,0x1
9d004554:	aef30008 	sw	s3,8(s7)
9d004558:	ae620004 	sw	v0,4(s3)
9d00455c:	8e02fffc 	lw	v0,-4(s0)
9d004560:	0200a025 	move	s4,s0
9d004564:	30420001 	andi	v0,v0,0x1
9d004568:	00561025 	or	v0,v0,s6
9d00456c:	1000ffc0 	b	9d004470 <realloc+0x44>
9d004570:	ae02fffc 	sw	v0,-4(s0)
9d004574:	02b6282a 	slt	a1,s5,s6
9d004578:	14a00009 	bnez	a1,9d0045a0 <realloc+0x174>
9d00457c:	33c50001 	andi	a1,s8,0x1
9d004580:	8c62000c 	lw	v0,12(v1)
9d004584:	8c630008 	lw	v1,8(v1)
9d004588:	ac62000c 	sw	v0,12(v1)
9d00458c:	ac430008 	sw	v1,8(v0)
9d004590:	10000069 	b	9d004738 <realloc+0x30c>
9d004594:	02608825 	move	s1,s3
9d004598:	00001825 	move	v1,zero
9d00459c:	33c50001 	andi	a1,s8,0x1
9d0045a0:	14a000ba 	bnez	a1,9d00488c <realloc+0x460>
9d0045a4:	00000000 	nop
9d0045a8:	8e11fff8 	lw	s1,-8(s0)
9d0045ac:	02718823 	subu	s1,s3,s1
9d0045b0:	8e340004 	lw	s4,4(s1)
9d0045b4:	7c140804 	ins	s4,zero,0x0,0x2
9d0045b8:	10600084 	beqz	v1,9d0047cc <realloc+0x3a0>
9d0045bc:	0292a021 	addu	s4,s4,s2
9d0045c0:	1443003d 	bne	v0,v1,9d0046b8 <realloc+0x28c>
9d0045c4:	00d4a821 	addu	s5,a2,s4
9d0045c8:	26c20010 	addiu	v0,s6,16
9d0045cc:	02a2102a 	slt	v0,s5,v0
9d0045d0:	1440007f 	bnez	v0,9d0047d0 <realloc+0x3a4>
9d0045d4:	0296102a 	slt	v0,s4,s6
9d0045d8:	8e22000c 	lw	v0,12(s1)
9d0045dc:	8e230008 	lw	v1,8(s1)
9d0045e0:	2646fffc 	addiu	a2,s2,-4
9d0045e4:	ac62000c 	sw	v0,12(v1)
9d0045e8:	ac430008 	sw	v1,8(v0)
9d0045ec:	2cc20025 	sltiu	v0,a2,37
9d0045f0:	1040002c 	beqz	v0,9d0046a4 <realloc+0x278>
9d0045f4:	26340008 	addiu	s4,s1,8
9d0045f8:	2cc20014 	sltiu	v0,a2,20
9d0045fc:	1440000a 	bnez	v0,9d004628 <realloc+0x1fc>
9d004600:	02801825 	move	v1,s4
9d004604:	8e020000 	lw	v0,0(s0)
9d004608:	ae220008 	sw	v0,8(s1)
9d00460c:	8e020004 	lw	v0,4(s0)
9d004610:	ae22000c 	sw	v0,12(s1)
9d004614:	2cc2001c 	sltiu	v0,a2,28
9d004618:	50400013 	beqzl	v0,9d004668 <realloc+0x23c>
9d00461c:	8e020008 	lw	v0,8(s0)
9d004620:	26100008 	addiu	s0,s0,8
9d004624:	26230010 	addiu	v1,s1,16
9d004628:	8e020000 	lw	v0,0(s0)
9d00462c:	ac620000 	sw	v0,0(v1)
9d004630:	8e020004 	lw	v0,4(s0)
9d004634:	ac620004 	sw	v0,4(v1)
9d004638:	8e020008 	lw	v0,8(s0)
9d00463c:	ac620008 	sw	v0,8(v1)
9d004640:	02b61023 	subu	v0,s5,s6
9d004644:	02361821 	addu	v1,s1,s6
9d004648:	34420001 	ori	v0,v0,0x1
9d00464c:	aee30008 	sw	v1,8(s7)
9d004650:	ac620004 	sw	v0,4(v1)
9d004654:	8e220004 	lw	v0,4(s1)
9d004658:	30420001 	andi	v0,v0,0x1
9d00465c:	00561025 	or	v0,v0,s6
9d004660:	1000ff83 	b	9d004470 <realloc+0x44>
9d004664:	ae220004 	sw	v0,4(s1)
9d004668:	ae220010 	sw	v0,16(s1)
9d00466c:	8e02000c 	lw	v0,12(s0)
9d004670:	ae220014 	sw	v0,20(s1)
9d004674:	24020024 	li	v0,36
9d004678:	50c20004 	beql	a2,v0,9d00468c <realloc+0x260>
9d00467c:	8e020010 	lw	v0,16(s0)
9d004680:	26100010 	addiu	s0,s0,16
9d004684:	1000ffe8 	b	9d004628 <realloc+0x1fc>
9d004688:	26230018 	addiu	v1,s1,24
9d00468c:	26230020 	addiu	v1,s1,32
9d004690:	26100018 	addiu	s0,s0,24
9d004694:	ae220018 	sw	v0,24(s1)
9d004698:	8e02fffc 	lw	v0,-4(s0)
9d00469c:	1000ffe2 	b	9d004628 <realloc+0x1fc>
9d0046a0:	ae22001c 	sw	v0,28(s1)
9d0046a4:	02002825 	move	a1,s0
9d0046a8:	0f402840 	jal	9d00a100 <memmove>
9d0046ac:	02802025 	move	a0,s4
9d0046b0:	1000ffe4 	b	9d004644 <realloc+0x218>
9d0046b4:	02b61023 	subu	v0,s5,s6
9d0046b8:	02b6102a 	slt	v0,s5,s6
9d0046bc:	14400044 	bnez	v0,9d0047d0 <realloc+0x3a4>
9d0046c0:	0296102a 	slt	v0,s4,s6
9d0046c4:	8c62000c 	lw	v0,12(v1)
9d0046c8:	8c630008 	lw	v1,8(v1)
9d0046cc:	2646fffc 	addiu	a2,s2,-4
9d0046d0:	ac62000c 	sw	v0,12(v1)
9d0046d4:	ac430008 	sw	v1,8(v0)
9d0046d8:	8e230008 	lw	v1,8(s1)
9d0046dc:	8e22000c 	lw	v0,12(s1)
9d0046e0:	ac62000c 	sw	v0,12(v1)
9d0046e4:	ac430008 	sw	v1,8(v0)
9d0046e8:	2cc20025 	sltiu	v0,a2,37
9d0046ec:	10400033 	beqz	v0,9d0047bc <realloc+0x390>
9d0046f0:	26240008 	addiu	a0,s1,8
9d0046f4:	2cc20014 	sltiu	v0,a2,20
9d0046f8:	1440000a 	bnez	v0,9d004724 <realloc+0x2f8>
9d0046fc:	8e020000 	lw	v0,0(s0)
9d004700:	ae220008 	sw	v0,8(s1)
9d004704:	8e020004 	lw	v0,4(s0)
9d004708:	ae22000c 	sw	v0,12(s1)
9d00470c:	2cc2001c 	sltiu	v0,a2,28
9d004710:	5040001b 	beqzl	v0,9d004780 <realloc+0x354>
9d004714:	8e020008 	lw	v0,8(s0)
9d004718:	26100008 	addiu	s0,s0,8
9d00471c:	26240010 	addiu	a0,s1,16
9d004720:	8e020000 	lw	v0,0(s0)
9d004724:	ac820000 	sw	v0,0(a0)
9d004728:	8e020004 	lw	v0,4(s0)
9d00472c:	ac820004 	sw	v0,4(a0)
9d004730:	8e020008 	lw	v0,8(s0)
9d004734:	ac820008 	sw	v0,8(a0)
9d004738:	8e220004 	lw	v0,4(s1)
9d00473c:	02b62823 	subu	a1,s5,s6
9d004740:	2ca40010 	sltiu	a0,a1,16
9d004744:	30420001 	andi	v0,v0,0x1
9d004748:	1480008e 	bnez	a0,9d004984 <realloc+0x558>
9d00474c:	02351821 	addu	v1,s1,s5
9d004750:	02362021 	addu	a0,s1,s6
9d004754:	02c21025 	or	v0,s6,v0
9d004758:	34a50001 	ori	a1,a1,0x1
9d00475c:	ae220004 	sw	v0,4(s1)
9d004760:	ac850004 	sw	a1,4(a0)
9d004764:	8c620004 	lw	v0,4(v1)
9d004768:	24840008 	addiu	a0,a0,8
9d00476c:	34420001 	ori	v0,v0,0x1
9d004770:	0f401d2c 	jal	9d0074b0 <free>
9d004774:	ac620004 	sw	v0,4(v1)
9d004778:	1000ff3d 	b	9d004470 <realloc+0x44>
9d00477c:	26340008 	addiu	s4,s1,8
9d004780:	ae220010 	sw	v0,16(s1)
9d004784:	8e02000c 	lw	v0,12(s0)
9d004788:	ae220014 	sw	v0,20(s1)
9d00478c:	24020024 	li	v0,36
9d004790:	50c20004 	beql	a2,v0,9d0047a4 <realloc+0x378>
9d004794:	8e020010 	lw	v0,16(s0)
9d004798:	26100010 	addiu	s0,s0,16
9d00479c:	1000ffe0 	b	9d004720 <realloc+0x2f4>
9d0047a0:	26240018 	addiu	a0,s1,24
9d0047a4:	26240020 	addiu	a0,s1,32
9d0047a8:	26100018 	addiu	s0,s0,24
9d0047ac:	ae220018 	sw	v0,24(s1)
9d0047b0:	8e02fffc 	lw	v0,-4(s0)
9d0047b4:	1000ffda 	b	9d004720 <realloc+0x2f4>
9d0047b8:	ae22001c 	sw	v0,28(s1)
9d0047bc:	0f402840 	jal	9d00a100 <memmove>
9d0047c0:	02002825 	move	a1,s0
9d0047c4:	1000ffdd 	b	9d00473c <realloc+0x310>
9d0047c8:	8e220004 	lw	v0,4(s1)
9d0047cc:	0296102a 	slt	v0,s4,s6
9d0047d0:	1440002e 	bnez	v0,9d00488c <realloc+0x460>
9d0047d4:	2646fffc 	addiu	a2,s2,-4
9d0047d8:	8e22000c 	lw	v0,12(s1)
9d0047dc:	8e230008 	lw	v1,8(s1)
9d0047e0:	ac62000c 	sw	v0,12(v1)
9d0047e4:	ac430008 	sw	v1,8(v0)
9d0047e8:	2cc20025 	sltiu	v0,a2,37
9d0047ec:	10400023 	beqz	v0,9d00487c <realloc+0x450>
9d0047f0:	26240008 	addiu	a0,s1,8
9d0047f4:	2cc20014 	sltiu	v0,a2,20
9d0047f8:	1440000a 	bnez	v0,9d004824 <realloc+0x3f8>
9d0047fc:	8e020000 	lw	v0,0(s0)
9d004800:	ae220008 	sw	v0,8(s1)
9d004804:	8e020004 	lw	v0,4(s0)
9d004808:	ae22000c 	sw	v0,12(s1)
9d00480c:	2cc2001c 	sltiu	v0,a2,28
9d004810:	5040000b 	beqzl	v0,9d004840 <realloc+0x414>
9d004814:	8e020008 	lw	v0,8(s0)
9d004818:	26100008 	addiu	s0,s0,8
9d00481c:	26240010 	addiu	a0,s1,16
9d004820:	8e020000 	lw	v0,0(s0)
9d004824:	ac820000 	sw	v0,0(a0)
9d004828:	8e020004 	lw	v0,4(s0)
9d00482c:	ac820004 	sw	v0,4(a0)
9d004830:	8e020008 	lw	v0,8(s0)
9d004834:	ac820008 	sw	v0,8(a0)
9d004838:	1000ffbf 	b	9d004738 <realloc+0x30c>
9d00483c:	0280a825 	move	s5,s4
9d004840:	ae220010 	sw	v0,16(s1)
9d004844:	8e02000c 	lw	v0,12(s0)
9d004848:	ae220014 	sw	v0,20(s1)
9d00484c:	24020024 	li	v0,36
9d004850:	50c20004 	beql	a2,v0,9d004864 <realloc+0x438>
9d004854:	8e020010 	lw	v0,16(s0)
9d004858:	26100010 	addiu	s0,s0,16
9d00485c:	1000fff0 	b	9d004820 <realloc+0x3f4>
9d004860:	26240018 	addiu	a0,s1,24
9d004864:	26240020 	addiu	a0,s1,32
9d004868:	26100018 	addiu	s0,s0,24
9d00486c:	ae220018 	sw	v0,24(s1)
9d004870:	8e02fffc 	lw	v0,-4(s0)
9d004874:	1000ffea 	b	9d004820 <realloc+0x3f4>
9d004878:	ae22001c 	sw	v0,28(s1)
9d00487c:	0f402840 	jal	9d00a100 <memmove>
9d004880:	02002825 	move	a1,s0
9d004884:	1000ffac 	b	9d004738 <realloc+0x30c>
9d004888:	0280a825 	move	s5,s4
9d00488c:	0f400c86 	jal	9d003218 <malloc>
9d004890:	00000000 	nop
9d004894:	1040fef6 	beqz	v0,9d004470 <realloc+0x44>
9d004898:	0040a025 	move	s4,v0
9d00489c:	03c01025 	move	v0,s8
9d0048a0:	7c020004 	ins	v0,zero,0x0,0x1
9d0048a4:	02621021 	addu	v0,s3,v0
9d0048a8:	2683fff8 	addiu	v1,s4,-8
9d0048ac:	54430005 	bnel	v0,v1,9d0048c4 <realloc+0x498>
9d0048b0:	2646fffc 	addiu	a2,s2,-4
9d0048b4:	8e82fffc 	lw	v0,-4(s4)
9d0048b8:	7c020804 	ins	v0,zero,0x0,0x2
9d0048bc:	1000ff34 	b	9d004590 <realloc+0x164>
9d0048c0:	0052a821 	addu	s5,v0,s2
9d0048c4:	2cc20025 	sltiu	v0,a2,37
9d0048c8:	10400027 	beqz	v0,9d004968 <realloc+0x53c>
9d0048cc:	2cc20014 	sltiu	v0,a2,20
9d0048d0:	14400023 	bnez	v0,9d004960 <realloc+0x534>
9d0048d4:	02801025 	move	v0,s4
9d0048d8:	8e020004 	lw	v0,4(s0)
9d0048dc:	8e030000 	lw	v1,0(s0)
9d0048e0:	8e040008 	lw	a0,8(s0)
9d0048e4:	ae820004 	sw	v0,4(s4)
9d0048e8:	2cc2001c 	sltiu	v0,a2,28
9d0048ec:	1040000d 	beqz	v0,9d004924 <realloc+0x4f8>
9d0048f0:	ae830000 	sw	v1,0(s4)
9d0048f4:	26030008 	addiu	v1,s0,8
9d0048f8:	26820008 	addiu	v0,s4,8
9d0048fc:	8c640000 	lw	a0,0(v1)
9d004900:	ac440000 	sw	a0,0(v0)
9d004904:	8c640004 	lw	a0,4(v1)
9d004908:	8c630008 	lw	v1,8(v1)
9d00490c:	ac440004 	sw	a0,4(v0)
9d004910:	ac430008 	sw	v1,8(v0)
9d004914:	0f401d2c 	jal	9d0074b0 <free>
9d004918:	02002025 	move	a0,s0
9d00491c:	1000fed5 	b	9d004474 <realloc+0x48>
9d004920:	8fbf0034 	lw	ra,52(sp)
9d004924:	8e03000c 	lw	v1,12(s0)
9d004928:	8e020010 	lw	v0,16(s0)
9d00492c:	ae840008 	sw	a0,8(s4)
9d004930:	ae83000c 	sw	v1,12(s4)
9d004934:	24030024 	li	v1,36
9d004938:	50c30004 	beql	a2,v1,9d00494c <realloc+0x520>
9d00493c:	8e040014 	lw	a0,20(s0)
9d004940:	26030010 	addiu	v1,s0,16
9d004944:	1000ffed 	b	9d0048fc <realloc+0x4d0>
9d004948:	26820010 	addiu	v0,s4,16
9d00494c:	ae820010 	sw	v0,16(s4)
9d004950:	26030018 	addiu	v1,s0,24
9d004954:	26820018 	addiu	v0,s4,24
9d004958:	1000ffe8 	b	9d0048fc <realloc+0x4d0>
9d00495c:	ae840014 	sw	a0,20(s4)
9d004960:	1000ffe6 	b	9d0048fc <realloc+0x4d0>
9d004964:	02001825 	move	v1,s0
9d004968:	02002825 	move	a1,s0
9d00496c:	0f4029cf 	jal	9d00a73c <memcpy>
9d004970:	02802025 	move	a0,s4
9d004974:	1000ffe7 	b	9d004914 <realloc+0x4e8>
9d004978:	00000000 	nop
9d00497c:	1000ff04 	b	9d004590 <realloc+0x164>
9d004980:	0240a825 	move	s5,s2
9d004984:	02a21025 	or	v0,s5,v0
9d004988:	ae220004 	sw	v0,4(s1)
9d00498c:	8c620004 	lw	v0,4(v1)
9d004990:	34420001 	ori	v0,v0,0x1
9d004994:	1000ff78 	b	9d004778 <realloc+0x34c>
9d004998:	ac620004 	sw	v0,4(v1)

Disassembly of section .text.dp32mul:

9d00499c <__divdf3>:
9d00499c:	00055040 000a5542 00054ac0 00047d42     @P..BU...J..B}..
9d0049ac:	012f4825 000442c0 3c0e8000 012e4825     %H/..B.....<%H..
9d0049bc:	00076840 000d6d42 000762c0 00067d42     @h..Bm...b..B}..
9d0049cc:	018f6025 00065ac0 018e6025 00a72826     %`...Z..%`..&(..
9d0049dc:	00ae2824 254fffff 2de107fe 102000cb     $(....O%...-.. .
9d0049ec:	00000000                                ....

9d0049f0 <Dlab1>:
9d0049f0:	25afffff 	addiu	t7,t5,-1
9d0049f4:	2de107fe 	sltiu	at,t7,2046
9d0049f8:	102000f4 	beqz	at,9d004dcc <DspecB>
9d0049fc:	00000000 	nop

9d004a00 <Dlab2>:
9d004a00:	014d5023 	subu	t2,t2,t5
9d004a04:	254a03ff 	addiu	t2,t2,1023
9d004a08:	00084042 	srl	t0,t0,0x1
9d004a0c:	00097fc0 	sll	t7,t1,0x1f
9d004a10:	010f4025 	or	t0,t0,t7
9d004a14:	00094842 	srl	t1,t1,0x1
9d004a18:	000c3c02 	srl	a3,t4,0x10
9d004a1c:	00e001f4 	teq	a3,zero,0x7
9d004a20:	0127001b 	divu	zero,t1,a3
9d004a24:	00007012 	mflo	t6
9d004a28:	00004810 	mfhi	t1
9d004a2c:	3186ffff 	andi	a2,t4,0xffff
9d004a30:	00ce0019 	multu	a2,t6
9d004a34:	00002012 	mflo	a0
9d004a38:	00094c00 	sll	t1,t1,0x10
9d004a3c:	00087c02 	srl	t7,t0,0x10
9d004a40:	012f4825 	or	t1,t1,t7
9d004a44:	0124782b 	sltu	t7,t1,a0
9d004a48:	11e00006 	beqz	t7,9d004a64 <i20>
9d004a4c:	01244823 	subu	t1,t1,a0

9d004a50 <b21>:
9d004a50:	25ceffff 	addiu	t6,t6,-1
9d004a54:	012c4821 	addu	t1,t1,t4
9d004a58:	012c082b 	sltu	at,t1,t4
9d004a5c:	1020fffc 	beqz	at,9d004a50 <b21>
9d004a60:	00000000 	nop

9d004a64 <i20>:
9d004a64:	00e001f4 	teq	a3,zero,0x7
9d004a68:	0127001b 	divu	zero,t1,a3
9d004a6c:	00003812 	mflo	a3
9d004a70:	00004810 	mfhi	t1
9d004a74:	00c70019 	multu	a2,a3
9d004a78:	00002012 	mflo	a0
9d004a7c:	00094c00 	sll	t1,t1,0x10
9d004a80:	310fffff 	andi	t7,t0,0xffff
9d004a84:	012f4825 	or	t1,t1,t7
9d004a88:	0124782b 	sltu	t7,t1,a0
9d004a8c:	11e00006 	beqz	t7,9d004aa8 <i22>
9d004a90:	01244823 	subu	t1,t1,a0

9d004a94 <b23>:
9d004a94:	24e7ffff 	addiu	a3,a3,-1
9d004a98:	012c4821 	addu	t1,t1,t4
9d004a9c:	012c082b 	sltu	at,t1,t4
9d004aa0:	1020fffc 	beqz	at,9d004a94 <b23>
9d004aa4:	00000000 	nop

9d004aa8 <i22>:
9d004aa8:	000e7400 	sll	t6,t6,0x10
9d004aac:	01c77021 	addu	t6,t6,a3
9d004ab0:	01cb0019 	multu	t6,t3
9d004ab4:	00003812 	mflo	a3
9d004ab8:	00002010 	mfhi	a0
9d004abc:	24080000 	li	t0,0
9d004ac0:	0107782b 	sltu	t7,t0,a3
9d004ac4:	01074023 	subu	t0,t0,a3
9d004ac8:	012f102b 	sltu	v0,t1,t7
9d004acc:	012f4823 	subu	t1,t1,t7
9d004ad0:	0124782b 	sltu	t7,t1,a0
9d004ad4:	01e27825 	or	t7,t7,v0
9d004ad8:	11e0000b 	beqz	t7,9d004b08 <i24>
9d004adc:	01244823 	subu	t1,t1,a0

9d004ae0 <Dlab3>:
9d004ae0:	25ceffff 	addiu	t6,t6,-1
9d004ae4:	010b4021 	addu	t0,t0,t3
9d004ae8:	010b782b 	sltu	t7,t0,t3
9d004aec:	012c4821 	addu	t1,t1,t4
9d004af0:	012f4821 	addu	t1,t1,t7
9d004af4:	112c0002 	beq	t1,t4,9d004b00 <L31>
9d004af8:	00000000 	nop
9d004afc:	012c782b 	sltu	t7,t1,t4

9d004b00 <L31>:
9d004b00:	11e0fff7 	beqz	t7,9d004ae0 <Dlab3>
9d004b04:	00000000 	nop

9d004b08 <i24>:
9d004b08:	152c0006 	bne	t1,t4,9d004b24 <i25>
9d004b0c:	00000000 	nop
9d004b10:	000b2025 	or	a0,zero,t3
9d004b14:	00084825 	or	t1,zero,t0
9d004b18:	240d0000 	li	t5,0
9d004b1c:	1000002a 	b	9d004bc8 <e25>
9d004b20:	000d3825 	or	a3,zero,t5

9d004b24 <i25>:
9d004b24:	000c3c02 	srl	a3,t4,0x10
9d004b28:	00e001f4 	teq	a3,zero,0x7
9d004b2c:	0127001b 	divu	zero,t1,a3
9d004b30:	00006812 	mflo	t5
9d004b34:	00004810 	mfhi	t1
9d004b38:	3186ffff 	andi	a2,t4,0xffff
9d004b3c:	00cd0019 	multu	a2,t5
9d004b40:	00002012 	mflo	a0
9d004b44:	00094c00 	sll	t1,t1,0x10
9d004b48:	00087c02 	srl	t7,t0,0x10
9d004b4c:	012f4825 	or	t1,t1,t7
9d004b50:	0124782b 	sltu	t7,t1,a0
9d004b54:	11e00006 	beqz	t7,9d004b70 <i26>
9d004b58:	01244823 	subu	t1,t1,a0

9d004b5c <b27>:
9d004b5c:	25adffff 	addiu	t5,t5,-1
9d004b60:	012c4821 	addu	t1,t1,t4
9d004b64:	012c082b 	sltu	at,t1,t4
9d004b68:	1020fffc 	beqz	at,9d004b5c <b27>
9d004b6c:	00000000 	nop

9d004b70 <i26>:
9d004b70:	00e001f4 	teq	a3,zero,0x7
9d004b74:	0127001b 	divu	zero,t1,a3
9d004b78:	00003812 	mflo	a3
9d004b7c:	00004810 	mfhi	t1
9d004b80:	00c70019 	multu	a2,a3
9d004b84:	00002012 	mflo	a0
9d004b88:	00094c00 	sll	t1,t1,0x10
9d004b8c:	310fffff 	andi	t7,t0,0xffff
9d004b90:	012f4825 	or	t1,t1,t7
9d004b94:	0124782b 	sltu	t7,t1,a0
9d004b98:	11e00006 	beqz	t7,9d004bb4 <i28>
9d004b9c:	01244823 	subu	t1,t1,a0

9d004ba0 <b29>:
9d004ba0:	24e7ffff 	addiu	a3,a3,-1
9d004ba4:	012c4821 	addu	t1,t1,t4
9d004ba8:	012c082b 	sltu	at,t1,t4
9d004bac:	1020fffc 	beqz	at,9d004ba0 <b29>
9d004bb0:	00000000 	nop

9d004bb4 <i28>:
9d004bb4:	000d6c00 	sll	t5,t5,0x10
9d004bb8:	01a76821 	addu	t5,t5,a3
9d004bbc:	01ab0019 	multu	t5,t3
9d004bc0:	00003812 	mflo	a3
9d004bc4:	00002010 	mfhi	a0

9d004bc8 <e25>:
9d004bc8:	24080000 	li	t0,0
9d004bcc:	0107782b 	sltu	t7,t0,a3
9d004bd0:	01074023 	subu	t0,t0,a3
9d004bd4:	012f102b 	sltu	v0,t1,t7
9d004bd8:	012f4823 	subu	t1,t1,t7
9d004bdc:	0124782b 	sltu	t7,t1,a0
9d004be0:	01e27825 	or	t7,t7,v0
9d004be4:	11e0000b 	beqz	t7,9d004c14 <i30>
9d004be8:	01244823 	subu	t1,t1,a0

9d004bec <Dlab4>:
9d004bec:	25adffff 	addiu	t5,t5,-1
9d004bf0:	010b4021 	addu	t0,t0,t3
9d004bf4:	010b782b 	sltu	t7,t0,t3
9d004bf8:	012c4821 	addu	t1,t1,t4
9d004bfc:	012f4821 	addu	t1,t1,t7
9d004c00:	112c0002 	beq	t1,t4,9d004c0c <L32>
9d004c04:	00000000 	nop
9d004c08:	012c782b 	sltu	t7,t1,t4

9d004c0c <L32>:
9d004c0c:	11e0fff7 	beqz	t7,9d004bec <Dlab4>
9d004c10:	00000000 	nop

9d004c14 <i30>:
9d004c14:	05c00006 	bltz	t6,9d004c30 <i31>
9d004c18:	00000000 	nop
9d004c1c:	01a0782a 	slt	t7,t5,zero
9d004c20:	01ad6821 	addu	t5,t5,t5
9d004c24:	01ce7021 	addu	t6,t6,t6
9d004c28:	01cf7021 	addu	t6,t6,t7
9d004c2c:	254affff 	addiu	t2,t2,-1

9d004c30 <i31>:
9d004c30:	01287825 	or	t7,t1,t0
9d004c34:	11e00002 	beqz	t7,9d004c40 <i32>
9d004c38:	00000000 	nop
9d004c3c:	35ad0001 	ori	t5,t5,0x1

9d004c40 <i32>:
9d004c40:	000e4825 	or	t1,zero,t6
9d004c44:	000d4025 	or	t0,zero,t5
9d004c48:	254fffff 	addiu	t7,t2,-1
9d004c4c:	2de107fe 	sltiu	at,t7,2046
9d004c50:	10200015 	beqz	at,9d004ca8 <Doveund>
9d004c54:	00000000 	nop
9d004c58:	25080400 	addiu	t0,t0,1024
9d004c5c:	2d0f0400 	sltiu	t7,t0,1024
9d004c60:	012f4821 	addu	t1,t1,t7
9d004c64:	012f782b 	sltu	t7,t1,t7
9d004c68:	014f5021 	addu	t2,t2,t7

9d004c6c <Dlab8>:
9d004c6c:	00087ac2 	srl	t7,t0,0xb
9d004c70:	31ef0001 	andi	t7,t7,0x1
9d004c74:	010f4023 	subu	t0,t0,t7
9d004c78:	000822c2 	srl	a0,t0,0xb
9d004c7c:	00097d40 	sll	t7,t1,0x15
9d004c80:	008f2025 	or	a0,a0,t7
9d004c84:	00097840 	sll	t7,t1,0x1
9d004c88:	000f7b02 	srl	t7,t7,0xc
9d004c8c:	00af2825 	or	a1,a1,t7
9d004c90:	000a7d00 	sll	t7,t2,0x14
9d004c94:	00af2825 	or	a1,a1,t7

9d004c98 <Dret>:
9d004c98:	00041025 	or	v0,zero,a0
9d004c9c:	00051825 	or	v1,zero,a1

9d004ca0 <D999>:
9d004ca0:	03e00008 	jr	ra
9d004ca4:	00000000 	nop

9d004ca8 <Doveund>:
9d004ca8:	1d400044 	bgtz	t2,9d004dbc <Dinf>
9d004cac:	00000000 	nop
9d004cb0:	240e0001 	li	t6,1
9d004cb4:	01ca7023 	subu	t6,t6,t2

9d004cb8 <L33>:
9d004cb8:	2dc10020 	sltiu	at,t6,32
9d004cbc:	14200007 	bnez	at,9d004cdc <L34>
9d004cc0:	00000000 	nop
9d004cc4:	21ceffe0 	addi	t6,t6,-32
9d004cc8:	0008202b 	sltu	a0,zero,t0
9d004ccc:	1009000d 	beq	zero,t1,9d004d04 <L35>
9d004cd0:	01244025 	or	t0,t1,a0
9d004cd4:	1000fff8 	b	9d004cb8 <L33>
9d004cd8:	34090000 	li	t1,0x0

9d004cdc <L34>:
9d004cdc:	11c00009 	beqz	t6,9d004d04 <L35>
9d004ce0:	00000000 	nop
9d004ce4:	000e3022 	neg	a2,t6
9d004ce8:	00c82004 	sllv	a0,t0,a2
9d004cec:	00c93004 	sllv	a2,t1,a2
9d004cf0:	01c84006 	srlv	t0,t0,t6
9d004cf4:	01c94806 	srlv	t1,t1,t6
9d004cf8:	10800002 	beqz	a0,9d004d04 <L35>
9d004cfc:	00c84025 	or	t0,a2,t0
9d004d00:	35080002 	ori	t0,t0,0x2

9d004d04 <L35>:
9d004d04:	25080400 	addiu	t0,t0,1024
9d004d08:	2d0f0400 	sltiu	t7,t0,1024
9d004d0c:	012f4821 	addu	t1,t1,t7
9d004d10:	1000ffd6 	b	9d004c6c <Dlab8>
9d004d14:	000957c2 	srl	t2,t1,0x1f

9d004d18 <DspecA>:
9d004d18:	0100782a 	slt	t7,t0,zero
9d004d1c:	01084021 	addu	t0,t0,t0
9d004d20:	01294821 	addu	t1,t1,t1
9d004d24:	15400017 	bnez	t2,9d004d84 <i33>
9d004d28:	012f4821 	addu	t1,t1,t7
9d004d2c:	01287825 	or	t7,t1,t0
9d004d30:	11e00014 	beqz	t7,9d004d84 <i33>
9d004d34:	00000000 	nop
9d004d38:	15200008 	bnez	t1,9d004d5c <L36>
9d004d3c:	00000000 	nop
9d004d40:	15000003 	bnez	t0,9d004d50 <L37>
9d004d44:	00000000 	nop
9d004d48:	1000ff29 	b	9d0049f0 <Dlab1>
9d004d4c:	240a0000 	li	t2,0

9d004d50 <L37>:
9d004d50:	01004825 	move	t1,t0
9d004d54:	24080000 	li	t0,0
9d004d58:	254affe0 	addiu	t2,t2,-32

9d004d5c <L36>:
9d004d5c:	712e7020 	clz	t6,t1
9d004d60:	11c0ff23 	beqz	t6,9d0049f0 <Dlab1>
9d004d64:	00000000 	nop
9d004d68:	014e5023 	subu	t2,t2,t6
9d004d6c:	000e3022 	neg	a2,t6
9d004d70:	00c83006 	srlv	a2,t0,a2
9d004d74:	01c84004 	sllv	t0,t0,t6
9d004d78:	01c94804 	sllv	t1,t1,t6
9d004d7c:	1000ff1c 	b	9d0049f0 <Dlab1>
9d004d80:	01264825 	or	t1,t1,a2

9d004d84 <i33>:
9d004d84:	154d0005 	bne	t2,t5,9d004d9c <i35>
9d004d88:	00000000 	nop
9d004d8c:	000c7840 	sll	t7,t4,0x1
9d004d90:	01eb7825 	or	t7,t7,t3
9d004d94:	11e0002b 	beqz	t7,9d004e44 <Dnan>
9d004d98:	00000000 	nop

9d004d9c <i35>:
9d004d9c:	240107ff 	li	at,2047
9d004da0:	11a1000a 	beq	t5,at,9d004dcc <DspecB>
9d004da4:	00000000 	nop
9d004da8:	1140ffbb 	beqz	t2,9d004c98 <Dret>
9d004dac:	00000000 	nop
9d004db0:	01287825 	or	t7,t1,t0
9d004db4:	15e00023 	bnez	t7,9d004e44 <Dnan>
9d004db8:	00000000 	nop

9d004dbc <Dinf>:
9d004dbc:	3c017ff0 	lui	at,0x7ff0
9d004dc0:	00a12825 	or	a1,a1,at
9d004dc4:	1000ffb4 	b	9d004c98 <Dret>
9d004dc8:	24040000 	li	a0,0

9d004dcc <DspecB>:
9d004dcc:	0160782a 	slt	t7,t3,zero
9d004dd0:	016b5821 	addu	t3,t3,t3
9d004dd4:	018c6021 	addu	t4,t4,t4
9d004dd8:	15a00017 	bnez	t5,9d004e38 <i36>
9d004ddc:	018f6021 	addu	t4,t4,t7
9d004de0:	018b7825 	or	t7,t4,t3
9d004de4:	11e0fff5 	beqz	t7,9d004dbc <Dinf>
9d004de8:	00000000 	nop
9d004dec:	15800008 	bnez	t4,9d004e10 <L39>
9d004df0:	00000000 	nop
9d004df4:	15600003 	bnez	t3,9d004e04 <L40>
9d004df8:	00000000 	nop
9d004dfc:	1000ff00 	b	9d004a00 <Dlab2>
9d004e00:	240d0000 	li	t5,0

9d004e04 <L40>:
9d004e04:	01606025 	move	t4,t3
9d004e08:	240b0000 	li	t3,0
9d004e0c:	25adffe0 	addiu	t5,t5,-32

9d004e10 <L39>:
9d004e10:	718e7020 	clz	t6,t4
9d004e14:	11c0fefa 	beqz	t6,9d004a00 <Dlab2>
9d004e18:	00000000 	nop
9d004e1c:	01ae6823 	subu	t5,t5,t6
9d004e20:	000e3022 	neg	a2,t6
9d004e24:	00cb3006 	srlv	a2,t3,a2
9d004e28:	01cb5804 	sllv	t3,t3,t6
9d004e2c:	01cc6004 	sllv	t4,t4,t6
9d004e30:	1000fef3 	b	9d004a00 <Dlab2>
9d004e34:	01866025 	or	t4,t4,a2

9d004e38 <i36>:
9d004e38:	018b7825 	or	t7,t4,t3
9d004e3c:	11e00002 	beqz	t7,9d004e48 <i38>
9d004e40:	00000000 	nop

9d004e44 <Dnan>:
9d004e44:	3c05fff8 	lui	a1,0xfff8

9d004e48 <i38>:
9d004e48:	1000ff93 	b	9d004c98 <Dret>
9d004e4c:	24040000 	li	a0,0
9d004e50:	00000000 	nop

Disassembly of section .text:

9d004e54 <__divdi3>:
9d004e54:	04a10007 	bgez	a1,9d004e74 <__divdi3+0x20>
9d004e58:	00004825 	move	t1,zero
9d004e5c:	00041023 	negu	v0,a0
9d004e60:	0002402b 	sltu	t0,zero,v0
9d004e64:	00052823 	negu	a1,a1
9d004e68:	00402025 	move	a0,v0
9d004e6c:	00a82823 	subu	a1,a1,t0
9d004e70:	2409ffff 	li	t1,-1
9d004e74:	04e10007 	bgez	a3,9d004e94 <__divdi3+0x40>
9d004e78:	00c04025 	move	t0,a2
9d004e7c:	00063023 	negu	a2,a2
9d004e80:	0006102b 	sltu	v0,zero,a2
9d004e84:	00073823 	negu	a3,a3
9d004e88:	00094827 	nor	t1,zero,t1
9d004e8c:	00e23823 	subu	a3,a3,v0
9d004e90:	00c04025 	move	t0,a2
9d004e94:	00e01825 	move	v1,a3
9d004e98:	00805025 	move	t2,a0
9d004e9c:	14e000aa 	bnez	a3,9d005148 <__divdi3+0x2f4>
9d004ea0:	00a01025 	move	v0,a1
9d004ea4:	00a6302b 	sltu	a2,a1,a2
9d004ea8:	10c0003b 	beqz	a2,9d004f98 <__divdi3+0x144>
9d004eac:	00000000 	nop
9d004eb0:	71052820 	clz	a1,t0
9d004eb4:	50a00008 	beqzl	a1,9d004ed8 <__divdi3+0x84>
9d004eb8:	00082c02 	srl	a1,t0,0x10
9d004ebc:	00a22004 	sllv	a0,v0,a1
9d004ec0:	00051023 	negu	v0,a1
9d004ec4:	004a1006 	srlv	v0,t2,v0
9d004ec8:	00a84004 	sllv	t0,t0,a1
9d004ecc:	00441025 	or	v0,v0,a0
9d004ed0:	00aa5004 	sllv	t2,t2,a1
9d004ed4:	00082c02 	srl	a1,t0,0x10
9d004ed8:	0045001b 	divu	zero,v0,a1
9d004edc:	00a001f4 	teq	a1,zero,0x7
9d004ee0:	310bffff 	andi	t3,t0,0xffff
9d004ee4:	000a1402 	srl	v0,t2,0x10
9d004ee8:	00003812 	mflo	a3
9d004eec:	00002010 	mfhi	a0
9d004ef0:	00042400 	sll	a0,a0,0x10
9d004ef4:	00821025 	or	v0,a0,v0
9d004ef8:	71676002 	mul	t4,t3,a3
9d004efc:	004c202b 	sltu	a0,v0,t4
9d004f00:	1080000a 	beqz	a0,9d004f2c <__divdi3+0xd8>
9d004f04:	00e03025 	move	a2,a3
9d004f08:	00481021 	addu	v0,v0,t0
9d004f0c:	0048202b 	sltu	a0,v0,t0
9d004f10:	14800006 	bnez	a0,9d004f2c <__divdi3+0xd8>
9d004f14:	24e6ffff 	addiu	a2,a3,-1
9d004f18:	004c202b 	sltu	a0,v0,t4
9d004f1c:	50800004 	beqzl	a0,9d004f30 <__divdi3+0xdc>
9d004f20:	004c1023 	subu	v0,v0,t4
9d004f24:	24e6fffe 	addiu	a2,a3,-2
9d004f28:	00481021 	addu	v0,v0,t0
9d004f2c:	004c1023 	subu	v0,v0,t4
9d004f30:	0045001b 	divu	zero,v0,a1
9d004f34:	00a001f4 	teq	a1,zero,0x7
9d004f38:	314affff 	andi	t2,t2,0xffff
9d004f3c:	00001012 	mflo	v0
9d004f40:	00002810 	mfhi	a1
9d004f44:	00052c00 	sll	a1,a1,0x10
9d004f48:	00aa5025 	or	t2,a1,t2
9d004f4c:	71625802 	mul	t3,t3,v0
9d004f50:	014b282b 	sltu	a1,t2,t3
9d004f54:	10a00006 	beqz	a1,9d004f70 <__divdi3+0x11c>
9d004f58:	00402025 	move	a0,v0
9d004f5c:	010a5021 	addu	t2,t0,t2
9d004f60:	0148402b 	sltu	t0,t2,t0
9d004f64:	2444ffff 	addiu	a0,v0,-1
9d004f68:	1100003d 	beqz	t0,9d005060 <__divdi3+0x20c>
9d004f6c:	014b502b 	sltu	t2,t2,t3
9d004f70:	00061400 	sll	v0,a2,0x10
9d004f74:	00441025 	or	v0,v0,a0
9d004f78:	11200005 	beqz	t1,9d004f90 <__divdi3+0x13c>
9d004f7c:	00000000 	nop
9d004f80:	00021023 	negu	v0,v0
9d004f84:	0002202b 	sltu	a0,zero,v0
9d004f88:	00031823 	negu	v1,v1
9d004f8c:	00641823 	subu	v1,v1,a0
9d004f90:	03e00008 	jr	ra
9d004f94:	00000000 	nop
9d004f98:	15000006 	bnez	t0,9d004fb4 <__divdi3+0x160>
9d004f9c:	71021020 	clz	v0,t0
9d004fa0:	24080001 	li	t0,1
9d004fa4:	0107001b 	divu	zero,t0,a3
9d004fa8:	00e001f4 	teq	a3,zero,0x7
9d004fac:	00004012 	mflo	t0
9d004fb0:	71021020 	clz	v0,t0
9d004fb4:	1440002e 	bnez	v0,9d005070 <__divdi3+0x21c>
9d004fb8:	24030020 	li	v1,32
9d004fbc:	00a82823 	subu	a1,a1,t0
9d004fc0:	24030001 	li	v1,1
9d004fc4:	00083c02 	srl	a3,t0,0x10
9d004fc8:	00a7001b 	divu	zero,a1,a3
9d004fcc:	00e001f4 	teq	a3,zero,0x7
9d004fd0:	310bffff 	andi	t3,t0,0xffff
9d004fd4:	000a1402 	srl	v0,t2,0x10
9d004fd8:	00002812 	mflo	a1
9d004fdc:	00002010 	mfhi	a0
9d004fe0:	00042400 	sll	a0,a0,0x10
9d004fe4:	00821025 	or	v0,a0,v0
9d004fe8:	71656002 	mul	t4,t3,a1
9d004fec:	004c202b 	sltu	a0,v0,t4
9d004ff0:	1080000a 	beqz	a0,9d00501c <__divdi3+0x1c8>
9d004ff4:	00a03025 	move	a2,a1
9d004ff8:	00481021 	addu	v0,v0,t0
9d004ffc:	0048202b 	sltu	a0,v0,t0
9d005000:	14800006 	bnez	a0,9d00501c <__divdi3+0x1c8>
9d005004:	24a6ffff 	addiu	a2,a1,-1
9d005008:	004c202b 	sltu	a0,v0,t4
9d00500c:	50800004 	beqzl	a0,9d005020 <__divdi3+0x1cc>
9d005010:	004c1023 	subu	v0,v0,t4
9d005014:	24a6fffe 	addiu	a2,a1,-2
9d005018:	00481021 	addu	v0,v0,t0
9d00501c:	004c1023 	subu	v0,v0,t4
9d005020:	0047001b 	divu	zero,v0,a3
9d005024:	00e001f4 	teq	a3,zero,0x7
9d005028:	314affff 	andi	t2,t2,0xffff
9d00502c:	00001012 	mflo	v0
9d005030:	00003810 	mfhi	a3
9d005034:	00073c00 	sll	a3,a3,0x10
9d005038:	00ea5025 	or	t2,a3,t2
9d00503c:	71622802 	mul	a1,t3,v0
9d005040:	0145382b 	sltu	a3,t2,a1
9d005044:	10e0ffca 	beqz	a3,9d004f70 <__divdi3+0x11c>
9d005048:	00402025 	move	a0,v0
9d00504c:	010a5021 	addu	t2,t0,t2
9d005050:	0148402b 	sltu	t0,t2,t0
9d005054:	1500ffc6 	bnez	t0,9d004f70 <__divdi3+0x11c>
9d005058:	2444ffff 	addiu	a0,v0,-1
9d00505c:	0145502b 	sltu	t2,t2,a1
9d005060:	5540ffc3 	bnezl	t2,9d004f70 <__divdi3+0x11c>
9d005064:	2444fffe 	addiu	a0,v0,-2
9d005068:	1000ffc2 	b	9d004f74 <__divdi3+0x120>
9d00506c:	00061400 	sll	v0,a2,0x10
9d005070:	00621823 	subu	v1,v1,v0
9d005074:	00484004 	sllv	t0,t0,v0
9d005078:	00453004 	sllv	a2,a1,v0
9d00507c:	00445004 	sllv	t2,a0,v0
9d005080:	00652806 	srlv	a1,a1,v1
9d005084:	00081402 	srl	v0,t0,0x10
9d005088:	00a2001b 	divu	zero,a1,v0
9d00508c:	004001f4 	teq	v0,zero,0x7
9d005090:	3107ffff 	andi	a3,t0,0xffff
9d005094:	00645806 	srlv	t3,a0,v1
9d005098:	01665825 	or	t3,t3,a2
9d00509c:	000b3402 	srl	a2,t3,0x10
9d0050a0:	00002812 	mflo	a1
9d0050a4:	00002010 	mfhi	a0
9d0050a8:	00042400 	sll	a0,a0,0x10
9d0050ac:	00862025 	or	a0,a0,a2
9d0050b0:	70e51802 	mul	v1,a3,a1
9d0050b4:	0083602b 	sltu	t4,a0,v1
9d0050b8:	1180000a 	beqz	t4,9d0050e4 <__divdi3+0x290>
9d0050bc:	00a03025 	move	a2,a1
9d0050c0:	00882021 	addu	a0,a0,t0
9d0050c4:	0088602b 	sltu	t4,a0,t0
9d0050c8:	15800006 	bnez	t4,9d0050e4 <__divdi3+0x290>
9d0050cc:	24a6ffff 	addiu	a2,a1,-1
9d0050d0:	0083602b 	sltu	t4,a0,v1
9d0050d4:	51800004 	beqzl	t4,9d0050e8 <__divdi3+0x294>
9d0050d8:	00832023 	subu	a0,a0,v1
9d0050dc:	24a6fffe 	addiu	a2,a1,-2
9d0050e0:	00882021 	addu	a0,a0,t0
9d0050e4:	00832023 	subu	a0,a0,v1
9d0050e8:	0082001b 	divu	zero,a0,v0
9d0050ec:	004001f4 	teq	v0,zero,0x7
9d0050f0:	3165ffff 	andi	a1,t3,0xffff
9d0050f4:	00001012 	mflo	v0
9d0050f8:	00002010 	mfhi	a0
9d0050fc:	00042400 	sll	a0,a0,0x10
9d005100:	00852825 	or	a1,a0,a1
9d005104:	70e23802 	mul	a3,a3,v0
9d005108:	00a7182b 	sltu	v1,a1,a3
9d00510c:	1060000a 	beqz	v1,9d005138 <__divdi3+0x2e4>
9d005110:	00402025 	move	a0,v0
9d005114:	00a82821 	addu	a1,a1,t0
9d005118:	00a8182b 	sltu	v1,a1,t0
9d00511c:	14600006 	bnez	v1,9d005138 <__divdi3+0x2e4>
9d005120:	2444ffff 	addiu	a0,v0,-1
9d005124:	00a7182b 	sltu	v1,a1,a3
9d005128:	50600004 	beqzl	v1,9d00513c <__divdi3+0x2e8>
9d00512c:	00061c00 	sll	v1,a2,0x10
9d005130:	2444fffe 	addiu	a0,v0,-2
9d005134:	00a82821 	addu	a1,a1,t0
9d005138:	00061c00 	sll	v1,a2,0x10
9d00513c:	00a72823 	subu	a1,a1,a3
9d005140:	1000ffa0 	b	9d004fc4 <__divdi3+0x170>
9d005144:	00641825 	or	v1,v1,a0
9d005148:	00a7102b 	sltu	v0,a1,a3
9d00514c:	1440004f 	bnez	v0,9d00528c <__divdi3+0x438>
9d005150:	00001825 	move	v1,zero
9d005154:	70eb5820 	clz	t3,a3
9d005158:	15600008 	bnez	t3,9d00517c <__divdi3+0x328>
9d00515c:	240a0020 	li	t2,32
9d005160:	00e5282b 	sltu	a1,a3,a1
9d005164:	54a0ff84 	bnezl	a1,9d004f78 <__divdi3+0x124>
9d005168:	24020001 	li	v0,1
9d00516c:	0086102b 	sltu	v0,a0,a2
9d005170:	38420001 	xori	v0,v0,0x1
9d005174:	1000ff80 	b	9d004f78 <__divdi3+0x124>
9d005178:	00001825 	move	v1,zero
9d00517c:	014b5023 	subu	t2,t2,t3
9d005180:	01461006 	srlv	v0,a2,t2
9d005184:	01673804 	sllv	a3,a3,t3
9d005188:	00473825 	or	a3,v0,a3
9d00518c:	00074402 	srl	t0,a3,0x10
9d005190:	01651004 	sllv	v0,a1,t3
9d005194:	01452806 	srlv	a1,a1,t2
9d005198:	00a8001b 	divu	zero,a1,t0
9d00519c:	010001f4 	teq	t0,zero,0x7
9d0051a0:	01446806 	srlv	t5,a0,t2
9d0051a4:	30ecffff 	andi	t4,a3,0xffff
9d0051a8:	01a26825 	or	t5,t5,v0
9d0051ac:	000d1c02 	srl	v1,t5,0x10
9d0051b0:	01663004 	sllv	a2,a2,t3
9d0051b4:	00002812 	mflo	a1
9d0051b8:	00005010 	mfhi	t2
9d0051bc:	000a5400 	sll	t2,t2,0x10
9d0051c0:	01435025 	or	t2,t2,v1
9d0051c4:	71851002 	mul	v0,t4,a1
9d0051c8:	0142702b 	sltu	t6,t2,v0
9d0051cc:	11c0000a 	beqz	t6,9d0051f8 <__divdi3+0x3a4>
9d0051d0:	00a01825 	move	v1,a1
9d0051d4:	01475021 	addu	t2,t2,a3
9d0051d8:	0147702b 	sltu	t6,t2,a3
9d0051dc:	15c00006 	bnez	t6,9d0051f8 <__divdi3+0x3a4>
9d0051e0:	24a3ffff 	addiu	v1,a1,-1
9d0051e4:	0142702b 	sltu	t6,t2,v0
9d0051e8:	51c00004 	beqzl	t6,9d0051fc <__divdi3+0x3a8>
9d0051ec:	01425023 	subu	t2,t2,v0
9d0051f0:	24a3fffe 	addiu	v1,a1,-2
9d0051f4:	01475021 	addu	t2,t2,a3
9d0051f8:	01425023 	subu	t2,t2,v0
9d0051fc:	0148001b 	divu	zero,t2,t0
9d005200:	010001f4 	teq	t0,zero,0x7
9d005204:	31a5ffff 	andi	a1,t5,0xffff
9d005208:	00004012 	mflo	t0
9d00520c:	00005010 	mfhi	t2
9d005210:	000a5400 	sll	t2,t2,0x10
9d005214:	01452825 	or	a1,t2,a1
9d005218:	71886002 	mul	t4,t4,t0
9d00521c:	00ac102b 	sltu	v0,a1,t4
9d005220:	1040000a 	beqz	v0,9d00524c <__divdi3+0x3f8>
9d005224:	01005025 	move	t2,t0
9d005228:	00a72821 	addu	a1,a1,a3
9d00522c:	00a7102b 	sltu	v0,a1,a3
9d005230:	14400006 	bnez	v0,9d00524c <__divdi3+0x3f8>
9d005234:	250affff 	addiu	t2,t0,-1
9d005238:	00ac102b 	sltu	v0,a1,t4
9d00523c:	10400004 	beqz	v0,9d005250 <__divdi3+0x3fc>
9d005240:	00031400 	sll	v0,v1,0x10
9d005244:	250afffe 	addiu	t2,t0,-2
9d005248:	00a72821 	addu	a1,a1,a3
9d00524c:	00031400 	sll	v0,v1,0x10
9d005250:	004a1025 	or	v0,v0,t2
9d005254:	00460019 	multu	v0,a2
9d005258:	00ac2823 	subu	a1,a1,t4
9d00525c:	00003810 	mfhi	a3
9d005260:	00a7182b 	sltu	v1,a1,a3
9d005264:	14600007 	bnez	v1,9d005284 <__divdi3+0x430>
9d005268:	00003012 	mflo	a2
9d00526c:	14a7ff42 	bne	a1,a3,9d004f78 <__divdi3+0x124>
9d005270:	00001825 	move	v1,zero
9d005274:	01642004 	sllv	a0,a0,t3
9d005278:	0086202b 	sltu	a0,a0,a2
9d00527c:	1080ff3e 	beqz	a0,9d004f78 <__divdi3+0x124>
9d005280:	00000000 	nop
9d005284:	1000ffbb 	b	9d005174 <__divdi3+0x320>
9d005288:	2442ffff 	addiu	v0,v0,-1
9d00528c:	1000ff3a 	b	9d004f78 <__divdi3+0x124>
9d005290:	00001025 	move	v0,zero

Disassembly of section .text.__strtod:

9d005294 <__strtod>:
9d005294:	27bdffc0 	addiu	sp,sp,-64
9d005298:	afbe0038 	sw	s8,56(sp)
9d00529c:	afbf003c 	sw	ra,60(sp)
9d0052a0:	afb70034 	sw	s7,52(sp)
9d0052a4:	afb60030 	sw	s6,48(sp)
9d0052a8:	afb5002c 	sw	s5,44(sp)
9d0052ac:	afb40028 	sw	s4,40(sp)
9d0052b0:	afb30024 	sw	s3,36(sp)
9d0052b4:	afb20020 	sw	s2,32(sp)
9d0052b8:	afb1001c 	sw	s1,28(sp)
9d0052bc:	afb00018 	sw	s0,24(sp)
9d0052c0:	80830000 	lb	v1,0(a0)
9d0052c4:	3c1e9d01 	lui	s8,0x9d01
9d0052c8:	27de8fc9 	addiu	s8,s8,-28727
9d0052cc:	03c31021 	addu	v0,s8,v1
9d0052d0:	80420000 	lb	v0,0(v0)
9d0052d4:	afa40040 	sw	a0,64(sp)
9d0052d8:	30420088 	andi	v0,v0,0x88
9d0052dc:	104000f0 	beqz	v0,9d0056a0 <__strtod+0x40c>
9d0052e0:	afa50044 	sw	a1,68(sp)
9d0052e4:	00808025 	move	s0,a0
9d0052e8:	26100001 	addiu	s0,s0,1
9d0052ec:	82030000 	lb	v1,0(s0)
9d0052f0:	03c31021 	addu	v0,s8,v1
9d0052f4:	80420000 	lb	v0,0(v0)
9d0052f8:	30420088 	andi	v0,v0,0x88
9d0052fc:	5440fffb 	bnezl	v0,9d0052ec <__strtod+0x58>
9d005300:	26100001 	addiu	s0,s0,1
9d005304:	2402002d 	li	v0,45
9d005308:	106200ae 	beq	v1,v0,9d0055c4 <__strtod+0x330>
9d00530c:	3863002b 	xori	v1,v1,0x2b
9d005310:	2c630001 	sltiu	v1,v1,1
9d005314:	02038021 	addu	s0,s0,v1
9d005318:	82030000 	lb	v1,0(s0)
9d00531c:	afa00010 	sw	zero,16(sp)
9d005320:	03c31021 	addu	v0,s8,v1
9d005324:	90420000 	lbu	v0,0(v0)
9d005328:	30420004 	andi	v0,v0,0x4
9d00532c:	104000af 	beqz	v0,9d0055ec <__strtod+0x358>
9d005330:	2402002e 	li	v0,46
9d005334:	0000b025 	move	s6,zero
9d005338:	00008825 	move	s1,zero
9d00533c:	0000a025 	move	s4,zero
9d005340:	02202825 	move	a1,s1
9d005344:	2477ffd0 	addiu	s7,v1,-48
9d005348:	02c02025 	move	a0,s6
9d00534c:	00003025 	move	a2,zero
9d005350:	0f4019a3 	jal	9d00668c <__muldf3>
9d005354:	3c074024 	lui	a3,0x4024
9d005358:	02e02025 	move	a0,s7
9d00535c:	00409025 	move	s2,v0
9d005360:	0f40277c 	jal	9d009df0 <__floatsidf>
9d005364:	00609825 	move	s3,v1
9d005368:	00403025 	move	a2,v0
9d00536c:	00603825 	move	a3,v1
9d005370:	02402025 	move	a0,s2
9d005374:	0f4015b6 	jal	9d0056d8 <__adddf3>
9d005378:	02602825 	move	a1,s3
9d00537c:	26100001 	addiu	s0,s0,1
9d005380:	00608825 	move	s1,v1
9d005384:	82030000 	lb	v1,0(s0)
9d005388:	0040b025 	move	s6,v0
9d00538c:	03c31021 	addu	v0,s8,v1
9d005390:	90420000 	lbu	v0,0(v0)
9d005394:	30420004 	andi	v0,v0,0x4
9d005398:	1440ffe9 	bnez	v0,9d005340 <__strtod+0xac>
9d00539c:	0297a025 	or	s4,s4,s7
9d0053a0:	2402002e 	li	v0,46
9d0053a4:	146200bb 	bne	v1,v0,9d005694 <__strtod+0x400>
9d0053a8:	24040001 	li	a0,1
9d0053ac:	82030001 	lb	v1,1(s0)
9d0053b0:	03c31021 	addu	v0,s8,v1
9d0053b4:	90420000 	lbu	v0,0(v0)
9d0053b8:	30420004 	andi	v0,v0,0x4
9d0053bc:	10400067 	beqz	v0,9d00555c <__strtod+0x2c8>
9d0053c0:	26150001 	addiu	s5,s0,1
9d0053c4:	24130001 	li	s3,1
9d0053c8:	2472ffd0 	addiu	s2,v1,-48
9d0053cc:	02202825 	move	a1,s1
9d0053d0:	02c02025 	move	a0,s6
9d0053d4:	00003025 	move	a2,zero
9d0053d8:	0f4019a3 	jal	9d00668c <__muldf3>
9d0053dc:	3c074024 	lui	a3,0x4024
9d0053e0:	02402025 	move	a0,s2
9d0053e4:	0040b025 	move	s6,v0
9d0053e8:	0f40277c 	jal	9d009df0 <__floatsidf>
9d0053ec:	0060b825 	move	s7,v1
9d0053f0:	00403025 	move	a2,v0
9d0053f4:	02c02025 	move	a0,s6
9d0053f8:	00603825 	move	a3,v1
9d0053fc:	0f4015b6 	jal	9d0056d8 <__adddf3>
9d005400:	02e02825 	move	a1,s7
9d005404:	26b50001 	addiu	s5,s5,1
9d005408:	00608825 	move	s1,v1
9d00540c:	82a30000 	lb	v1,0(s5)
9d005410:	0040b025 	move	s6,v0
9d005414:	02752023 	subu	a0,s3,s5
9d005418:	03c31021 	addu	v0,s8,v1
9d00541c:	90420000 	lbu	v0,0(v0)
9d005420:	0292a025 	or	s4,s4,s2
9d005424:	30420004 	andi	v0,v0,0x4
9d005428:	1440ffe7 	bnez	v0,9d0053c8 <__strtod+0x134>
9d00542c:	02049021 	addu	s2,s0,a0
9d005430:	7c032944 	ins	v1,zero,0x5,0x1
9d005434:	24020045 	li	v0,69
9d005438:	50620071 	beql	v1,v0,9d005600 <__strtod+0x36c>
9d00543c:	82a50001 	lb	a1,1(s5)
9d005440:	8fa20044 	lw	v0,68(sp)
9d005444:	10400002 	beqz	v0,9d005450 <__strtod+0x1bc>
9d005448:	00000000 	nop
9d00544c:	ac550000 	sw	s5,0(v0)
9d005450:	12400048 	beqz	s2,9d005574 <__strtod+0x2e0>
9d005454:	3c139d01 	lui	s3,0x9d01
9d005458:	001217c3 	sra	v0,s2,0x1f
9d00545c:	0052b826 	xor	s7,v0,s2
9d005460:	02e2b823 	subu	s7,s7,v0
9d005464:	00002025 	move	a0,zero
9d005468:	3c053ff0 	lui	a1,0x3ff0
9d00546c:	24100009 	li	s0,9
9d005470:	10000003 	b	9d005480 <__strtod+0x1ec>
9d005474:	2673a55c 	addiu	s3,s3,-23204
9d005478:	1200000e 	beqz	s0,9d0054b4 <__strtod+0x220>
9d00547c:	00803025 	move	a2,a0
9d005480:	2610ffff 	addiu	s0,s0,-1
9d005484:	02171807 	srav	v1,s7,s0
9d005488:	30630001 	andi	v1,v1,0x1
9d00548c:	1060fffa 	beqz	v1,9d005478 <__strtod+0x1e4>
9d005490:	001018c0 	sll	v1,s0,0x3
9d005494:	02631821 	addu	v1,s3,v1
9d005498:	8c660000 	lw	a2,0(v1)
9d00549c:	0f4019a3 	jal	9d00668c <__muldf3>
9d0054a0:	8c670004 	lw	a3,4(v1)
9d0054a4:	00402025 	move	a0,v0
9d0054a8:	1600fff5 	bnez	s0,9d005480 <__strtod+0x1ec>
9d0054ac:	00602825 	move	a1,v1
9d0054b0:	00803025 	move	a2,a0
9d0054b4:	00a03825 	move	a3,a1
9d0054b8:	02c02025 	move	a0,s6
9d0054bc:	0640006b 	bltz	s2,9d00566c <__strtod+0x3d8>
9d0054c0:	02202825 	move	a1,s1
9d0054c4:	0f4019a3 	jal	9d00668c <__muldf3>
9d0054c8:	00000000 	nop
9d0054cc:	00402025 	move	a0,v0
9d0054d0:	00602825 	move	a1,v1
9d0054d4:	0f402143 	jal	9d00850c <__ldexp>
9d0054d8:	02403025 	move	a2,s2
9d0054dc:	0040b025 	move	s6,v0
9d0054e0:	00608825 	move	s1,v1
9d0054e4:	16c00025 	bnez	s6,9d00557c <__strtod+0x2e8>
9d0054e8:	7e22f000 	ext	v0,s1,0x0,0x1f
9d0054ec:	3c037ff0 	lui	v1,0x7ff0
9d0054f0:	14430023 	bne	v0,v1,9d005580 <__strtod+0x2ec>
9d0054f4:	02d11025 	or	v0,s6,s1
9d0054f8:	3c02a000 	lui	v0,0xa000
9d0054fc:	24030022 	li	v1,34
9d005500:	ac430038 	sw	v1,56(v0)
9d005504:	8fa20010 	lw	v0,16(sp)
9d005508:	10400021 	beqz	v0,9d005590 <__strtod+0x2fc>
9d00550c:	8fbf003c 	lw	ra,60(sp)
9d005510:	02c02025 	move	a0,s6
9d005514:	0f402a2a 	jal	9d00a8a8 <__negdf2>
9d005518:	02202825 	move	a1,s1
9d00551c:	8fbf003c 	lw	ra,60(sp)
9d005520:	0040b025 	move	s6,v0
9d005524:	00608825 	move	s1,v1
9d005528:	02c01025 	move	v0,s6
9d00552c:	02201825 	move	v1,s1
9d005530:	8fbe0038 	lw	s8,56(sp)
9d005534:	8fb70034 	lw	s7,52(sp)
9d005538:	8fb60030 	lw	s6,48(sp)
9d00553c:	8fb5002c 	lw	s5,44(sp)
9d005540:	8fb40028 	lw	s4,40(sp)
9d005544:	8fb30024 	lw	s3,36(sp)
9d005548:	8fb20020 	lw	s2,32(sp)
9d00554c:	8fb1001c 	lw	s1,28(sp)
9d005550:	8fb00018 	lw	s0,24(sp)
9d005554:	03e00008 	jr	ra
9d005558:	27bd0040 	addiu	sp,sp,64
9d00555c:	1480004c 	bnez	a0,9d005690 <__strtod+0x3fc>
9d005560:	02a08025 	move	s0,s5
9d005564:	8fa20044 	lw	v0,68(sp)
9d005568:	10400002 	beqz	v0,9d005574 <__strtod+0x2e0>
9d00556c:	8fa30040 	lw	v1,64(sp)
9d005570:	ac430000 	sw	v1,0(v0)
9d005574:	12c0ffdd 	beqz	s6,9d0054ec <__strtod+0x258>
9d005578:	7e22f000 	ext	v0,s1,0x0,0x1f
9d00557c:	02d11025 	or	v0,s6,s1
9d005580:	10400049 	beqz	v0,9d0056a8 <__strtod+0x414>
9d005584:	8fa20010 	lw	v0,16(sp)
9d005588:	1440ffe1 	bnez	v0,9d005510 <__strtod+0x27c>
9d00558c:	8fbf003c 	lw	ra,60(sp)
9d005590:	02c01025 	move	v0,s6
9d005594:	02201825 	move	v1,s1
9d005598:	8fbe0038 	lw	s8,56(sp)
9d00559c:	8fb70034 	lw	s7,52(sp)
9d0055a0:	8fb60030 	lw	s6,48(sp)
9d0055a4:	8fb5002c 	lw	s5,44(sp)
9d0055a8:	8fb40028 	lw	s4,40(sp)
9d0055ac:	8fb30024 	lw	s3,36(sp)
9d0055b0:	8fb20020 	lw	s2,32(sp)
9d0055b4:	8fb1001c 	lw	s1,28(sp)
9d0055b8:	8fb00018 	lw	s0,24(sp)
9d0055bc:	03e00008 	jr	ra
9d0055c0:	27bd0040 	addiu	sp,sp,64
9d0055c4:	26100001 	addiu	s0,s0,1
9d0055c8:	82030000 	lb	v1,0(s0)
9d0055cc:	24020001 	li	v0,1
9d0055d0:	afa20010 	sw	v0,16(sp)
9d0055d4:	03c31021 	addu	v0,s8,v1
9d0055d8:	90420000 	lbu	v0,0(v0)
9d0055dc:	30420004 	andi	v0,v0,0x4
9d0055e0:	1440ff55 	bnez	v0,9d005338 <__strtod+0xa4>
9d0055e4:	0000b025 	move	s6,zero
9d0055e8:	2402002e 	li	v0,46
9d0055ec:	0000b025 	move	s6,zero
9d0055f0:	10620034 	beq	v1,v0,9d0056c4 <__strtod+0x430>
9d0055f4:	00008825 	move	s1,zero
9d0055f8:	1000ffda 	b	9d005564 <__strtod+0x2d0>
9d0055fc:	0000a025 	move	s4,zero
9d005600:	2402002d 	li	v0,45
9d005604:	10a2001e 	beq	a1,v0,9d005680 <__strtod+0x3ec>
9d005608:	2402002b 	li	v0,43
9d00560c:	50a2002a 	beql	a1,v0,9d0056b8 <__strtod+0x424>
9d005610:	82a50002 	lb	a1,2(s5)
9d005614:	26b50001 	addiu	s5,s5,1
9d005618:	00003825 	move	a3,zero
9d00561c:	03c51021 	addu	v0,s8,a1
9d005620:	90420000 	lbu	v0,0(v0)
9d005624:	30420004 	andi	v0,v0,0x4
9d005628:	1040000c 	beqz	v0,9d00565c <__strtod+0x3c8>
9d00562c:	00002025 	move	a0,zero
9d005630:	26b50001 	addiu	s5,s5,1
9d005634:	24a6ffd0 	addiu	a2,a1,-48
9d005638:	82a50000 	lb	a1,0(s5)
9d00563c:	00041080 	sll	v0,a0,0x2
9d005640:	00441021 	addu	v0,v0,a0
9d005644:	03c51821 	addu	v1,s8,a1
9d005648:	90630000 	lbu	v1,0(v1)
9d00564c:	00021040 	sll	v0,v0,0x1
9d005650:	30630004 	andi	v1,v1,0x4
9d005654:	1460fff6 	bnez	v1,9d005630 <__strtod+0x39c>
9d005658:	00c22021 	addu	a0,a2,v0
9d00565c:	00041023 	negu	v0,a0
9d005660:	0047200b 	movn	a0,v0,a3
9d005664:	1000ff76 	b	9d005440 <__strtod+0x1ac>
9d005668:	02449021 	addu	s2,s2,a0
9d00566c:	0f401267 	jal	9d00499c <__divdf3>
9d005670:	00000000 	nop
9d005674:	00402025 	move	a0,v0
9d005678:	1000ff96 	b	9d0054d4 <__strtod+0x240>
9d00567c:	00602825 	move	a1,v1
9d005680:	82a50002 	lb	a1,2(s5)
9d005684:	24070001 	li	a3,1
9d005688:	1000ffe4 	b	9d00561c <__strtod+0x388>
9d00568c:	26b50002 	addiu	s5,s5,2
9d005690:	82030000 	lb	v1,0(s0)
9d005694:	0200a825 	move	s5,s0
9d005698:	1000ff65 	b	9d005430 <__strtod+0x19c>
9d00569c:	00009025 	move	s2,zero
9d0056a0:	1000ff18 	b	9d005304 <__strtod+0x70>
9d0056a4:	8fb00040 	lw	s0,64(sp)
9d0056a8:	5280ffb7 	beqzl	s4,9d005588 <__strtod+0x2f4>
9d0056ac:	8fa20010 	lw	v0,16(sp)
9d0056b0:	1000ff92 	b	9d0054fc <__strtod+0x268>
9d0056b4:	3c02a000 	lui	v0,0xa000
9d0056b8:	00003825 	move	a3,zero
9d0056bc:	1000ffd7 	b	9d00561c <__strtod+0x388>
9d0056c0:	26b50002 	addiu	s5,s5,2
9d0056c4:	00002025 	move	a0,zero
9d0056c8:	1000ff38 	b	9d0053ac <__strtod+0x118>
9d0056cc:	0000a025 	move	s4,zero

Disassembly of section .text.dp32subadd:

9d0056d0 <__subdf3>:
9d0056d0:	3c018000 00e13826                       ...<&8..

9d0056d8 <__adddf3>:
9d0056d8:	00055840 000b5d42 000552c0 00047d42     @X..B]...R..B}..
9d0056e8:	014f5025 00044ac0 3c088000 01485025     %PO..J.....<%PH.
9d0056f8:	00077040 000e7542 00076ac0 00067d42     @p..Bu...j..B}..
9d005708:	01af6825 000662c0 01a86825 256fffff     %h...b..%h....o%
9d005718:	2de107fe 1020008d 00000000              ...-.. .....

9d005724 <Blab1>:
9d005724:	25cfffff 	addiu	t7,t6,-1
9d005728:	2de107fe 	sltiu	at,t7,2046
9d00572c:	102000bb 	beqz	at,9d005a1c <BspecB>
9d005730:	00000000 	nop

9d005734 <Blab2>:
9d005734:	3c018000 	lui	at,0x8000
9d005738:	00a12824 	and	a1,a1,at
9d00573c:	016e4023 	subu	t0,t3,t6
9d005740:	1100002c 	beqz	t0,9d0057f4 <Badd3>
9d005744:	00000000 	nop
9d005748:	19000015 	blez	t0,9d0057a0 <i1>
9d00574c:	00000000 	nop

9d005750 <L1>:
9d005750:	2d010020 	sltiu	at,t0,32
9d005754:	14200007 	bnez	at,9d005774 <L2>
9d005758:	00000000 	nop
9d00575c:	2108ffe0 	addi	t0,t0,-32
9d005760:	000c302b 	sltu	a2,zero,t4
9d005764:	100d0023 	beq	zero,t5,9d0057f4 <Badd3>
9d005768:	01a66025 	or	t4,t5,a2
9d00576c:	1000fff8 	b	9d005750 <L1>
9d005770:	340d0000 	li	t5,0x0

9d005774 <L2>:
9d005774:	1100001f 	beqz	t0,9d0057f4 <Badd3>
9d005778:	00000000 	nop
9d00577c:	00082022 	neg	a0,t0
9d005780:	008c3004 	sllv	a2,t4,a0
9d005784:	008d2004 	sllv	a0,t5,a0
9d005788:	010c6006 	srlv	t4,t4,t0
9d00578c:	010d6806 	srlv	t5,t5,t0
9d005790:	10c00018 	beqz	a2,9d0057f4 <Badd3>
9d005794:	008c6025 	or	t4,a0,t4
9d005798:	10000016 	b	9d0057f4 <Badd3>
9d00579c:	358c0002 	ori	t4,t4,0x2

9d0057a0 <i1>:
9d0057a0:	000e5825 	or	t3,zero,t6
9d0057a4:	00084023 	negu	t0,t0

9d0057a8 <L4>:
9d0057a8:	2d010020 	sltiu	at,t0,32
9d0057ac:	14200007 	bnez	at,9d0057cc <L5>
9d0057b0:	00000000 	nop
9d0057b4:	2108ffe0 	addi	t0,t0,-32
9d0057b8:	0009302b 	sltu	a2,zero,t1
9d0057bc:	100a000d 	beq	zero,t2,9d0057f4 <Badd3>
9d0057c0:	01464825 	or	t1,t2,a2
9d0057c4:	1000fff8 	b	9d0057a8 <L4>
9d0057c8:	340a0000 	li	t2,0x0

9d0057cc <L5>:
9d0057cc:	11000009 	beqz	t0,9d0057f4 <Badd3>
9d0057d0:	00000000 	nop
9d0057d4:	00082022 	neg	a0,t0
9d0057d8:	00893004 	sllv	a2,t1,a0
9d0057dc:	008a2004 	sllv	a0,t2,a0
9d0057e0:	01094806 	srlv	t1,t1,t0
9d0057e4:	010a5006 	srlv	t2,t2,t0
9d0057e8:	10c00002 	beqz	a2,9d0057f4 <Badd3>
9d0057ec:	00894825 	or	t1,a0,t1
9d0057f0:	35290002 	ori	t1,t1,0x2

9d0057f4 <Badd3>:
9d0057f4:	00a77826 	xor	t7,a1,a3
9d0057f8:	05e0001c 	bltz	t7,9d00586c <Bsub1>
9d0057fc:	00000000 	nop
9d005800:	012c4821 	addu	t1,t1,t4
9d005804:	012c782b 	sltu	t7,t1,t4
9d005808:	014d5021 	addu	t2,t2,t5
9d00580c:	014f5021 	addu	t2,t2,t7
9d005810:	114d0002 	beq	t2,t5,9d00581c <L7>
9d005814:	00000000 	nop
9d005818:	014d782b 	sltu	t7,t2,t5

9d00581c <L7>:
9d00581c:	11e00037 	beqz	t7,9d0058fc <Bres>
9d005820:	00000000 	nop
9d005824:	312f0001 	andi	t7,t1,0x1
9d005828:	11e00002 	beqz	t7,9d005834 <i3>
9d00582c:	00000000 	nop
9d005830:	35290002 	ori	t1,t1,0x2

9d005834 <i3>:
9d005834:	00094842 	srl	t1,t1,0x1
9d005838:	000a7fc0 	sll	t7,t2,0x1f
9d00583c:	012f4825 	or	t1,t1,t7
9d005840:	000a5042 	srl	t2,t2,0x1
9d005844:	3c018000 	lui	at,0x8000
9d005848:	01415025 	or	t2,t2,at
9d00584c:	256b0001 	addiu	t3,t3,1
9d005850:	240107ff 	li	at,2047
9d005854:	15610029 	bne	t3,at,9d0058fc <Bres>
9d005858:	00000000 	nop
9d00585c:	3c017ff0 	lui	at,0x7ff0
9d005860:	00a12825 	or	a1,a1,at
9d005864:	10000037 	b	9d005944 <BretA>
9d005868:	24040000 	li	a0,0

9d00586c <Bsub1>:
9d00586c:	012c782b 	sltu	t7,t1,t4
9d005870:	012c4823 	subu	t1,t1,t4
9d005874:	014f102b 	sltu	v0,t2,t7
9d005878:	014f5023 	subu	t2,t2,t7
9d00587c:	014d782b 	sltu	t7,t2,t5
9d005880:	01e27825 	or	t7,t7,v0
9d005884:	11e00007 	beqz	t7,9d0058a4 <i5>
9d005888:	014d5023 	subu	t2,t2,t5
9d00588c:	3c018000 	lui	at,0x8000
9d005890:	00a12826 	xor	a1,a1,at
9d005894:	0009782b 	sltu	t7,zero,t1
9d005898:	00094823 	negu	t1,t1
9d00589c:	000a5023 	negu	t2,t2
9d0058a0:	014f5023 	subu	t2,t2,t7

9d0058a4 <i5>:
9d0058a4:	15400008 	bnez	t2,9d0058c8 <L8>
9d0058a8:	00000000 	nop
9d0058ac:	15200003 	bnez	t1,9d0058bc <L9>
9d0058b0:	00000000 	nop
9d0058b4:	1000000d 	b	9d0058ec <L10>
9d0058b8:	240b0000 	li	t3,0

9d0058bc <L9>:
9d0058bc:	01205025 	move	t2,t1
9d0058c0:	24090000 	li	t1,0
9d0058c4:	256bffe0 	addiu	t3,t3,-32

9d0058c8 <L8>:
9d0058c8:	71484020 	clz	t0,t2
9d0058cc:	11000007 	beqz	t0,9d0058ec <L10>
9d0058d0:	00000000 	nop
9d0058d4:	01685823 	subu	t3,t3,t0
9d0058d8:	00082022 	neg	a0,t0
9d0058dc:	00892006 	srlv	a0,t1,a0
9d0058e0:	01094804 	sllv	t1,t1,t0
9d0058e4:	010a5004 	sllv	t2,t2,t0
9d0058e8:	01445025 	or	t2,t2,a0

9d0058ec <L10>:
9d0058ec:	01497825 	or	t7,t2,t1
9d0058f0:	15e00002 	bnez	t7,9d0058fc <Bres>
9d0058f4:	00000000 	nop
9d0058f8:	24050000 	li	a1,0

9d0058fc <Bres>:
9d0058fc:	19600068 	blez	t3,9d005aa0 <Bund>
9d005900:	00000000 	nop

9d005904 <Blab8>:
9d005904:	25290400 	addiu	t1,t1,1024
9d005908:	2d2f0400 	sltiu	t7,t1,1024
9d00590c:	014f5021 	addu	t2,t2,t7
9d005910:	014f782b 	sltu	t7,t2,t7
9d005914:	016f5821 	addu	t3,t3,t7
9d005918:	00097ac2 	srl	t7,t1,0xb
9d00591c:	31ef0001 	andi	t7,t7,0x1
9d005920:	012f4823 	subu	t1,t1,t7
9d005924:	000922c2 	srl	a0,t1,0xb
9d005928:	000a7d40 	sll	t7,t2,0x15
9d00592c:	008f2025 	or	a0,a0,t7
9d005930:	000a7840 	sll	t7,t2,0x1
9d005934:	000f7b02 	srl	t7,t7,0xc
9d005938:	00af2825 	or	a1,a1,t7
9d00593c:	000b7d00 	sll	t7,t3,0x14
9d005940:	00af2825 	or	a1,a1,t7

9d005944 <BretA>:
9d005944:	00041025 	or	v0,zero,a0
9d005948:	00051825 	or	v1,zero,a1

9d00594c <B999>:
9d00594c:	03e00008 	jr	ra
9d005950:	00000000 	nop

9d005954 <BspecA>:
9d005954:	0120782a 	slt	t7,t1,zero
9d005958:	01294821 	addu	t1,t1,t1
9d00595c:	014a5021 	addu	t2,t2,t2
9d005960:	15600023 	bnez	t3,9d0059f0 <i7>
9d005964:	014f5021 	addu	t2,t2,t7
9d005968:	01497825 	or	t7,t2,t1
9d00596c:	11e00014 	beqz	t7,9d0059c0 <i8>
9d005970:	00000000 	nop
9d005974:	15400008 	bnez	t2,9d005998 <L11>
9d005978:	00000000 	nop
9d00597c:	15200003 	bnez	t1,9d00598c <L12>
9d005980:	00000000 	nop
9d005984:	1000ff67 	b	9d005724 <Blab1>
9d005988:	240b0000 	li	t3,0

9d00598c <L12>:
9d00598c:	01205025 	move	t2,t1
9d005990:	24090000 	li	t1,0
9d005994:	256bffe0 	addiu	t3,t3,-32

9d005998 <L11>:
9d005998:	71484020 	clz	t0,t2
9d00599c:	1100ff61 	beqz	t0,9d005724 <Blab1>
9d0059a0:	00000000 	nop
9d0059a4:	01685823 	subu	t3,t3,t0
9d0059a8:	00082022 	neg	a0,t0
9d0059ac:	00892006 	srlv	a0,t1,a0
9d0059b0:	01094804 	sllv	t1,t1,t0
9d0059b4:	010a5004 	sllv	t2,t2,t0
9d0059b8:	1000ff5a 	b	9d005724 <Blab1>
9d0059bc:	01445025 	or	t2,t2,a0

9d0059c0 <i8>:
9d0059c0:	240107ff 	li	at,2047
9d0059c4:	11c10015 	beq	t6,at,9d005a1c <BspecB>
9d0059c8:	00000000 	nop
9d0059cc:	00e74021 	addu	t0,a3,a3
9d0059d0:	01067825 	or	t7,t0,a2
9d0059d4:	15e00003 	bnez	t7,9d0059e4 <BretB>
9d0059d8:	00000000 	nop
9d0059dc:	04e0ffd9 	bltz	a3,9d005944 <BretA>
9d0059e0:	00000000 	nop

9d0059e4 <BretB>:
9d0059e4:	00061025 	or	v0,zero,a2
9d0059e8:	1000ffd8 	b	9d00594c <B999>
9d0059ec:	00071825 	or	v1,zero,a3

9d0059f0 <i7>:
9d0059f0:	01497825 	or	t7,t2,t1
9d0059f4:	15e00027 	bnez	t7,9d005a94 <Bnan>
9d0059f8:	00000000 	nop
9d0059fc:	240107ff 	li	at,2047
9d005a00:	15c1ffd0 	bne	t6,at,9d005944 <BretA>
9d005a04:	00000000 	nop
9d005a08:	00a77826 	xor	t7,a1,a3
9d005a0c:	05e00021 	bltz	t7,9d005a94 <Bnan>
9d005a10:	00000000 	nop
9d005a14:	1000fff3 	b	9d0059e4 <BretB>
9d005a18:	00000000 	nop

9d005a1c <BspecB>:
9d005a1c:	0180782a 	slt	t7,t4,zero
9d005a20:	018c6021 	addu	t4,t4,t4
9d005a24:	01ad6821 	addu	t5,t5,t5
9d005a28:	15c00017 	bnez	t6,9d005a88 <i11>
9d005a2c:	01af6821 	addu	t5,t5,t7
9d005a30:	01ac7825 	or	t7,t5,t4
9d005a34:	11e0ffc3 	beqz	t7,9d005944 <BretA>
9d005a38:	00000000 	nop
9d005a3c:	15a00008 	bnez	t5,9d005a60 <L14>
9d005a40:	00000000 	nop
9d005a44:	15800003 	bnez	t4,9d005a54 <L15>
9d005a48:	00000000 	nop
9d005a4c:	1000ff39 	b	9d005734 <Blab2>
9d005a50:	240e0000 	li	t6,0

9d005a54 <L15>:
9d005a54:	01806825 	move	t5,t4
9d005a58:	240c0000 	li	t4,0
9d005a5c:	25ceffe0 	addiu	t6,t6,-32

9d005a60 <L14>:
9d005a60:	71a84020 	clz	t0,t5
9d005a64:	1100ff33 	beqz	t0,9d005734 <Blab2>
9d005a68:	00000000 	nop
9d005a6c:	01c87023 	subu	t6,t6,t0
9d005a70:	00082022 	neg	a0,t0
9d005a74:	008c2006 	srlv	a0,t4,a0
9d005a78:	010c6004 	sllv	t4,t4,t0
9d005a7c:	010d6804 	sllv	t5,t5,t0
9d005a80:	1000ff2c 	b	9d005734 <Blab2>
9d005a84:	01a46825 	or	t5,t5,a0

9d005a88 <i11>:
9d005a88:	01ac7825 	or	t7,t5,t4
9d005a8c:	11e0ffd5 	beqz	t7,9d0059e4 <BretB>
9d005a90:	00000000 	nop

9d005a94 <Bnan>:
9d005a94:	3c05fff8 	lui	a1,0xfff8
9d005a98:	1000ffaa 	b	9d005944 <BretA>
9d005a9c:	24040000 	li	a0,0

9d005aa0 <Bund>:
9d005aa0:	24080001 	li	t0,1
9d005aa4:	010b4023 	subu	t0,t0,t3

9d005aa8 <L17>:
9d005aa8:	2d010020 	sltiu	at,t0,32
9d005aac:	14200007 	bnez	at,9d005acc <L18>
9d005ab0:	00000000 	nop
9d005ab4:	2108ffe0 	addi	t0,t0,-32
9d005ab8:	0009302b 	sltu	a2,zero,t1
9d005abc:	100a000d 	beq	zero,t2,9d005af4 <L19>
9d005ac0:	01464825 	or	t1,t2,a2
9d005ac4:	1000fff8 	b	9d005aa8 <L17>
9d005ac8:	340a0000 	li	t2,0x0

9d005acc <L18>:
9d005acc:	11000009 	beqz	t0,9d005af4 <L19>
9d005ad0:	00000000 	nop
9d005ad4:	00082022 	neg	a0,t0
9d005ad8:	00893004 	sllv	a2,t1,a0
9d005adc:	008a2004 	sllv	a0,t2,a0
9d005ae0:	01094806 	srlv	t1,t1,t0
9d005ae4:	010a5006 	srlv	t2,t2,t0
9d005ae8:	10c00002 	beqz	a2,9d005af4 <L19>
9d005aec:	00894825 	or	t1,a0,t1
9d005af0:	35290002 	ori	t1,t1,0x2

9d005af4 <L19>:
9d005af4:	1000ff83 	b	9d005904 <Blab8>
9d005af8:	240b0000 	li	t3,0
9d005afc:	00000000 	nop

Disassembly of section .text:

9d005b00 <__umoddi3>:
9d005b00:	00c04825 	move	t1,a2
9d005b04:	00801025 	move	v0,a0
9d005b08:	14e00099 	bnez	a3,9d005d70 <__umoddi3+0x270>
9d005b0c:	00a01825 	move	v1,a1
9d005b10:	00a6302b 	sltu	a2,a1,a2
9d005b14:	10c00034 	beqz	a2,9d005be8 <__umoddi3+0xe8>
9d005b18:	712a5020 	clz	t2,t1
9d005b1c:	51400008 	beqzl	t2,9d005b40 <__umoddi3+0x40>
9d005b20:	00092402 	srl	a0,t1,0x10
9d005b24:	01451804 	sllv	v1,a1,t2
9d005b28:	000a2823 	negu	a1,t2
9d005b2c:	00a42806 	srlv	a1,a0,a1
9d005b30:	01494804 	sllv	t1,t1,t2
9d005b34:	00a31825 	or	v1,a1,v1
9d005b38:	01441004 	sllv	v0,a0,t2
9d005b3c:	00092402 	srl	a0,t1,0x10
9d005b40:	0064001b 	divu	zero,v1,a0
9d005b44:	008001f4 	teq	a0,zero,0x7
9d005b48:	3127ffff 	andi	a3,t1,0xffff
9d005b4c:	00001812 	mflo	v1
9d005b50:	00002810 	mfhi	a1
9d005b54:	70673002 	mul	a2,v1,a3
9d005b58:	00051c00 	sll	v1,a1,0x10
9d005b5c:	00022c02 	srl	a1,v0,0x10
9d005b60:	00651825 	or	v1,v1,a1
9d005b64:	0066282b 	sltu	a1,v1,a2
9d005b68:	50a00009 	beqzl	a1,9d005b90 <__umoddi3+0x90>
9d005b6c:	00661823 	subu	v1,v1,a2
9d005b70:	00691821 	addu	v1,v1,t1
9d005b74:	0069282b 	sltu	a1,v1,t1
9d005b78:	54a00005 	bnezl	a1,9d005b90 <__umoddi3+0x90>
9d005b7c:	00661823 	subu	v1,v1,a2
9d005b80:	0066282b 	sltu	a1,v1,a2
9d005b84:	54a00001 	bnezl	a1,9d005b8c <__umoddi3+0x8c>
9d005b88:	00691821 	addu	v1,v1,t1
9d005b8c:	00661823 	subu	v1,v1,a2
9d005b90:	0064001b 	divu	zero,v1,a0
9d005b94:	008001f4 	teq	a0,zero,0x7
9d005b98:	3042ffff 	andi	v0,v0,0xffff
9d005b9c:	00001812 	mflo	v1
9d005ba0:	00003010 	mfhi	a2
9d005ba4:	70672002 	mul	a0,v1,a3
9d005ba8:	00061c00 	sll	v1,a2,0x10
9d005bac:	00621025 	or	v0,v1,v0
9d005bb0:	0044182b 	sltu	v1,v0,a0
9d005bb4:	50600009 	beqzl	v1,9d005bdc <__umoddi3+0xdc>
9d005bb8:	00441023 	subu	v0,v0,a0
9d005bbc:	00491021 	addu	v0,v0,t1
9d005bc0:	0049182b 	sltu	v1,v0,t1
9d005bc4:	54600005 	bnezl	v1,9d005bdc <__umoddi3+0xdc>
9d005bc8:	00441023 	subu	v0,v0,a0
9d005bcc:	0044182b 	sltu	v1,v0,a0
9d005bd0:	54600001 	bnezl	v1,9d005bd8 <__umoddi3+0xd8>
9d005bd4:	00491021 	addu	v0,v0,t1
9d005bd8:	00441023 	subu	v0,v0,a0
9d005bdc:	01421006 	srlv	v0,v0,t2
9d005be0:	03e00008 	jr	ra
9d005be4:	00001825 	move	v1,zero
9d005be8:	15200005 	bnez	t1,9d005c00 <__umoddi3+0x100>
9d005bec:	24030001 	li	v1,1
9d005bf0:	0069001b 	divu	zero,v1,t1
9d005bf4:	012001f4 	teq	t1,zero,0x7
9d005bf8:	00004812 	mflo	t1
9d005bfc:	712a5020 	clz	t2,t1
9d005c00:	1540002b 	bnez	t2,9d005cb0 <__umoddi3+0x1b0>
9d005c04:	24070020 	li	a3,32
9d005c08:	00a92823 	subu	a1,a1,t1
9d005c0c:	00092402 	srl	a0,t1,0x10
9d005c10:	00a4001b 	divu	zero,a1,a0
9d005c14:	008001f4 	teq	a0,zero,0x7
9d005c18:	3127ffff 	andi	a3,t1,0xffff
9d005c1c:	00002812 	mflo	a1
9d005c20:	00001810 	mfhi	v1
9d005c24:	70a73002 	mul	a2,a1,a3
9d005c28:	00032c00 	sll	a1,v1,0x10
9d005c2c:	00021c02 	srl	v1,v0,0x10
9d005c30:	00a32825 	or	a1,a1,v1
9d005c34:	00a6182b 	sltu	v1,a1,a2
9d005c38:	50600009 	beqzl	v1,9d005c60 <__umoddi3+0x160>
9d005c3c:	00a63023 	subu	a2,a1,a2
9d005c40:	00a92821 	addu	a1,a1,t1
9d005c44:	00a9182b 	sltu	v1,a1,t1
9d005c48:	54600005 	bnezl	v1,9d005c60 <__umoddi3+0x160>
9d005c4c:	00a63023 	subu	a2,a1,a2
9d005c50:	00a6182b 	sltu	v1,a1,a2
9d005c54:	54600001 	bnezl	v1,9d005c5c <__umoddi3+0x15c>
9d005c58:	00a92821 	addu	a1,a1,t1
9d005c5c:	00a63023 	subu	a2,a1,a2
9d005c60:	00c4001b 	divu	zero,a2,a0
9d005c64:	008001f4 	teq	a0,zero,0x7
9d005c68:	3042ffff 	andi	v0,v0,0xffff
9d005c6c:	00003012 	mflo	a2
9d005c70:	00002810 	mfhi	a1
9d005c74:	70c71802 	mul	v1,a2,a3
9d005c78:	00053400 	sll	a2,a1,0x10
9d005c7c:	00c21025 	or	v0,a2,v0
9d005c80:	0043202b 	sltu	a0,v0,v1
9d005c84:	5080ffd5 	beqzl	a0,9d005bdc <__umoddi3+0xdc>
9d005c88:	00431023 	subu	v0,v0,v1
9d005c8c:	00491021 	addu	v0,v0,t1
9d005c90:	0049202b 	sltu	a0,v0,t1
9d005c94:	5480ffd1 	bnezl	a0,9d005bdc <__umoddi3+0xdc>
9d005c98:	00431023 	subu	v0,v0,v1
9d005c9c:	0043202b 	sltu	a0,v0,v1
9d005ca0:	54800001 	bnezl	a0,9d005ca8 <__umoddi3+0x1a8>
9d005ca4:	00491021 	addu	v0,v0,t1
9d005ca8:	1000ffcc 	b	9d005bdc <__umoddi3+0xdc>
9d005cac:	00431023 	subu	v0,v0,v1
9d005cb0:	00ea3823 	subu	a3,a3,t2
9d005cb4:	01494804 	sllv	t1,t1,t2
9d005cb8:	00e41806 	srlv	v1,a0,a3
9d005cbc:	00093402 	srl	a2,t1,0x10
9d005cc0:	00e53806 	srlv	a3,a1,a3
9d005cc4:	00e6001b 	divu	zero,a3,a2
9d005cc8:	00c001f4 	teq	a2,zero,0x7
9d005ccc:	01451004 	sllv	v0,a1,t2
9d005cd0:	312bffff 	andi	t3,t1,0xffff
9d005cd4:	00621825 	or	v1,v1,v0
9d005cd8:	01441004 	sllv	v0,a0,t2
9d005cdc:	00032c02 	srl	a1,v1,0x10
9d005ce0:	00003812 	mflo	a3
9d005ce4:	00002010 	mfhi	a0
9d005ce8:	70eb4002 	mul	t0,a3,t3
9d005cec:	00043c00 	sll	a3,a0,0x10
9d005cf0:	00e53825 	or	a3,a3,a1
9d005cf4:	00e8202b 	sltu	a0,a3,t0
9d005cf8:	50800009 	beqzl	a0,9d005d20 <__umoddi3+0x220>
9d005cfc:	00e83823 	subu	a3,a3,t0
9d005d00:	00e93821 	addu	a3,a3,t1
9d005d04:	00e9202b 	sltu	a0,a3,t1
9d005d08:	54800005 	bnezl	a0,9d005d20 <__umoddi3+0x220>
9d005d0c:	00e83823 	subu	a3,a3,t0
9d005d10:	00e8202b 	sltu	a0,a3,t0
9d005d14:	54800001 	bnezl	a0,9d005d1c <__umoddi3+0x21c>
9d005d18:	00e93821 	addu	a3,a3,t1
9d005d1c:	00e83823 	subu	a3,a3,t0
9d005d20:	00e6001b 	divu	zero,a3,a2
9d005d24:	00c001f4 	teq	a2,zero,0x7
9d005d28:	3065ffff 	andi	a1,v1,0xffff
9d005d2c:	00003012 	mflo	a2
9d005d30:	00003810 	mfhi	a3
9d005d34:	00073c00 	sll	a3,a3,0x10
9d005d38:	00e52825 	or	a1,a3,a1
9d005d3c:	70cb3002 	mul	a2,a2,t3
9d005d40:	00a6182b 	sltu	v1,a1,a2
9d005d44:	5060ffb1 	beqzl	v1,9d005c0c <__umoddi3+0x10c>
9d005d48:	00a62823 	subu	a1,a1,a2
9d005d4c:	00a92821 	addu	a1,a1,t1
9d005d50:	00a9182b 	sltu	v1,a1,t1
9d005d54:	5460ffad 	bnezl	v1,9d005c0c <__umoddi3+0x10c>
9d005d58:	00a62823 	subu	a1,a1,a2
9d005d5c:	00a6182b 	sltu	v1,a1,a2
9d005d60:	54600001 	bnezl	v1,9d005d68 <__umoddi3+0x268>
9d005d64:	00a92821 	addu	a1,a1,t1
9d005d68:	1000ffa8 	b	9d005c0c <__umoddi3+0x10c>
9d005d6c:	00a62823 	subu	a1,a1,a2
9d005d70:	00a7402b 	sltu	t0,a1,a3
9d005d74:	1500005e 	bnez	t0,9d005ef0 <__umoddi3+0x3f0>
9d005d78:	70ee7020 	clz	t6,a3
9d005d7c:	15c0000c 	bnez	t6,9d005db0 <__umoddi3+0x2b0>
9d005d80:	240b0020 	li	t3,32
9d005d84:	00e5402b 	sltu	t0,a3,a1
9d005d88:	55000005 	bnezl	t0,9d005da0 <__umoddi3+0x2a0>
9d005d8c:	00861023 	subu	v0,a0,a2
9d005d90:	0086402b 	sltu	t0,a0,a2
9d005d94:	15000056 	bnez	t0,9d005ef0 <__umoddi3+0x3f0>
9d005d98:	00000000 	nop
9d005d9c:	00861023 	subu	v0,a0,a2
9d005da0:	00a72823 	subu	a1,a1,a3
9d005da4:	0082182b 	sltu	v1,a0,v0
9d005da8:	03e00008 	jr	ra
9d005dac:	00a31823 	subu	v1,a1,v1
9d005db0:	016e5823 	subu	t3,t3,t6
9d005db4:	01666006 	srlv	t4,a2,t3
9d005db8:	01c73804 	sllv	a3,a3,t6
9d005dbc:	01873825 	or	a3,t4,a3
9d005dc0:	01c51804 	sllv	v1,a1,t6
9d005dc4:	00074c02 	srl	t1,a3,0x10
9d005dc8:	01652806 	srlv	a1,a1,t3
9d005dcc:	00a9001b 	divu	zero,a1,t1
9d005dd0:	012001f4 	teq	t1,zero,0x7
9d005dd4:	01c61004 	sllv	v0,a2,t6
9d005dd8:	30e8ffff 	andi	t0,a3,0xffff
9d005ddc:	01643006 	srlv	a2,a0,t3
9d005de0:	00c33025 	or	a2,a2,v1
9d005de4:	00066402 	srl	t4,a2,0x10
9d005de8:	01c42004 	sllv	a0,a0,t6
9d005dec:	00002812 	mflo	a1
9d005df0:	00005010 	mfhi	t2
9d005df4:	000a5400 	sll	t2,t2,0x10
9d005df8:	014c5025 	or	t2,t2,t4
9d005dfc:	71051802 	mul	v1,t0,a1
9d005e00:	0143602b 	sltu	t4,t2,v1
9d005e04:	1180000a 	beqz	t4,9d005e30 <__umoddi3+0x330>
9d005e08:	00a06825 	move	t5,a1
9d005e0c:	01475021 	addu	t2,t2,a3
9d005e10:	0147602b 	sltu	t4,t2,a3
9d005e14:	15800006 	bnez	t4,9d005e30 <__umoddi3+0x330>
9d005e18:	24adffff 	addiu	t5,a1,-1
9d005e1c:	0143602b 	sltu	t4,t2,v1
9d005e20:	51800004 	beqzl	t4,9d005e34 <__umoddi3+0x334>
9d005e24:	01435023 	subu	t2,t2,v1
9d005e28:	24adfffe 	addiu	t5,a1,-2
9d005e2c:	01475021 	addu	t2,t2,a3
9d005e30:	01435023 	subu	t2,t2,v1
9d005e34:	0149001b 	divu	zero,t2,t1
9d005e38:	012001f4 	teq	t1,zero,0x7
9d005e3c:	00004812 	mflo	t1
9d005e40:	00005010 	mfhi	t2
9d005e44:	000a5400 	sll	t2,t2,0x10
9d005e48:	71091802 	mul	v1,t0,t1
9d005e4c:	30c8ffff 	andi	t0,a2,0xffff
9d005e50:	01484025 	or	t0,t2,t0
9d005e54:	0103302b 	sltu	a2,t0,v1
9d005e58:	10c0000a 	beqz	a2,9d005e84 <__umoddi3+0x384>
9d005e5c:	01202825 	move	a1,t1
9d005e60:	01074021 	addu	t0,t0,a3
9d005e64:	0107302b 	sltu	a2,t0,a3
9d005e68:	14c00006 	bnez	a2,9d005e84 <__umoddi3+0x384>
9d005e6c:	2525ffff 	addiu	a1,t1,-1
9d005e70:	0103302b 	sltu	a2,t0,v1
9d005e74:	10c00004 	beqz	a2,9d005e88 <__umoddi3+0x388>
9d005e78:	000d6400 	sll	t4,t5,0x10
9d005e7c:	2525fffe 	addiu	a1,t1,-2
9d005e80:	01074021 	addu	t0,t0,a3
9d005e84:	000d6400 	sll	t4,t5,0x10
9d005e88:	01856025 	or	t4,t4,a1
9d005e8c:	01820019 	multu	t4,v0
9d005e90:	01034023 	subu	t0,t0,v1
9d005e94:	00006810 	mfhi	t5
9d005e98:	010d282b 	sltu	a1,t0,t5
9d005e9c:	01a01825 	move	v1,t5
9d005ea0:	00006012 	mflo	t4
9d005ea4:	14a00006 	bnez	a1,9d005ec0 <__umoddi3+0x3c0>
9d005ea8:	00003012 	mflo	a2
9d005eac:	150d0009 	bne	t0,t5,9d005ed4 <__umoddi3+0x3d4>
9d005eb0:	00863023 	subu	a2,a0,a2
9d005eb4:	008c282b 	sltu	a1,a0,t4
9d005eb8:	50a00007 	beqzl	a1,9d005ed8 <__umoddi3+0x3d8>
9d005ebc:	01034023 	subu	t0,t0,v1
9d005ec0:	01823023 	subu	a2,t4,v0
9d005ec4:	01a73823 	subu	a3,t5,a3
9d005ec8:	0186602b 	sltu	t4,t4,a2
9d005ecc:	00ec1823 	subu	v1,a3,t4
9d005ed0:	00863023 	subu	a2,a0,a2
9d005ed4:	01034023 	subu	t0,t0,v1
9d005ed8:	0086182b 	sltu	v1,a0,a2
9d005edc:	01031823 	subu	v1,t0,v1
9d005ee0:	01631004 	sllv	v0,v1,t3
9d005ee4:	01c63006 	srlv	a2,a2,t6
9d005ee8:	00461025 	or	v0,v0,a2
9d005eec:	01c31806 	srlv	v1,v1,t6
9d005ef0:	03e00008 	jr	ra
9d005ef4:	00000000 	nop

9d005ef8 <__udivdi3>:
9d005ef8:	00c04025 	move	t0,a2
9d005efc:	00e01825 	move	v1,a3
9d005f00:	00805025 	move	t2,a0
9d005f04:	14e000a3 	bnez	a3,9d006194 <__udivdi3+0x29c>
9d005f08:	00a01025 	move	v0,a1
9d005f0c:	00a6302b 	sltu	a2,a1,a2
9d005f10:	10c00034 	beqz	a2,9d005fe4 <__udivdi3+0xec>
9d005f14:	00000000 	nop
9d005f18:	71052820 	clz	a1,t0
9d005f1c:	50a00008 	beqzl	a1,9d005f40 <__udivdi3+0x48>
9d005f20:	00082c02 	srl	a1,t0,0x10
9d005f24:	00052023 	negu	a0,a1
9d005f28:	008a2006 	srlv	a0,t2,a0
9d005f2c:	00a21004 	sllv	v0,v0,a1
9d005f30:	00a84004 	sllv	t0,t0,a1
9d005f34:	00821025 	or	v0,a0,v0
9d005f38:	00aa5004 	sllv	t2,t2,a1
9d005f3c:	00082c02 	srl	a1,t0,0x10
9d005f40:	0045001b 	divu	zero,v0,a1
9d005f44:	00a001f4 	teq	a1,zero,0x7
9d005f48:	3107ffff 	andi	a3,t0,0xffff
9d005f4c:	000a2402 	srl	a0,t2,0x10
9d005f50:	00003012 	mflo	a2
9d005f54:	00001010 	mfhi	v0
9d005f58:	00021400 	sll	v0,v0,0x10
9d005f5c:	00442025 	or	a0,v0,a0
9d005f60:	70e64802 	mul	t1,a3,a2
9d005f64:	0089582b 	sltu	t3,a0,t1
9d005f68:	1160000a 	beqz	t3,9d005f94 <__udivdi3+0x9c>
9d005f6c:	00c01025 	move	v0,a2
9d005f70:	00882021 	addu	a0,a0,t0
9d005f74:	0088582b 	sltu	t3,a0,t0
9d005f78:	15600006 	bnez	t3,9d005f94 <__udivdi3+0x9c>
9d005f7c:	24c2ffff 	addiu	v0,a2,-1
9d005f80:	0089582b 	sltu	t3,a0,t1
9d005f84:	51600004 	beqzl	t3,9d005f98 <__udivdi3+0xa0>
9d005f88:	00892023 	subu	a0,a0,t1
9d005f8c:	24c2fffe 	addiu	v0,a2,-2
9d005f90:	00882021 	addu	a0,a0,t0
9d005f94:	00892023 	subu	a0,a0,t1
9d005f98:	0085001b 	divu	zero,a0,a1
9d005f9c:	00a001f4 	teq	a1,zero,0x7
9d005fa0:	314affff 	andi	t2,t2,0xffff
9d005fa4:	00002012 	mflo	a0
9d005fa8:	00002810 	mfhi	a1
9d005fac:	00052c00 	sll	a1,a1,0x10
9d005fb0:	00aa5025 	or	t2,a1,t2
9d005fb4:	70e43802 	mul	a3,a3,a0
9d005fb8:	0147282b 	sltu	a1,t2,a3
9d005fbc:	10a00006 	beqz	a1,9d005fd8 <__udivdi3+0xe0>
9d005fc0:	00803025 	move	a2,a0
9d005fc4:	010a5021 	addu	t2,t0,t2
9d005fc8:	0148402b 	sltu	t0,t2,t0
9d005fcc:	2486ffff 	addiu	a2,a0,-1
9d005fd0:	11000036 	beqz	t0,9d0060ac <__udivdi3+0x1b4>
9d005fd4:	0147502b 	sltu	t2,t2,a3
9d005fd8:	00021400 	sll	v0,v0,0x10
9d005fdc:	03e00008 	jr	ra
9d005fe0:	00461025 	or	v0,v0,a2
9d005fe4:	15000006 	bnez	t0,9d006000 <__udivdi3+0x108>
9d005fe8:	71021020 	clz	v0,t0
9d005fec:	24020001 	li	v0,1
9d005ff0:	0048001b 	divu	zero,v0,t0
9d005ff4:	010001f4 	teq	t0,zero,0x7
9d005ff8:	00004012 	mflo	t0
9d005ffc:	71021020 	clz	v0,t0
9d006000:	1440002e 	bnez	v0,9d0060bc <__udivdi3+0x1c4>
9d006004:	24090020 	li	t1,32
9d006008:	00a82823 	subu	a1,a1,t0
9d00600c:	24030001 	li	v1,1
9d006010:	00083402 	srl	a2,t0,0x10
9d006014:	00a6001b 	divu	zero,a1,a2
9d006018:	00c001f4 	teq	a2,zero,0x7
9d00601c:	3107ffff 	andi	a3,t0,0xffff
9d006020:	000a2402 	srl	a0,t2,0x10
9d006024:	00002812 	mflo	a1
9d006028:	00001010 	mfhi	v0
9d00602c:	00021400 	sll	v0,v0,0x10
9d006030:	00442025 	or	a0,v0,a0
9d006034:	70e54802 	mul	t1,a3,a1
9d006038:	0089582b 	sltu	t3,a0,t1
9d00603c:	1160000a 	beqz	t3,9d006068 <__udivdi3+0x170>
9d006040:	00a01025 	move	v0,a1
9d006044:	00882021 	addu	a0,a0,t0
9d006048:	0088582b 	sltu	t3,a0,t0
9d00604c:	15600006 	bnez	t3,9d006068 <__udivdi3+0x170>
9d006050:	24a2ffff 	addiu	v0,a1,-1
9d006054:	0089582b 	sltu	t3,a0,t1
9d006058:	51600004 	beqzl	t3,9d00606c <__udivdi3+0x174>
9d00605c:	00892023 	subu	a0,a0,t1
9d006060:	24a2fffe 	addiu	v0,a1,-2
9d006064:	00882021 	addu	a0,a0,t0
9d006068:	00892023 	subu	a0,a0,t1
9d00606c:	0086001b 	divu	zero,a0,a2
9d006070:	00c001f4 	teq	a2,zero,0x7
9d006074:	314affff 	andi	t2,t2,0xffff
9d006078:	00002012 	mflo	a0
9d00607c:	00003010 	mfhi	a2
9d006080:	00063400 	sll	a2,a2,0x10
9d006084:	00ca5025 	or	t2,a2,t2
9d006088:	70e42802 	mul	a1,a3,a0
9d00608c:	0145382b 	sltu	a3,t2,a1
9d006090:	10e0ffd1 	beqz	a3,9d005fd8 <__udivdi3+0xe0>
9d006094:	00803025 	move	a2,a0
9d006098:	010a5021 	addu	t2,t0,t2
9d00609c:	0148402b 	sltu	t0,t2,t0
9d0060a0:	1500ffcd 	bnez	t0,9d005fd8 <__udivdi3+0xe0>
9d0060a4:	2486ffff 	addiu	a2,a0,-1
9d0060a8:	0145502b 	sltu	t2,t2,a1
9d0060ac:	5540ffca 	bnezl	t2,9d005fd8 <__udivdi3+0xe0>
9d0060b0:	2486fffe 	addiu	a2,a0,-2
9d0060b4:	1000ffc9 	b	9d005fdc <__udivdi3+0xe4>
9d0060b8:	00021400 	sll	v0,v0,0x10
9d0060bc:	01224823 	subu	t1,t1,v0
9d0060c0:	00484004 	sllv	t0,t0,v0
9d0060c4:	00451804 	sllv	v1,a1,v0
9d0060c8:	00445004 	sllv	t2,a0,v0
9d0060cc:	01252806 	srlv	a1,a1,t1
9d0060d0:	00081402 	srl	v0,t0,0x10
9d0060d4:	00a2001b 	divu	zero,a1,v0
9d0060d8:	004001f4 	teq	v0,zero,0x7
9d0060dc:	3106ffff 	andi	a2,t0,0xffff
9d0060e0:	01243806 	srlv	a3,a0,t1
9d0060e4:	00e33825 	or	a3,a3,v1
9d0060e8:	00071c02 	srl	v1,a3,0x10
9d0060ec:	00002812 	mflo	a1
9d0060f0:	00002010 	mfhi	a0
9d0060f4:	00042400 	sll	a0,a0,0x10
9d0060f8:	00832025 	or	a0,a0,v1
9d0060fc:	70c54802 	mul	t1,a2,a1
9d006100:	0089582b 	sltu	t3,a0,t1
9d006104:	1160000a 	beqz	t3,9d006130 <__udivdi3+0x238>
9d006108:	00a01825 	move	v1,a1
9d00610c:	00882021 	addu	a0,a0,t0
9d006110:	0088582b 	sltu	t3,a0,t0
9d006114:	15600006 	bnez	t3,9d006130 <__udivdi3+0x238>
9d006118:	24a3ffff 	addiu	v1,a1,-1
9d00611c:	0089582b 	sltu	t3,a0,t1
9d006120:	51600004 	beqzl	t3,9d006134 <__udivdi3+0x23c>
9d006124:	00892023 	subu	a0,a0,t1
9d006128:	24a3fffe 	addiu	v1,a1,-2
9d00612c:	00882021 	addu	a0,a0,t0
9d006130:	00892023 	subu	a0,a0,t1
9d006134:	0082001b 	divu	zero,a0,v0
9d006138:	004001f4 	teq	v0,zero,0x7
9d00613c:	30e5ffff 	andi	a1,a3,0xffff
9d006140:	00001012 	mflo	v0
9d006144:	00002010 	mfhi	a0
9d006148:	00042400 	sll	a0,a0,0x10
9d00614c:	00852825 	or	a1,a0,a1
9d006150:	70c23002 	mul	a2,a2,v0
9d006154:	00a6382b 	sltu	a3,a1,a2
9d006158:	10e0000a 	beqz	a3,9d006184 <__udivdi3+0x28c>
9d00615c:	00402025 	move	a0,v0
9d006160:	00a82821 	addu	a1,a1,t0
9d006164:	00a8382b 	sltu	a3,a1,t0
9d006168:	14e00006 	bnez	a3,9d006184 <__udivdi3+0x28c>
9d00616c:	2444ffff 	addiu	a0,v0,-1
9d006170:	00a6382b 	sltu	a3,a1,a2
9d006174:	50e00004 	beqzl	a3,9d006188 <__udivdi3+0x290>
9d006178:	00031c00 	sll	v1,v1,0x10
9d00617c:	2444fffe 	addiu	a0,v0,-2
9d006180:	00a82821 	addu	a1,a1,t0
9d006184:	00031c00 	sll	v1,v1,0x10
9d006188:	00a62823 	subu	a1,a1,a2
9d00618c:	1000ffa0 	b	9d006010 <__udivdi3+0x118>
9d006190:	00641825 	or	v1,v1,a0
9d006194:	00a7102b 	sltu	v0,a1,a3
9d006198:	1440004f 	bnez	v0,9d0062d8 <__udivdi3+0x3e0>
9d00619c:	00001825 	move	v1,zero
9d0061a0:	70ea5020 	clz	t2,a3
9d0061a4:	15400008 	bnez	t2,9d0061c8 <__udivdi3+0x2d0>
9d0061a8:	24090020 	li	t1,32
9d0061ac:	00e5282b 	sltu	a1,a3,a1
9d0061b0:	54a0004a 	bnezl	a1,9d0062dc <__udivdi3+0x3e4>
9d0061b4:	24020001 	li	v0,1
9d0061b8:	0086102b 	sltu	v0,a0,a2
9d0061bc:	38420001 	xori	v0,v0,0x1
9d0061c0:	03e00008 	jr	ra
9d0061c4:	00001825 	move	v1,zero
9d0061c8:	012a4823 	subu	t1,t1,t2
9d0061cc:	01261006 	srlv	v0,a2,t1
9d0061d0:	01473804 	sllv	a3,a3,t2
9d0061d4:	00473825 	or	a3,v0,a3
9d0061d8:	00074402 	srl	t0,a3,0x10
9d0061dc:	01451004 	sllv	v0,a1,t2
9d0061e0:	01252806 	srlv	a1,a1,t1
9d0061e4:	00a8001b 	divu	zero,a1,t0
9d0061e8:	010001f4 	teq	t0,zero,0x7
9d0061ec:	01246006 	srlv	t4,a0,t1
9d0061f0:	30ebffff 	andi	t3,a3,0xffff
9d0061f4:	01826025 	or	t4,t4,v0
9d0061f8:	000c1c02 	srl	v1,t4,0x10
9d0061fc:	01463004 	sllv	a2,a2,t2
9d006200:	00002812 	mflo	a1
9d006204:	00004810 	mfhi	t1
9d006208:	00094c00 	sll	t1,t1,0x10
9d00620c:	01234825 	or	t1,t1,v1
9d006210:	71651002 	mul	v0,t3,a1
9d006214:	0122682b 	sltu	t5,t1,v0
9d006218:	11a0000a 	beqz	t5,9d006244 <__udivdi3+0x34c>
9d00621c:	00a01825 	move	v1,a1
9d006220:	01274821 	addu	t1,t1,a3
9d006224:	0127682b 	sltu	t5,t1,a3
9d006228:	15a00006 	bnez	t5,9d006244 <__udivdi3+0x34c>
9d00622c:	24a3ffff 	addiu	v1,a1,-1
9d006230:	0122682b 	sltu	t5,t1,v0
9d006234:	51a00004 	beqzl	t5,9d006248 <__udivdi3+0x350>
9d006238:	01224823 	subu	t1,t1,v0
9d00623c:	24a3fffe 	addiu	v1,a1,-2
9d006240:	01274821 	addu	t1,t1,a3
9d006244:	01224823 	subu	t1,t1,v0
9d006248:	0128001b 	divu	zero,t1,t0
9d00624c:	010001f4 	teq	t0,zero,0x7
9d006250:	3185ffff 	andi	a1,t4,0xffff
9d006254:	00004012 	mflo	t0
9d006258:	00004810 	mfhi	t1
9d00625c:	00094c00 	sll	t1,t1,0x10
9d006260:	01252825 	or	a1,t1,a1
9d006264:	71685802 	mul	t3,t3,t0
9d006268:	00ab102b 	sltu	v0,a1,t3
9d00626c:	1040000a 	beqz	v0,9d006298 <__udivdi3+0x3a0>
9d006270:	01004825 	move	t1,t0
9d006274:	00a72821 	addu	a1,a1,a3
9d006278:	00a7102b 	sltu	v0,a1,a3
9d00627c:	14400006 	bnez	v0,9d006298 <__udivdi3+0x3a0>
9d006280:	2509ffff 	addiu	t1,t0,-1
9d006284:	00ab102b 	sltu	v0,a1,t3
9d006288:	10400004 	beqz	v0,9d00629c <__udivdi3+0x3a4>
9d00628c:	00031400 	sll	v0,v1,0x10
9d006290:	2509fffe 	addiu	t1,t0,-2
9d006294:	00a72821 	addu	a1,a1,a3
9d006298:	00031400 	sll	v0,v1,0x10
9d00629c:	00491025 	or	v0,v0,t1
9d0062a0:	00460019 	multu	v0,a2
9d0062a4:	00ab2823 	subu	a1,a1,t3
9d0062a8:	00003810 	mfhi	a3
9d0062ac:	00a7182b 	sltu	v1,a1,a3
9d0062b0:	14600007 	bnez	v1,9d0062d0 <__udivdi3+0x3d8>
9d0062b4:	00003012 	mflo	a2
9d0062b8:	14a70008 	bne	a1,a3,9d0062dc <__udivdi3+0x3e4>
9d0062bc:	00001825 	move	v1,zero
9d0062c0:	01442004 	sllv	a0,a0,t2
9d0062c4:	0086202b 	sltu	a0,a0,a2
9d0062c8:	10800004 	beqz	a0,9d0062dc <__udivdi3+0x3e4>
9d0062cc:	00000000 	nop
9d0062d0:	1000ffbb 	b	9d0061c0 <__udivdi3+0x2c8>
9d0062d4:	2442ffff 	addiu	v0,v0,-1
9d0062d8:	00001025 	move	v0,zero
9d0062dc:	03e00008 	jr	ra
9d0062e0:	00000000 	nop

Disassembly of section .text.__strtof:

9d0062e4 <__strtof>:
9d0062e4:	27bdffc8 	addiu	sp,sp,-56
9d0062e8:	afb60028 	sw	s6,40(sp)
9d0062ec:	afb3001c 	sw	s3,28(sp)
9d0062f0:	afb20018 	sw	s2,24(sp)
9d0062f4:	afb00010 	sw	s0,16(sp)
9d0062f8:	afbf0034 	sw	ra,52(sp)
9d0062fc:	afbe0030 	sw	s8,48(sp)
9d006300:	afb7002c 	sw	s7,44(sp)
9d006304:	afb50024 	sw	s5,36(sp)
9d006308:	afb40020 	sw	s4,32(sp)
9d00630c:	afb10014 	sw	s1,20(sp)
9d006310:	80830000 	lb	v1,0(a0)
9d006314:	3c169d01 	lui	s6,0x9d01
9d006318:	26d68fc9 	addiu	s6,s6,-28727
9d00631c:	02c31021 	addu	v0,s6,v1
9d006320:	80420000 	lb	v0,0(v0)
9d006324:	00809025 	move	s2,a0
9d006328:	00a09825 	move	s3,a1
9d00632c:	30420088 	andi	v0,v0,0x88
9d006330:	10400008 	beqz	v0,9d006354 <__strtof+0x70>
9d006334:	00808025 	move	s0,a0
9d006338:	26100001 	addiu	s0,s0,1
9d00633c:	82030000 	lb	v1,0(s0)
9d006340:	02c31021 	addu	v0,s6,v1
9d006344:	80420000 	lb	v0,0(v0)
9d006348:	30420088 	andi	v0,v0,0x88
9d00634c:	5440fffb 	bnezl	v0,9d00633c <__strtof+0x58>
9d006350:	26100001 	addiu	s0,s0,1
9d006354:	2402002d 	li	v0,45
9d006358:	10620090 	beq	v1,v0,9d00659c <__strtof+0x2b8>
9d00635c:	3863002b 	xori	v1,v1,0x2b
9d006360:	2c630001 	sltiu	v1,v1,1
9d006364:	02038021 	addu	s0,s0,v1
9d006368:	82030000 	lb	v1,0(s0)
9d00636c:	0000a825 	move	s5,zero
9d006370:	00008825 	move	s1,zero
9d006374:	02c31021 	addu	v0,s6,v1
9d006378:	90420000 	lbu	v0,0(v0)
9d00637c:	30420004 	andi	v0,v0,0x4
9d006380:	1040008f 	beqz	v0,9d0065c0 <__strtof+0x2dc>
9d006384:	0000a025 	move	s4,zero
9d006388:	2477ffd0 	addiu	s7,v1,-48
9d00638c:	02202025 	move	a0,s1
9d006390:	0f4020d4 	jal	9d008350 <__mulsf3>
9d006394:	3c054120 	lui	a1,0x4120
9d006398:	02e02025 	move	a0,s7
9d00639c:	0f40288a 	jal	9d00a228 <__floatsisf>
9d0063a0:	00408825 	move	s1,v0
9d0063a4:	00402825 	move	a1,v0
9d0063a8:	02202025 	move	a0,s1
9d0063ac:	0f401c90 	jal	9d007240 <__addsf3>
9d0063b0:	26100001 	addiu	s0,s0,1
9d0063b4:	82030000 	lb	v1,0(s0)
9d0063b8:	00408825 	move	s1,v0
9d0063bc:	02c31021 	addu	v0,s6,v1
9d0063c0:	90420000 	lbu	v0,0(v0)
9d0063c4:	30420004 	andi	v0,v0,0x4
9d0063c8:	1440ffef 	bnez	v0,9d006388 <__strtof+0xa4>
9d0063cc:	0297a025 	or	s4,s4,s7
9d0063d0:	2402002e 	li	v0,46
9d0063d4:	146200a3 	bne	v1,v0,9d006664 <__strtof+0x380>
9d0063d8:	24040001 	li	a0,1
9d0063dc:	82030001 	lb	v1,1(s0)
9d0063e0:	02c31021 	addu	v0,s6,v1
9d0063e4:	90420000 	lbu	v0,0(v0)
9d0063e8:	30420004 	andi	v0,v0,0x4
9d0063ec:	10400052 	beqz	v0,9d006538 <__strtof+0x254>
9d0063f0:	26170001 	addiu	s7,s0,1
9d0063f4:	241e0001 	li	s8,1
9d0063f8:	2472ffd0 	addiu	s2,v1,-48
9d0063fc:	02202025 	move	a0,s1
9d006400:	0f4020d4 	jal	9d008350 <__mulsf3>
9d006404:	3c054120 	lui	a1,0x4120
9d006408:	02402025 	move	a0,s2
9d00640c:	0f40288a 	jal	9d00a228 <__floatsisf>
9d006410:	00408825 	move	s1,v0
9d006414:	26f70001 	addiu	s7,s7,1
9d006418:	02202025 	move	a0,s1
9d00641c:	0f401c90 	jal	9d007240 <__addsf3>
9d006420:	00402825 	move	a1,v0
9d006424:	82e30000 	lb	v1,0(s7)
9d006428:	00408825 	move	s1,v0
9d00642c:	03d72023 	subu	a0,s8,s7
9d006430:	02c31021 	addu	v0,s6,v1
9d006434:	90420000 	lbu	v0,0(v0)
9d006438:	0292a025 	or	s4,s4,s2
9d00643c:	30420004 	andi	v0,v0,0x4
9d006440:	1440ffed 	bnez	v0,9d0063f8 <__strtof+0x114>
9d006444:	02049021 	addu	s2,s0,a0
9d006448:	7c032944 	ins	v1,zero,0x5,0x1
9d00644c:	24020045 	li	v0,69
9d006450:	50620060 	beql	v1,v0,9d0065d4 <__strtof+0x2f0>
9d006454:	82e50001 	lb	a1,1(s7)
9d006458:	56600001 	bnezl	s3,9d006460 <__strtof+0x17c>
9d00645c:	ae770000 	sw	s7,0(s3)
9d006460:	12400039 	beqz	s2,9d006548 <__strtof+0x264>
9d006464:	001217c3 	sra	v0,s2,0x1f
9d006468:	00529826 	xor	s3,v0,s2
9d00646c:	3c169d01 	lui	s6,0x9d01
9d006470:	02629823 	subu	s3,s3,v0
9d006474:	24100006 	li	s0,6
9d006478:	3c023f80 	lui	v0,0x3f80
9d00647c:	10000003 	b	9d00648c <__strtof+0x1a8>
9d006480:	26d6a8f8 	addiu	s6,s6,-22280
9d006484:	1200000d 	beqz	s0,9d0064bc <__strtof+0x1d8>
9d006488:	00402825 	move	a1,v0
9d00648c:	2610ffff 	addiu	s0,s0,-1
9d006490:	02131807 	srav	v1,s3,s0
9d006494:	30630001 	andi	v1,v1,0x1
9d006498:	1060fffa 	beqz	v1,9d006484 <__strtof+0x1a0>
9d00649c:	00101880 	sll	v1,s0,0x2
9d0064a0:	02c31821 	addu	v1,s6,v1
9d0064a4:	8c650000 	lw	a1,0(v1)
9d0064a8:	0f4020d4 	jal	9d008350 <__mulsf3>
9d0064ac:	00402025 	move	a0,v0
9d0064b0:	5600fff7 	bnezl	s0,9d006490 <__strtof+0x1ac>
9d0064b4:	2610ffff 	addiu	s0,s0,-1
9d0064b8:	00402825 	move	a1,v0
9d0064bc:	06400060 	bltz	s2,9d006640 <__strtof+0x35c>
9d0064c0:	02202025 	move	a0,s1
9d0064c4:	0f4020d4 	jal	9d008350 <__mulsf3>
9d0064c8:	00000000 	nop
9d0064cc:	00402025 	move	a0,v0
9d0064d0:	0f402474 	jal	9d0091d0 <__ldexpf>
9d0064d4:	02402825 	move	a1,s2
9d0064d8:	00408825 	move	s1,v0
9d0064dc:	00111040 	sll	v0,s1,0x1
9d0064e0:	3c03ff00 	lui	v1,0xff00
9d0064e4:	1443001c 	bne	v0,v1,9d006558 <__strtof+0x274>
9d0064e8:	3c02a000 	lui	v0,0xa000
9d0064ec:	24030022 	li	v1,34
9d0064f0:	12a0001d 	beqz	s5,9d006568 <__strtof+0x284>
9d0064f4:	ac430038 	sw	v1,56(v0)
9d0064f8:	0f402a58 	jal	9d00a960 <__negsf2>
9d0064fc:	02202025 	move	a0,s1
9d006500:	8fbf0034 	lw	ra,52(sp)
9d006504:	00408825 	move	s1,v0
9d006508:	02201025 	move	v0,s1
9d00650c:	8fbe0030 	lw	s8,48(sp)
9d006510:	8fb7002c 	lw	s7,44(sp)
9d006514:	8fb60028 	lw	s6,40(sp)
9d006518:	8fb50024 	lw	s5,36(sp)
9d00651c:	8fb40020 	lw	s4,32(sp)
9d006520:	8fb3001c 	lw	s3,28(sp)
9d006524:	8fb20018 	lw	s2,24(sp)
9d006528:	8fb10014 	lw	s1,20(sp)
9d00652c:	8fb00010 	lw	s0,16(sp)
9d006530:	03e00008 	jr	ra
9d006534:	27bd0038 	addiu	sp,sp,56
9d006538:	14800049 	bnez	a0,9d006660 <__strtof+0x37c>
9d00653c:	02e08025 	move	s0,s7
9d006540:	56600001 	bnezl	s3,9d006548 <__strtof+0x264>
9d006544:	ae720000 	sw	s2,0(s3)
9d006548:	00111040 	sll	v0,s1,0x1
9d00654c:	3c03ff00 	lui	v1,0xff00
9d006550:	1043ffe6 	beq	v0,v1,9d0064ec <__strtof+0x208>
9d006554:	3c02a000 	lui	v0,0xa000
9d006558:	12200045 	beqz	s1,9d006670 <__strtof+0x38c>
9d00655c:	00000000 	nop
9d006560:	16a0ffe5 	bnez	s5,9d0064f8 <__strtof+0x214>
9d006564:	00000000 	nop
9d006568:	8fbf0034 	lw	ra,52(sp)
9d00656c:	02201025 	move	v0,s1
9d006570:	8fbe0030 	lw	s8,48(sp)
9d006574:	8fb7002c 	lw	s7,44(sp)
9d006578:	8fb60028 	lw	s6,40(sp)
9d00657c:	8fb50024 	lw	s5,36(sp)
9d006580:	8fb40020 	lw	s4,32(sp)
9d006584:	8fb3001c 	lw	s3,28(sp)
9d006588:	8fb20018 	lw	s2,24(sp)
9d00658c:	8fb10014 	lw	s1,20(sp)
9d006590:	8fb00010 	lw	s0,16(sp)
9d006594:	03e00008 	jr	ra
9d006598:	27bd0038 	addiu	sp,sp,56
9d00659c:	26100001 	addiu	s0,s0,1
9d0065a0:	82030000 	lb	v1,0(s0)
9d0065a4:	24150001 	li	s5,1
9d0065a8:	00008825 	move	s1,zero
9d0065ac:	02c31021 	addu	v0,s6,v1
9d0065b0:	90420000 	lbu	v0,0(v0)
9d0065b4:	30420004 	andi	v0,v0,0x4
9d0065b8:	1440ff73 	bnez	v0,9d006388 <__strtof+0xa4>
9d0065bc:	0000a025 	move	s4,zero
9d0065c0:	2402002e 	li	v0,46
9d0065c4:	1462ffde 	bne	v1,v0,9d006540 <__strtof+0x25c>
9d0065c8:	02808825 	move	s1,s4
9d0065cc:	1000ff83 	b	9d0063dc <__strtof+0xf8>
9d0065d0:	00002025 	move	a0,zero
9d0065d4:	2402002d 	li	v0,45
9d0065d8:	10a2001d 	beq	a1,v0,9d006650 <__strtof+0x36c>
9d0065dc:	2402002b 	li	v0,43
9d0065e0:	50a20027 	beql	a1,v0,9d006680 <__strtof+0x39c>
9d0065e4:	82e50002 	lb	a1,2(s7)
9d0065e8:	26f70001 	addiu	s7,s7,1
9d0065ec:	00003825 	move	a3,zero
9d0065f0:	02c51021 	addu	v0,s6,a1
9d0065f4:	90420000 	lbu	v0,0(v0)
9d0065f8:	30420004 	andi	v0,v0,0x4
9d0065fc:	1040000c 	beqz	v0,9d006630 <__strtof+0x34c>
9d006600:	00002025 	move	a0,zero
9d006604:	26f70001 	addiu	s7,s7,1
9d006608:	24a6ffd0 	addiu	a2,a1,-48
9d00660c:	82e50000 	lb	a1,0(s7)
9d006610:	00041080 	sll	v0,a0,0x2
9d006614:	00441021 	addu	v0,v0,a0
9d006618:	02c51821 	addu	v1,s6,a1
9d00661c:	90630000 	lbu	v1,0(v1)
9d006620:	00021040 	sll	v0,v0,0x1
9d006624:	30630004 	andi	v1,v1,0x4
9d006628:	1460fff6 	bnez	v1,9d006604 <__strtof+0x320>
9d00662c:	00c22021 	addu	a0,a2,v0
9d006630:	00041023 	negu	v0,a0
9d006634:	0047200b 	movn	a0,v0,a3
9d006638:	1000ff87 	b	9d006458 <__strtof+0x174>
9d00663c:	02449021 	addu	s2,s2,a0
9d006640:	0f401e59 	jal	9d007964 <__divsf3>
9d006644:	00000000 	nop
9d006648:	1000ffa1 	b	9d0064d0 <__strtof+0x1ec>
9d00664c:	00402025 	move	a0,v0
9d006650:	82e50002 	lb	a1,2(s7)
9d006654:	24070001 	li	a3,1
9d006658:	1000ffe5 	b	9d0065f0 <__strtof+0x30c>
9d00665c:	26f70002 	addiu	s7,s7,2
9d006660:	82030000 	lb	v1,0(s0)
9d006664:	0200b825 	move	s7,s0
9d006668:	1000ff77 	b	9d006448 <__strtof+0x164>
9d00666c:	00009025 	move	s2,zero
9d006670:	1280ffbb 	beqz	s4,9d006560 <__strtof+0x27c>
9d006674:	3c02a000 	lui	v0,0xa000
9d006678:	1000ff9d 	b	9d0064f0 <__strtof+0x20c>
9d00667c:	24030022 	li	v1,34
9d006680:	00003825 	move	a3,zero
9d006684:	1000ffda 	b	9d0065f0 <__strtof+0x30c>
9d006688:	26f70002 	addiu	s7,s7,2

Disassembly of section .text.dp32mul:

9d00668c <__muldf3>:
9d00668c:	00055040 000a5542 00054ac0 00047d42     @P..BU...J..B}..
9d00669c:	012f4825 000442c0 3c0e8000 012e4825     %H/..B.....<%H..
9d0066ac:	00076840 000d6d42 000762c0 00067d42     @h..Bm...b..B}..
9d0066bc:	018f6025 00065ac0 018e6025 00a72826     %`...Z..%`..&(..
9d0066cc:	00ae2824 254fffff 2de107fe 10200047     $(....O%...-G. .
9d0066dc:	00000000                                ....

9d0066e0 <Clab1>:
9d0066e0:	25afffff 	addiu	t7,t5,-1
9d0066e4:	2de107fe 	sltiu	at,t7,2046
9d0066e8:	1020006f 	beqz	at,9d0068a8 <CspecB>
9d0066ec:	00000000 	nop

9d0066f0 <Clab2>:
9d0066f0:	25affc02 	addiu	t7,t5,-1022
9d0066f4:	014f5021 	addu	t2,t2,t7
9d0066f8:	012c0019 	multu	t1,t4
9d0066fc:	00003812 	mflo	a3
9d006700:	00007010 	mfhi	t6
9d006704:	010b0019 	multu	t0,t3
9d006708:	00002012 	mflo	a0
9d00670c:	00003010 	mfhi	a2
9d006710:	012b0019 	multu	t1,t3
9d006714:	00005812 	mflo	t3
9d006718:	00006810 	mfhi	t5
9d00671c:	00cb3021 	addu	a2,a2,t3
9d006720:	00cb782b 	sltu	t7,a2,t3
9d006724:	00ed3821 	addu	a3,a3,t5
9d006728:	00ef3821 	addu	a3,a3,t7
9d00672c:	10ed0002 	beq	a3,t5,9d006738 <L20>
9d006730:	00000000 	nop
9d006734:	00ed782b 	sltu	t7,a3,t5

9d006738 <L20>:
9d006738:	01cf7021 	addu	t6,t6,t7
9d00673c:	010c0019 	multu	t0,t4
9d006740:	00004012 	mflo	t0
9d006744:	00004810 	mfhi	t1
9d006748:	00c83021 	addu	a2,a2,t0
9d00674c:	00c8782b 	sltu	t7,a2,t0
9d006750:	00e93821 	addu	a3,a3,t1
9d006754:	00ef3821 	addu	a3,a3,t7
9d006758:	10e90002 	beq	a3,t1,9d006764 <L21>
9d00675c:	00000000 	nop
9d006760:	00e9782b 	sltu	t7,a3,t1

9d006764 <L21>:
9d006764:	01cf7021 	addu	t6,t6,t7
9d006768:	00867825 	or	t7,a0,a2
9d00676c:	11e00002 	beqz	t7,9d006778 <i13>
9d006770:	00000000 	nop
9d006774:	34e70001 	ori	a3,a3,0x1

9d006778 <i13>:
9d006778:	000e4825 	or	t1,zero,t6
9d00677c:	05200006 	bltz	t1,9d006798 <i14>
9d006780:	00074025 	or	t0,zero,a3
9d006784:	0100782a 	slt	t7,t0,zero
9d006788:	01084021 	addu	t0,t0,t0
9d00678c:	01294821 	addu	t1,t1,t1
9d006790:	012f4821 	addu	t1,t1,t7
9d006794:	254affff 	addiu	t2,t2,-1

9d006798 <i14>:
9d006798:	254fffff 	addiu	t7,t2,-1
9d00679c:	2de107fe 	sltiu	at,t7,2046
9d0067a0:	10200068 	beqz	at,9d006944 <Coveund>
9d0067a4:	00000000 	nop
9d0067a8:	25080400 	addiu	t0,t0,1024
9d0067ac:	2d0f0400 	sltiu	t7,t0,1024
9d0067b0:	012f4821 	addu	t1,t1,t7
9d0067b4:	012f782b 	sltu	t7,t1,t7
9d0067b8:	014f5021 	addu	t2,t2,t7

9d0067bc <Clab8>:
9d0067bc:	00087ac2 	srl	t7,t0,0xb
9d0067c0:	31ef0001 	andi	t7,t7,0x1
9d0067c4:	010f4023 	subu	t0,t0,t7
9d0067c8:	000822c2 	srl	a0,t0,0xb
9d0067cc:	00097d40 	sll	t7,t1,0x15
9d0067d0:	008f2025 	or	a0,a0,t7
9d0067d4:	00097840 	sll	t7,t1,0x1
9d0067d8:	000f7b02 	srl	t7,t7,0xc
9d0067dc:	00af2825 	or	a1,a1,t7
9d0067e0:	000a7d00 	sll	t7,t2,0x14
9d0067e4:	00af2825 	or	a1,a1,t7

9d0067e8 <Cret>:
9d0067e8:	00041025 	or	v0,zero,a0
9d0067ec:	00051825 	or	v1,zero,a1

9d0067f0 <C999>:
9d0067f0:	03e00008 	jr	ra
9d0067f4:	00000000 	nop

9d0067f8 <CspecA>:
9d0067f8:	0100782a 	slt	t7,t0,zero
9d0067fc:	01084021 	addu	t0,t0,t0
9d006800:	01294821 	addu	t1,t1,t1
9d006804:	1540001c 	bnez	t2,9d006878 <i15>
9d006808:	012f4821 	addu	t1,t1,t7
9d00680c:	01287825 	or	t7,t1,t0
9d006810:	11e00014 	beqz	t7,9d006864 <i16>
9d006814:	00000000 	nop
9d006818:	15200008 	bnez	t1,9d00683c <L22>
9d00681c:	00000000 	nop
9d006820:	15000003 	bnez	t0,9d006830 <L23>
9d006824:	00000000 	nop
9d006828:	1000ffad 	b	9d0066e0 <Clab1>
9d00682c:	240a0000 	li	t2,0

9d006830 <L23>:
9d006830:	01004825 	move	t1,t0
9d006834:	24080000 	li	t0,0
9d006838:	254affe0 	addiu	t2,t2,-32

9d00683c <L22>:
9d00683c:	712e7020 	clz	t6,t1
9d006840:	11c0ffa7 	beqz	t6,9d0066e0 <Clab1>
9d006844:	00000000 	nop
9d006848:	014e5023 	subu	t2,t2,t6
9d00684c:	000e3822 	neg	a3,t6
9d006850:	00e83806 	srlv	a3,t0,a3
9d006854:	01c84004 	sllv	t0,t0,t6
9d006858:	01c94804 	sllv	t1,t1,t6
9d00685c:	1000ffa0 	b	9d0066e0 <Clab1>
9d006860:	01274825 	or	t1,t1,a3

9d006864 <i16>:
9d006864:	240107ff 	li	at,2047
9d006868:	11a10033 	beq	t5,at,9d006938 <Cnan>
9d00686c:	00000000 	nop
9d006870:	1000ffdd 	b	9d0067e8 <Cret>
9d006874:	00000000 	nop

9d006878 <i15>:
9d006878:	01287825 	or	t7,t1,t0
9d00687c:	15e0002e 	bnez	t7,9d006938 <Cnan>
9d006880:	00000000 	nop
9d006884:	15a00005 	bnez	t5,9d00689c <i17>
9d006888:	00000000 	nop
9d00688c:	000c7840 	sll	t7,t4,0x1
9d006890:	01eb7825 	or	t7,t7,t3
9d006894:	11e00028 	beqz	t7,9d006938 <Cnan>
9d006898:	00000000 	nop

9d00689c <i17>:
9d00689c:	240107ff 	li	at,2047
9d0068a0:	15a10021 	bne	t5,at,9d006928 <Cinf>
9d0068a4:	00000000 	nop

9d0068a8 <CspecB>:
9d0068a8:	0160782a 	slt	t7,t3,zero
9d0068ac:	016b5821 	addu	t3,t3,t3
9d0068b0:	018c6021 	addu	t4,t4,t4
9d0068b4:	15a00019 	bnez	t5,9d00691c <i18>
9d0068b8:	018f6021 	addu	t4,t4,t7
9d0068bc:	018b7825 	or	t7,t4,t3
9d0068c0:	11e00014 	beqz	t7,9d006914 <i19>
9d0068c4:	00000000 	nop
9d0068c8:	15800008 	bnez	t4,9d0068ec <L25>
9d0068cc:	00000000 	nop
9d0068d0:	15600003 	bnez	t3,9d0068e0 <L26>
9d0068d4:	00000000 	nop
9d0068d8:	1000ff85 	b	9d0066f0 <Clab2>
9d0068dc:	240d0000 	li	t5,0

9d0068e0 <L26>:
9d0068e0:	01606025 	move	t4,t3
9d0068e4:	240b0000 	li	t3,0
9d0068e8:	25adffe0 	addiu	t5,t5,-32

9d0068ec <L25>:
9d0068ec:	71863020 	clz	a2,t4
9d0068f0:	10c0ff7f 	beqz	a2,9d0066f0 <Clab2>
9d0068f4:	00000000 	nop
9d0068f8:	01a66823 	subu	t5,t5,a2
9d0068fc:	00067022 	neg	t6,a2
9d006900:	01cb7006 	srlv	t6,t3,t6
9d006904:	00cb5804 	sllv	t3,t3,a2
9d006908:	00cc6004 	sllv	t4,t4,a2
9d00690c:	1000ff78 	b	9d0066f0 <Clab2>
9d006910:	018e6025 	or	t4,t4,t6

9d006914 <i19>:
9d006914:	1000ffb4 	b	9d0067e8 <Cret>
9d006918:	24040000 	li	a0,0

9d00691c <i18>:
9d00691c:	018b7825 	or	t7,t4,t3
9d006920:	15e00005 	bnez	t7,9d006938 <Cnan>
9d006924:	00000000 	nop

9d006928 <Cinf>:
9d006928:	3c017ff0 	lui	at,0x7ff0
9d00692c:	00a12825 	or	a1,a1,at
9d006930:	1000ffad 	b	9d0067e8 <Cret>
9d006934:	24040000 	li	a0,0

9d006938 <Cnan>:
9d006938:	3c05fff8 	lui	a1,0xfff8
9d00693c:	1000ffaa 	b	9d0067e8 <Cret>
9d006940:	24040000 	li	a0,0

9d006944 <Coveund>:
9d006944:	1d40fff8 	bgtz	t2,9d006928 <Cinf>
9d006948:	00000000 	nop
9d00694c:	240e0001 	li	t6,1
9d006950:	01ca7023 	subu	t6,t6,t2

9d006954 <L28>:
9d006954:	2dc10020 	sltiu	at,t6,32
9d006958:	14200007 	bnez	at,9d006978 <L29>
9d00695c:	00000000 	nop
9d006960:	21ceffe0 	addi	t6,t6,-32
9d006964:	0008302b 	sltu	a2,zero,t0
9d006968:	1009000d 	beq	zero,t1,9d0069a0 <L30>
9d00696c:	01264025 	or	t0,t1,a2
9d006970:	1000fff8 	b	9d006954 <L28>
9d006974:	34090000 	li	t1,0x0

9d006978 <L29>:
9d006978:	11c00009 	beqz	t6,9d0069a0 <L30>
9d00697c:	00000000 	nop
9d006980:	000e3822 	neg	a3,t6
9d006984:	00e83004 	sllv	a2,t0,a3
9d006988:	00e93804 	sllv	a3,t1,a3
9d00698c:	01c84006 	srlv	t0,t0,t6
9d006990:	01c94806 	srlv	t1,t1,t6
9d006994:	10c00002 	beqz	a2,9d0069a0 <L30>
9d006998:	00e84025 	or	t0,a3,t0
9d00699c:	35080002 	ori	t0,t0,0x2

9d0069a0 <L30>:
9d0069a0:	25080400 	addiu	t0,t0,1024
9d0069a4:	2d0f0400 	sltiu	t7,t0,1024
9d0069a8:	012f4821 	addu	t1,t1,t7
9d0069ac:	1000ff83 	b	9d0067bc <Clab8>
9d0069b0:	000957c2 	srl	t2,t1,0x1f
9d0069b4:	00000000 	nop

Disassembly of section .text:

9d0069b8 <main>:
//reference position/velocity, controlled by user input
int client_input;
static volatile int adcval;

int main() 
{
9d0069b8:	27bdfef0 	addiu	sp,sp,-272
9d0069bc:	afbf010c 	sw	ra,268(sp)
9d0069c0:	afb60108 	sw	s6,264(sp)
9d0069c4:	afb50104 	sw	s5,260(sp)
9d0069c8:	afb40100 	sw	s4,256(sp)
9d0069cc:	afb300fc 	sw	s3,252(sp)
9d0069d0:	afb200f8 	sw	s2,248(sp)
9d0069d4:	afb100f4 	sw	s1,244(sp)
  char buffer[BUF_SIZE];
  NU32_Startup(); // cache on, min flash wait, interrupts on, LED/button init, UART init
9d0069d8:	0f4021b0 	jal	9d0086c0 <NU32_Startup>
9d0069dc:	afb000f0 	sw	s0,240(sp)
  NU32_LED1 = 1;  // turn off the LEDs
9d0069e0:	3c02bf88 	lui	v0,0xbf88
9d0069e4:	90436160 	lbu	v1,24928(v0)
9d0069e8:	24040001 	li	a0,1
9d0069ec:	7c830004 	ins	v1,a0,0x0,0x1
9d0069f0:	a0436160 	sb	v1,24928(v0)
  NU32_LED2 = 1; 
9d0069f4:	90436160 	lbu	v1,24928(v0)
9d0069f8:	7c830844 	ins	v1,a0,0x1,0x1
9d0069fc:	a0436160 	sb	v1,24928(v0)
  
  __builtin_disable_interrupts();
9d006a00:	41626000 	di	v0
9d006a04:	000000c0 	ehb
  // in future, initialize modules or peripherals here
  initialize_sfrs();
9d006a08:	0f401f6b 	jal	9d007dac <initialize_sfrs>
9d006a0c:	00000000 	nop
  __builtin_enable_interrupts();
9d006a10:	41626020 	ei	v0

  while(1)
  {
    NU32_ReadUART3(buffer,BUF_SIZE); // we expect the next character to be a menu command
    NU32_LED2 = 1;                   // clear the error LED
9d006a14:	3c10bf88 	lui	s0,0xbf88
    switch (buffer[0]) {
9d006a18:	3c119d00 	lui	s1,0x9d00
9d006a1c:	26316a78 	addiu	s1,s1,27256
		}
	  
		case 'r':
		{
			//read what mode the motor is in
			sprintf(buffer, "\nCurrent mode of program: %d \r\n", mode);
9d006a20:	3c139d00 	lui	s3,0x9d00
9d006a24:	26731eb8 	addiu	s3,s3,7864
			NU32_WriteUART3(buffer);

			sprintf(buffer,
9d006a28:	3c129d00 	lui	s2,0x9d00
9d006a2c:	26521ed8 	addiu	s2,s2,7896
    NU32_LED2 = 1;                   // clear the error LED
9d006a30:	24140001 	li	s4,1
    NU32_ReadUART3(buffer,BUF_SIZE); // we expect the next character to be a menu command
9d006a34:	240500c8 	li	a1,200
9d006a38:	0f4021f5 	jal	9d0087d4 <NU32_ReadUART3>
9d006a3c:	27a40020 	addiu	a0,sp,32
    NU32_LED2 = 1;                   // clear the error LED
9d006a40:	92026160 	lbu	v0,24928(s0)
9d006a44:	7e820844 	ins	v0,s4,0x1,0x1
9d006a48:	a2026160 	sb	v0,24928(s0)
    switch (buffer[0]) {
9d006a4c:	93a20020 	lbu	v0,32(sp)
9d006a50:	2442ff9c 	addiu	v0,v0,-100
9d006a54:	304300ff 	andi	v1,v0,0xff
9d006a58:	2c63000f 	sltiu	v1,v1,15
9d006a5c:	10600090 	beqz	v1,9d006ca0 <__jend_main_6+0x1ec>
9d006a60:	304200ff 	andi	v0,v0,0xff
9d006a64:	00021080 	sll	v0,v0,0x2
9d006a68:	02221021 	addu	v0,s1,v0
9d006a6c:	8c420000 	lw	v0,0(v0)
9d006a70:	00400008 	jr	v0
9d006a74:	00000000 	nop

9d006a78 <__jump_main_6>:
9d006a78:	9d006ab4 9d006ca0 9d006b00 9d006b58     .j...l...k..Xk..
9d006a88:	9d006a34 9d006ca0 9d006ca0 9d006ca0     4j...l...l...l..
9d006a98:	9d006ca0 9d006ca0 9d006ca0 9d006ca0     .l...l...l...l..
9d006aa8:	9d006bf4 9d006c08 9d006c4c              .k...l..Ll..

9d006ab4 <__jend_main_6>:
			int n = 0;
9d006ab4:	afa000e8 	sw	zero,232(sp)
			NU32_ReadUART3(buffer,BUF_SIZE);
9d006ab8:	240500c8 	li	a1,200
9d006abc:	0f4021f5 	jal	9d0087d4 <NU32_ReadUART3>
9d006ac0:	27a40020 	addiu	a0,sp,32
			sscanf(buffer, "%d", &n);
9d006ac4:	27a600e8 	addiu	a2,sp,232
9d006ac8:	3c059d00 	lui	a1,0x9d00
9d006acc:	24a51e00 	addiu	a1,a1,7680
9d006ad0:	0f4027f0 	jal	9d009fc0 <_sscanf_cdfFnopuxX>
9d006ad4:	27a40020 	addiu	a0,sp,32
			sprintf(buffer,"%d\r\n", n + 1); // return the number + 1
9d006ad8:	8fa600e8 	lw	a2,232(sp)
9d006adc:	24c60001 	addiu	a2,a2,1
9d006ae0:	3c059d00 	lui	a1,0x9d00
9d006ae4:	24a51e04 	addiu	a1,a1,7684
9d006ae8:	0f40285a 	jal	9d00a168 <_sprintf_cdfFnopuxX>
9d006aec:	27a40020 	addiu	a0,sp,32
			NU32_WriteUART3(buffer);
9d006af0:	0f40220c 	jal	9d008830 <NU32_WriteUART3>
9d006af4:	27a40020 	addiu	a0,sp,32
    NU32_LED2 = 1;                   // clear the error LED
9d006af8:	1000ffce 	b	9d006a34 <main+0x7c>
9d006afc:	24140001 	li	s4,1
			mode = PWM;
9d006b00:	24020001 	li	v0,1
9d006b04:	af82804c 	sw	v0,-32692(gp)
			NU32_WriteUART3("\nSet PWM (-100 to 100): ");
9d006b08:	3c049d00 	lui	a0,0x9d00
9d006b0c:	0f40220c 	jal	9d008830 <NU32_WriteUART3>
9d006b10:	24841e0c 	addiu	a0,a0,7692
			NU32_ReadUART3(buffer, BUF_SIZE);
9d006b14:	240500c8 	li	a1,200
9d006b18:	0f4021f5 	jal	9d0087d4 <NU32_ReadUART3>
9d006b1c:	27a40020 	addiu	a0,sp,32
			sscanf(buffer,"%d", &client_input);
9d006b20:	27868068 	addiu	a2,gp,-32664
9d006b24:	3c059d00 	lui	a1,0x9d00
9d006b28:	24a51e00 	addiu	a1,a1,7680
9d006b2c:	0f4027f0 	jal	9d009fc0 <_sscanf_cdfFnopuxX>
9d006b30:	27a40020 	addiu	a0,sp,32
			sprintf(buffer, "\r\nPWM set as: %d \r\n", client_input);
9d006b34:	8f868068 	lw	a2,-32664(gp)
9d006b38:	3c059d00 	lui	a1,0x9d00
9d006b3c:	24a51e28 	addiu	a1,a1,7720
9d006b40:	0f40285a 	jal	9d00a168 <_sprintf_cdfFnopuxX>
9d006b44:	27a40020 	addiu	a0,sp,32
			NU32_WriteUART3(buffer);
9d006b48:	0f40220c 	jal	9d008830 <NU32_WriteUART3>
9d006b4c:	27a40020 	addiu	a0,sp,32
			break;
9d006b50:	1000ffb8 	b	9d006a34 <main+0x7c>
9d006b54:	24140001 	li	s4,1
			NU32_WriteUART3("r\nEnter new current gain Kp: ");
9d006b58:	3c049d00 	lui	a0,0x9d00
9d006b5c:	0f40220c 	jal	9d008830 <NU32_WriteUART3>
9d006b60:	24841e3c 	addiu	a0,a0,7740
			NU32_ReadUART3(buffer, BUF_SIZE);
9d006b64:	240500c8 	li	a1,200
9d006b68:	0f4021f5 	jal	9d0087d4 <NU32_ReadUART3>
9d006b6c:	27a40020 	addiu	a0,sp,32
			sscanf(buffer, "%f", &Jp);
9d006b70:	27868024 	addiu	a2,gp,-32732
9d006b74:	3c149d00 	lui	s4,0x9d00
9d006b78:	26851e5c 	addiu	a1,s4,7772
9d006b7c:	0f4027f0 	jal	9d009fc0 <_sscanf_cdfFnopuxX>
9d006b80:	27a40020 	addiu	a0,sp,32
			NU32_WriteUART3("\r\nEnter new current gain Ki: ");
9d006b84:	3c049d00 	lui	a0,0x9d00
9d006b88:	0f40220c 	jal	9d008830 <NU32_WriteUART3>
9d006b8c:	24841e60 	addiu	a0,a0,7776
			NU32_ReadUART3(buffer, BUF_SIZE);
9d006b90:	240500c8 	li	a1,200
9d006b94:	0f4021f5 	jal	9d0087d4 <NU32_ReadUART3>
9d006b98:	27a40020 	addiu	a0,sp,32
			sscanf(buffer, "%f", &Ji);			
9d006b9c:	27868020 	addiu	a2,gp,-32736
9d006ba0:	26851e5c 	addiu	a1,s4,7772
9d006ba4:	0f4027f0 	jal	9d009fc0 <_sscanf_cdfFnopuxX>
9d006ba8:	27a40020 	addiu	a0,sp,32
			sprintf(buffer, "\r\nNew P + I gains: %f, %f", Jp, Ji);
9d006bac:	8f848024 	lw	a0,-32732(gp)
9d006bb0:	8f968020 	lw	s6,-32736(gp)
9d006bb4:	0f4025f0 	jal	9d0097c0 <__extendsfdf2>
9d006bb8:	00000000 	nop
9d006bbc:	0040a025 	move	s4,v0
9d006bc0:	0060a825 	move	s5,v1
9d006bc4:	0f4025f0 	jal	9d0097c0 <__extendsfdf2>
9d006bc8:	02c02025 	move	a0,s6
9d006bcc:	afa20010 	sw	v0,16(sp)
9d006bd0:	afa30014 	sw	v1,20(sp)
9d006bd4:	02803025 	move	a2,s4
9d006bd8:	02a03825 	move	a3,s5
9d006bdc:	3c059d00 	lui	a1,0x9d00
9d006be0:	24a51e80 	addiu	a1,a1,7808
9d006be4:	0f40285a 	jal	9d00a168 <_sprintf_cdfFnopuxX>
9d006be8:	27a40020 	addiu	a0,sp,32
			break;
9d006bec:	1000ff91 	b	9d006a34 <main+0x7c>
9d006bf0:	24140001 	li	s4,1
			NU32_WriteUART3("\nMotor set to IDLE mode.\r\n\n");
9d006bf4:	3c049d00 	lui	a0,0x9d00
9d006bf8:	0f40220c 	jal	9d008830 <NU32_WriteUART3>
9d006bfc:	24841e9c 	addiu	a0,a0,7836
			break;
9d006c00:	1000ff8b 	b	9d006a30 <main+0x78>
9d006c04:	af80804c 	sw	zero,-32692(gp)
			mode = IDLE;
9d006c08:	af80804c 	sw	zero,-32692(gp)
9d006c0c:	3c02003d 	lui	v0,0x3d
9d006c10:	24420900 	addiu	v0,v0,2304
			}
9d006c14:	2442ffff 	addiu	v0,v0,-1
			for (int i = 0; i < 4000000; ++i){
9d006c18:	1440ffff 	bnez	v0,9d006c18 <__jend_main_6+0x164>
9d006c1c:	2442ffff 	addiu	v0,v0,-1
	
  }
  
  
  return 0;
}
9d006c20:	00001025 	move	v0,zero
9d006c24:	8fbf010c 	lw	ra,268(sp)
9d006c28:	8fb60108 	lw	s6,264(sp)
9d006c2c:	8fb50104 	lw	s5,260(sp)
9d006c30:	8fb40100 	lw	s4,256(sp)
9d006c34:	8fb300fc 	lw	s3,252(sp)
9d006c38:	8fb200f8 	lw	s2,248(sp)
9d006c3c:	8fb100f4 	lw	s1,244(sp)
9d006c40:	8fb000f0 	lw	s0,240(sp)
9d006c44:	03e00008 	jr	ra
9d006c48:	27bd0110 	addiu	sp,sp,272
			sprintf(buffer, "\nCurrent mode of program: %d \r\n", mode);
9d006c4c:	8f86804c 	lw	a2,-32692(gp)
9d006c50:	02602825 	move	a1,s3
9d006c54:	0f40285a 	jal	9d00a168 <_sprintf_cdfFnopuxX>
9d006c58:	27a40020 	addiu	a0,sp,32
			NU32_WriteUART3(buffer);
9d006c5c:	0f40220c 	jal	9d008830 <NU32_WriteUART3>
9d006c60:	27a40020 	addiu	a0,sp,32
			sprintf(buffer,
9d006c64:	24020004 	li	v0,4
9d006c68:	afa20018 	sw	v0,24(sp)
9d006c6c:	24020003 	li	v0,3
9d006c70:	afa20014 	sw	v0,20(sp)
9d006c74:	24020002 	li	v0,2
9d006c78:	afa20010 	sw	v0,16(sp)
9d006c7c:	24070001 	li	a3,1
9d006c80:	00003025 	move	a2,zero
9d006c84:	02402825 	move	a1,s2
9d006c88:	0f40285a 	jal	9d00a168 <_sprintf_cdfFnopuxX>
9d006c8c:	27a40020 	addiu	a0,sp,32
			NU32_WriteUART3(buffer);
9d006c90:	0f40220c 	jal	9d008830 <NU32_WriteUART3>
9d006c94:	27a40020 	addiu	a0,sp,32
			break;
9d006c98:	1000ff66 	b	9d006a34 <main+0x7c>
9d006c9c:	24140001 	li	s4,1
			NU32_LED2 = 0;  // turn on LED2 to indicate an error
9d006ca0:	92026160 	lbu	v0,24928(s0)
9d006ca4:	7c020844 	ins	v0,zero,0x1,0x1
9d006ca8:	a2026160 	sb	v0,24928(s0)
			break;
9d006cac:	1000ff61 	b	9d006a34 <main+0x7c>
9d006cb0:	24140001 	li	s4,1

9d006cb4 <get_encoder_flag>:
char rx_message[MAX_RX_MESSAGE];
volatile int pos = 0;
volatile int newPosFlag = 0;

int get_encoder_flag(){
    return newPosFlag;
9d006cb4:	8f82803c 	lw	v0,-32708(gp)
}
9d006cb8:	03e00008 	jr	ra
9d006cbc:	00000000 	nop

9d006cc0 <set_encoder_flag>:

void set_encoder_flag(int f){
    newPosFlag = f;
9d006cc0:	af84803c 	sw	a0,-32708(gp)
}
9d006cc4:	03e00008 	jr	ra
9d006cc8:	00000000 	nop

9d006ccc <get_encoder_count>:

int get_encoder_count(){
    return pos;
9d006ccc:	8f828040 	lw	v0,-32704(gp)
}
9d006cd0:	03e00008 	jr	ra
9d006cd4:	00000000 	nop

9d006cd8 <U2ISR>:

void __ISR(_UART_2_VECTOR, IPL5SOFT) U2ISR(void) { 
9d006cd8:	415de800 	rdpgpr	sp,sp
9d006cdc:	401a7000 	mfc0	k0,c0_epc
9d006ce0:	401b6000 	mfc0	k1,c0_status
9d006ce4:	27bdff90 	addiu	sp,sp,-112
9d006ce8:	afba006c 	sw	k0,108(sp)
9d006cec:	401a6002 	mfc0	k0,c0_srsctl
9d006cf0:	afbb0068 	sw	k1,104(sp)
9d006cf4:	afba0064 	sw	k0,100(sp)
9d006cf8:	7c1b7844 	ins	k1,zero,0x1,0xf
9d006cfc:	377b1400 	ori	k1,k1,0x1400
9d006d00:	409b6000 	mtc0	k1,c0_status
9d006d04:	afbf0054 	sw	ra,84(sp)
9d006d08:	afb90050 	sw	t9,80(sp)
9d006d0c:	afb8004c 	sw	t8,76(sp)
9d006d10:	afaf0048 	sw	t7,72(sp)
9d006d14:	afae0044 	sw	t6,68(sp)
9d006d18:	afad0040 	sw	t5,64(sp)
9d006d1c:	afac003c 	sw	t4,60(sp)
9d006d20:	afab0038 	sw	t3,56(sp)
9d006d24:	afaa0034 	sw	t2,52(sp)
9d006d28:	afa90030 	sw	t1,48(sp)
9d006d2c:	afa8002c 	sw	t0,44(sp)
9d006d30:	afa70028 	sw	a3,40(sp)
9d006d34:	afa60024 	sw	a2,36(sp)
9d006d38:	afa50020 	sw	a1,32(sp)
9d006d3c:	afa4001c 	sw	a0,28(sp)
9d006d40:	afa30018 	sw	v1,24(sp)
9d006d44:	afa20014 	sw	v0,20(sp)
9d006d48:	afa10010 	sw	at,16(sp)
9d006d4c:	00001012 	mflo	v0
9d006d50:	afa2005c 	sw	v0,92(sp)
9d006d54:	00001810 	mfhi	v1
9d006d58:	afa30058 	sw	v1,88(sp)
  char data = U2RXREG; // read the data
9d006d5c:	3c02bf80 	lui	v0,0xbf80
9d006d60:	8c426830 	lw	v0,26672(v0)
9d006d64:	7c021420 	seb	v0,v0
  if (data == '\n') {
9d006d68:	2403000a 	li	v1,10
9d006d6c:	10430032 	beq	v0,v1,9d006e38 <U2ISR+0x160>
9d006d70:	00000000 	nop
    sscanf(rx_message,"%d",&pos);
    newPosFlag = 1;
    rx_num_bytes = 0;
  } 
  else {
    rx_message[rx_num_bytes] = data;
9d006d74:	8f838044 	lw	v1,-32700(gp)
9d006d78:	3c04a000 	lui	a0,0xa000
9d006d7c:	2484005c 	addiu	a0,a0,92
9d006d80:	00641821 	addu	v1,v1,a0
9d006d84:	a0620000 	sb	v0,0(v1)
    ++rx_num_bytes;
9d006d88:	8f828044 	lw	v0,-32700(gp)
9d006d8c:	24420001 	addiu	v0,v0,1
9d006d90:	af828044 	sw	v0,-32700(gp)
    // roll over if the array is too small
    if (rx_num_bytes >= MAX_RX_MESSAGE) {
9d006d94:	8f828044 	lw	v0,-32700(gp)
9d006d98:	28420064 	slti	v0,v0,100
9d006d9c:	50400001 	beqzl	v0,9d006da4 <U2ISR+0xcc>
9d006da0:	af808044 	sw	zero,-32700(gp)
      rx_num_bytes = 0;
    }
  }
  IFS1bits.U2RXIF = 0;
9d006da4:	3c02bf88 	lui	v0,0xbf88
9d006da8:	8c431040 	lw	v1,4160(v0)
9d006dac:	7c034a44 	ins	v1,zero,0x9,0x1
9d006db0:	ac431040 	sw	v1,4160(v0)
}
9d006db4:	8fa2005c 	lw	v0,92(sp)
9d006db8:	00400013 	mtlo	v0
9d006dbc:	8fa30058 	lw	v1,88(sp)
9d006dc0:	00600011 	mthi	v1
9d006dc4:	8fbf0054 	lw	ra,84(sp)
9d006dc8:	8fb90050 	lw	t9,80(sp)
9d006dcc:	8fb8004c 	lw	t8,76(sp)
9d006dd0:	8faf0048 	lw	t7,72(sp)
9d006dd4:	8fae0044 	lw	t6,68(sp)
9d006dd8:	8fad0040 	lw	t5,64(sp)
9d006ddc:	8fac003c 	lw	t4,60(sp)
9d006de0:	8fab0038 	lw	t3,56(sp)
9d006de4:	8faa0034 	lw	t2,52(sp)
9d006de8:	8fa90030 	lw	t1,48(sp)
9d006dec:	8fa8002c 	lw	t0,44(sp)
9d006df0:	8fa70028 	lw	a3,40(sp)
9d006df4:	8fa60024 	lw	a2,36(sp)
9d006df8:	8fa50020 	lw	a1,32(sp)
9d006dfc:	8fa4001c 	lw	a0,28(sp)
9d006e00:	8fa30018 	lw	v1,24(sp)
9d006e04:	8fa20014 	lw	v0,20(sp)
9d006e08:	8fa10010 	lw	at,16(sp)
9d006e0c:	41606000 	di
9d006e10:	000000c0 	ehb
9d006e14:	8fba006c 	lw	k0,108(sp)
9d006e18:	8fbb0068 	lw	k1,104(sp)
9d006e1c:	409a7000 	mtc0	k0,c0_epc
9d006e20:	8fba0064 	lw	k0,100(sp)
9d006e24:	27bd0070 	addiu	sp,sp,112
9d006e28:	409a6002 	mtc0	k0,c0_srsctl
9d006e2c:	41dde800 	wrpgpr	sp,sp
9d006e30:	409b6000 	mtc0	k1,c0_status
9d006e34:	42000018 	eret
    rx_message[rx_num_bytes] = '\0';
9d006e38:	8f828044 	lw	v0,-32700(gp)
9d006e3c:	3c04a000 	lui	a0,0xa000
9d006e40:	2484005c 	addiu	a0,a0,92
9d006e44:	00441021 	addu	v0,v0,a0
9d006e48:	a0400000 	sb	zero,0(v0)
    sscanf(rx_message,"%d",&pos);
9d006e4c:	27868040 	addiu	a2,gp,-32704
9d006e50:	3c059d00 	lui	a1,0x9d00
9d006e54:	0f4027f0 	jal	9d009fc0 <_sscanf_cdfFnopuxX>
9d006e58:	24a51f48 	addiu	a1,a1,8008
    newPosFlag = 1;
9d006e5c:	24020001 	li	v0,1
9d006e60:	af82803c 	sw	v0,-32708(gp)
    rx_num_bytes = 0;
9d006e64:	af808044 	sw	zero,-32700(gp)
9d006e68:	1000ffcf 	b	9d006da8 <U2ISR+0xd0>
9d006e6c:	3c02bf88 	lui	v0,0xbf88

9d006e70 <WriteUART2>:

// Write a character array using UART2
void WriteUART2(const char * string) {
  while (*string != '\0') {
9d006e70:	80850000 	lb	a1,0(a0)
9d006e74:	10a0000c 	beqz	a1,9d006ea8 <WriteUART2+0x38>
9d006e78:	00000000 	nop
    while (U2STAbits.UTXBF) {
9d006e7c:	3c03bf80 	lui	v1,0xbf80
      ; // wait until tx buffer isn't full
    }
    U2TXREG = *string;
9d006e80:	3c06bf80 	lui	a2,0xbf80
    while (U2STAbits.UTXBF) {
9d006e84:	8c626810 	lw	v0,26640(v1)
9d006e88:	7c420240 	ext	v0,v0,0x9,0x1
9d006e8c:	1440fffd 	bnez	v0,9d006e84 <WriteUART2+0x14>
9d006e90:	00000000 	nop
    U2TXREG = *string;
9d006e94:	acc56820 	sw	a1,26656(a2)
    ++string;
9d006e98:	24840001 	addiu	a0,a0,1
  while (*string != '\0') {
9d006e9c:	80850000 	lb	a1,0(a0)
9d006ea0:	14a0fff8 	bnez	a1,9d006e84 <WriteUART2+0x14>
9d006ea4:	00000000 	nop
  }
}
9d006ea8:	03e00008 	jr	ra
9d006eac:	00000000 	nop

9d006eb0 <UART2_Startup>:

//  Initialize the serial port - UART2 
void UART2_Startup() {
9d006eb0:	27bdfff8 	addiu	sp,sp,-8
9d006eb4:	afbf0004 	sw	ra,4(sp)
  // disable interrupts
  __builtin_disable_interrupts();
9d006eb8:	41626000 	di	v0
9d006ebc:	000000c0 	ehb

  // turn on UART2 with interrupt on RX
  U2MODEbits.BRGH = 0; // set baud to NU32_DESIRED_BAUD
9d006ec0:	3c02bf80 	lui	v0,0xbf80
9d006ec4:	94436800 	lhu	v1,26624(v0)
9d006ec8:	7c0318c4 	ins	v1,zero,0x3,0x1
9d006ecc:	a4436800 	sh	v1,26624(v0)
  U2BRG = ((NU32_SYS_FREQ / UART2_DESIRED_BAUD) / 16) - 1;
9d006ed0:	3c03bf80 	lui	v1,0xbf80
9d006ed4:	24040014 	li	a0,20
9d006ed8:	ac646840 	sw	a0,26688(v1)

  // 8 bit, no parity bit, and 1 stop bit (8N1 setup)
  U2MODEbits.PDSEL = 0;
9d006edc:	94436800 	lhu	v1,26624(v0)
9d006ee0:	7c031044 	ins	v1,zero,0x1,0x2
9d006ee4:	a4436800 	sh	v1,26624(v0)
  U2MODEbits.STSEL = 0;
9d006ee8:	94436800 	lhu	v1,26624(v0)
9d006eec:	7c030004 	ins	v1,zero,0x0,0x1
9d006ef0:	a4436800 	sh	v1,26624(v0)

  // configure TX & RX pins as output & input pins
  U2STAbits.UTXEN = 1;
9d006ef4:	3c03bf80 	lui	v1,0xbf80
9d006ef8:	8c656810 	lw	a1,26640(v1)
9d006efc:	24040001 	li	a0,1
9d006f00:	7c855284 	ins	a1,a0,0xa,0x1
9d006f04:	ac656810 	sw	a1,26640(v1)
  U2STAbits.URXEN = 1;
9d006f08:	8c656810 	lw	a1,26640(v1)
9d006f0c:	7c856304 	ins	a1,a0,0xc,0x1
9d006f10:	ac656810 	sw	a1,26640(v1)

  U2STAbits.URXISEL = 0; // interrupt when a char is rcvd
9d006f14:	8c656810 	lw	a1,26640(v1)
9d006f18:	7c053984 	ins	a1,zero,0x6,0x2
9d006f1c:	ac656810 	sw	a1,26640(v1)
  IPC8bits.U2IP = 5;
9d006f20:	3c03bf88 	lui	v1,0xbf88
9d006f24:	8c651110 	lw	a1,4368(v1)
9d006f28:	24060005 	li	a2,5
9d006f2c:	7cc52084 	ins	a1,a2,0x2,0x3
9d006f30:	ac651110 	sw	a1,4368(v1)
  IPC8bits.U2IS = 0;
9d006f34:	8c651110 	lw	a1,4368(v1)
9d006f38:	7c050804 	ins	a1,zero,0x0,0x2
9d006f3c:	ac651110 	sw	a1,4368(v1)
  IFS1bits.U2RXIF = 0;
9d006f40:	3c03bf88 	lui	v1,0xbf88
9d006f44:	8c651040 	lw	a1,4160(v1)
9d006f48:	7c054a44 	ins	a1,zero,0x9,0x1
9d006f4c:	ac651040 	sw	a1,4160(v1)
  IEC1bits.U2RXIE = 1;
9d006f50:	3c03bf88 	lui	v1,0xbf88
9d006f54:	8c651070 	lw	a1,4208(v1)
9d006f58:	7c854a44 	ins	a1,a0,0x9,0x1
9d006f5c:	ac651070 	sw	a1,4208(v1)

  // enable the uart
  U2MODEbits.ON = 1;
9d006f60:	94436800 	lhu	v1,26624(v0)
9d006f64:	7c837bc4 	ins	v1,a0,0xf,0x1
9d006f68:	a4436800 	sh	v1,26624(v0)

  __builtin_enable_interrupts();
9d006f6c:	41626020 	ei	v0
}
9d006f70:	8fbf0004 	lw	ra,4(sp)
9d006f74:	03e00008 	jr	ra
9d006f78:	27bd0008 	addiu	sp,sp,8

Disassembly of section .text.strtoll:

9d006f7c <strtoll>:
9d006f7c:	27bdffd0 	addiu	sp,sp,-48
9d006f80:	3c039d01 	lui	v1,0x9d01
9d006f84:	afb50024 	sw	s5,36(sp)
9d006f88:	afb40020 	sw	s4,32(sp)
9d006f8c:	afb20018 	sw	s2,24(sp)
9d006f90:	afb00010 	sw	s0,16(sp)
9d006f94:	afbf002c 	sw	ra,44(sp)
9d006f98:	afb60028 	sw	s6,40(sp)
9d006f9c:	afb3001c 	sw	s3,28(sp)
9d006fa0:	afb10014 	sw	s1,20(sp)
9d006fa4:	0080a025 	move	s4,a0
9d006fa8:	00a0a825 	move	s5,a1
9d006fac:	00c09025 	move	s2,a2
9d006fb0:	00808025 	move	s0,a0
9d006fb4:	24638fc9 	addiu	v1,v1,-28727
9d006fb8:	82110000 	lb	s1,0(s0)
9d006fbc:	1220000f 	beqz	s1,9d006ffc <strtoll+0x80>
9d006fc0:	00000000 	nop
9d006fc4:	02231021 	addu	v0,s1,v1
9d006fc8:	80420000 	lb	v0,0(v0)
9d006fcc:	30420088 	andi	v0,v0,0x88
9d006fd0:	5440fff9 	bnezl	v0,9d006fb8 <strtoll+0x3c>
9d006fd4:	26100001 	addiu	s0,s0,1
9d006fd8:	2402002b 	li	v0,43
9d006fdc:	52220005 	beql	s1,v0,9d006ff4 <strtoll+0x78>
9d006fe0:	3a31002d 	xori	s1,s1,0x2d
9d006fe4:	2402002d 	li	v0,45
9d006fe8:	56220004 	bnel	s1,v0,9d006ffc <strtoll+0x80>
9d006fec:	00008825 	move	s1,zero
9d006ff0:	3a31002d 	xori	s1,s1,0x2d
9d006ff4:	2e310001 	sltiu	s1,s1,1
9d006ff8:	26100001 	addiu	s0,s0,1
9d006ffc:	1640003e 	bnez	s2,9d0070f8 <strtoll+0x17c>
9d007000:	82020000 	lb	v0,0(s0)
9d007004:	24030030 	li	v1,48
9d007008:	14430049 	bne	v0,v1,9d007130 <strtoll+0x1b4>
9d00700c:	00009825 	move	s3,zero
9d007010:	82020001 	lb	v0,1(s0)
9d007014:	24030058 	li	v1,88
9d007018:	7c022944 	ins	v0,zero,0x5,0x1
9d00701c:	50430033 	beql	v0,v1,9d0070ec <strtoll+0x170>
9d007020:	26100002 	addiu	s0,s0,2
9d007024:	26100001 	addiu	s0,s0,1
9d007028:	24130001 	li	s3,1
9d00702c:	24120008 	li	s2,8
9d007030:	0012b7c3 	sra	s6,s2,0x1f
9d007034:	3c057fff 	lui	a1,0x7fff
9d007038:	02403025 	move	a2,s2
9d00703c:	02c03825 	move	a3,s6
9d007040:	2404ffff 	li	a0,-1
9d007044:	0f401395 	jal	9d004e54 <__divdi3>
9d007048:	34a5ffff 	ori	a1,a1,0xffff
9d00704c:	3c099d01 	lui	t1,0x9d01
9d007050:	3c0a7fff 	lui	t2,0x7fff
9d007054:	00404025 	move	t0,v0
9d007058:	00603825 	move	a3,v1
9d00705c:	2610ffff 	addiu	s0,s0,-1
9d007060:	00003025 	move	a2,zero
9d007064:	00001025 	move	v0,zero
9d007068:	00001825 	move	v1,zero
9d00706c:	25298fc9 	addiu	t1,t1,-28727
9d007070:	240b0041 	li	t3,65
9d007074:	240c0061 	li	t4,97
9d007078:	354affff 	ori	t2,t2,0xffff
9d00707c:	26100001 	addiu	s0,s0,1
9d007080:	82040000 	lb	a0,0(s0)
9d007084:	5480002c 	bnezl	a0,9d007138 <strtoll+0x1bc>
9d007088:	00892821 	addu	a1,a0,t1
9d00708c:	1220005e 	beqz	s1,9d007208 <strtoll+0x28c>
9d007090:	00000000 	nop
9d007094:	54c0005f 	bnezl	a2,9d007214 <strtoll+0x298>
9d007098:	3c02a000 	lui	v0,0xa000
9d00709c:	00022023 	negu	a0,v0
9d0070a0:	0004282b 	sltu	a1,zero,a0
9d0070a4:	00033023 	negu	a2,v1
9d0070a8:	00801025 	move	v0,a0
9d0070ac:	00c51823 	subu	v1,a2,a1
9d0070b0:	12a00002 	beqz	s5,9d0070bc <strtoll+0x140>
9d0070b4:	0213a00b 	movn	s4,s0,s3
9d0070b8:	aeb40000 	sw	s4,0(s5)
9d0070bc:	8fbf002c 	lw	ra,44(sp)
9d0070c0:	8fb60028 	lw	s6,40(sp)
9d0070c4:	8fb50024 	lw	s5,36(sp)
9d0070c8:	8fb40020 	lw	s4,32(sp)
9d0070cc:	8fb3001c 	lw	s3,28(sp)
9d0070d0:	8fb20018 	lw	s2,24(sp)
9d0070d4:	8fb10014 	lw	s1,20(sp)
9d0070d8:	8fb00010 	lw	s0,16(sp)
9d0070dc:	03e00008 	jr	ra
9d0070e0:	27bd0030 	addiu	sp,sp,48
9d0070e4:	1000ffc5 	b	9d006ffc <strtoll+0x80>
9d0070e8:	00008825 	move	s1,zero
9d0070ec:	24130001 	li	s3,1
9d0070f0:	1000ffcf 	b	9d007030 <strtoll+0xb4>
9d0070f4:	24120010 	li	s2,16
9d0070f8:	24030010 	li	v1,16
9d0070fc:	1643ffcc 	bne	s2,v1,9d007030 <strtoll+0xb4>
9d007100:	00009825 	move	s3,zero
9d007104:	24030030 	li	v1,48
9d007108:	1443ffca 	bne	v0,v1,9d007034 <strtoll+0xb8>
9d00710c:	0012b7c3 	sra	s6,s2,0x1f
9d007110:	82020001 	lb	v0,1(s0)
9d007114:	24030058 	li	v1,88
9d007118:	7c022944 	ins	v0,zero,0x5,0x1
9d00711c:	50430002 	beql	v0,v1,9d007128 <strtoll+0x1ac>
9d007120:	26100002 	addiu	s0,s0,2
9d007124:	26100001 	addiu	s0,s0,1
9d007128:	1000ffc1 	b	9d007030 <strtoll+0xb4>
9d00712c:	24130001 	li	s3,1
9d007130:	1000ffbf 	b	9d007030 <strtoll+0xb4>
9d007134:	2412000a 	li	s2,10
9d007138:	90a50000 	lbu	a1,0(a1)
9d00713c:	30ad0004 	andi	t5,a1,0x4
9d007140:	11a00028 	beqz	t5,9d0071e4 <strtoll+0x268>
9d007144:	30ad0003 	andi	t5,a1,0x3
9d007148:	2484ffd0 	addiu	a0,a0,-48
9d00714c:	0480ffcf 	bltz	a0,9d00708c <strtoll+0x110>
9d007150:	00000000 	nop
9d007154:	0092282a 	slt	a1,a0,s2
9d007158:	10a0ffcc 	beqz	a1,9d00708c <strtoll+0x110>
9d00715c:	00000000 	nop
9d007160:	00e3282a 	slt	a1,a3,v1
9d007164:	54a0001d 	bnezl	a1,9d0071dc <strtoll+0x260>
9d007168:	24060001 	li	a2,1
9d00716c:	14670003 	bne	v1,a3,9d00717c <strtoll+0x200>
9d007170:	0102282b 	sltu	a1,t0,v0
9d007174:	54a00019 	bnezl	a1,9d0071dc <strtoll+0x260>
9d007178:	24060001 	li	a2,1
9d00717c:	54c0ffbf 	bnezl	a2,9d00707c <strtoll+0x100>
9d007180:	24130001 	li	s3,1
9d007184:	02c20018 	mult	s6,v0
9d007188:	72430000 	madd	s2,v1
9d00718c:	00002812 	mflo	a1
9d007190:	00520019 	multu	v0,s2
9d007194:	00001810 	mfhi	v1
9d007198:	00a31821 	addu	v1,a1,v1
9d00719c:	01437023 	subu	t6,t2,v1
9d0071a0:	00042fc3 	sra	a1,a0,0x1f
9d0071a4:	00001012 	mflo	v0
9d0071a8:	01c5782a 	slt	t7,t6,a1
9d0071ac:	15e00014 	bnez	t7,9d007200 <strtoll+0x284>
9d0071b0:	00026827 	nor	t5,zero,v0
9d0071b4:	54ae0005 	bnel	a1,t6,9d0071cc <strtoll+0x250>
9d0071b8:	00822021 	addu	a0,a0,v0
9d0071bc:	01a4682b 	sltu	t5,t5,a0
9d0071c0:	55a00006 	bnezl	t5,9d0071dc <strtoll+0x260>
9d0071c4:	24060001 	li	a2,1
9d0071c8:	00822021 	addu	a0,a0,v0
9d0071cc:	0082682b 	sltu	t5,a0,v0
9d0071d0:	00652821 	addu	a1,v1,a1
9d0071d4:	00801025 	move	v0,a0
9d0071d8:	01a51821 	addu	v1,t5,a1
9d0071dc:	1000ffa7 	b	9d00707c <strtoll+0x100>
9d0071e0:	24130001 	li	s3,1
9d0071e4:	11a0ffa9 	beqz	t5,9d00708c <strtoll+0x110>
9d0071e8:	01806825 	move	t5,t4
9d0071ec:	30a50001 	andi	a1,a1,0x1
9d0071f0:	0165680b 	movn	t5,t3,a1
9d0071f4:	008d2023 	subu	a0,a0,t5
9d0071f8:	1000ffd4 	b	9d00714c <strtoll+0x1d0>
9d0071fc:	2484000a 	addiu	a0,a0,10
9d007200:	1000fff6 	b	9d0071dc <strtoll+0x260>
9d007204:	24060001 	li	a2,1
9d007208:	10c0ffa9 	beqz	a2,9d0070b0 <strtoll+0x134>
9d00720c:	00000000 	nop
9d007210:	3c02a000 	lui	v0,0xa000
9d007214:	24030022 	li	v1,34
9d007218:	ac430038 	sw	v1,56(v0)
9d00721c:	00001025 	move	v0,zero
9d007220:	1620ffa3 	bnez	s1,9d0070b0 <strtoll+0x134>
9d007224:	3c038000 	lui	v1,0x8000
9d007228:	3c037fff 	lui	v1,0x7fff
9d00722c:	2402ffff 	li	v0,-1
9d007230:	1000ff9f 	b	9d0070b0 <strtoll+0x134>
9d007234:	3463ffff 	ori	v1,v1,0xffff

Disassembly of section .text.fpsubadd:

9d007238 <__subsf3>:
9d007238:	3c018000 00a12826                       ...<&(..

9d007240 <__addsf3>:
9d007240:	00044dc2 312900ff 00055dc2 316b00ff     .M....)1.]....k1
9d007250:	3c078000 00044200 01074025 00055200     ...<.B..%@...R..
9d007260:	01475025 252dffff 2da100fe 10200061     %PG...-%...-a. .
9d007270:	00000000                                ....

9d007274 <Blab1>:
9d007274:	256dffff 	addiu	t5,t3,-1
9d007278:	2da100fe 	sltiu	at,t5,254
9d00727c:	10200077 	beqz	at,9d00745c <BspecB>
9d007280:	00000000 	nop

9d007284 <Blab2>:
9d007284:	012b6023 	subu	t4,t1,t3
9d007288:	0580000d 	bltz	t4,9d0072c0 <i1>
9d00728c:	00000000 	nop
9d007290:	29810020 	slti	at,t4,32
9d007294:	14200003 	bnez	at,9d0072a4 <i2>
9d007298:	00000000 	nop
9d00729c:	10000015 	b	9d0072f4 <e1>
9d0072a0:	240a0002 	li	t2,2

9d0072a4 <i2>:
9d0072a4:	000a3025 	or	a2,zero,t2
9d0072a8:	018a5006 	srlv	t2,t2,t4
9d0072ac:	018a6804 	sllv	t5,t2,t4
9d0072b0:	11a60010 	beq	t5,a2,9d0072f4 <e1>
9d0072b4:	00000000 	nop
9d0072b8:	1000000e 	b	9d0072f4 <e1>
9d0072bc:	354a0002 	ori	t2,t2,0x2

9d0072c0 <i1>:
9d0072c0:	000b4825 	or	t1,zero,t3
9d0072c4:	000c6023 	negu	t4,t4
9d0072c8:	29810020 	slti	at,t4,32
9d0072cc:	14200003 	bnez	at,9d0072dc <i4>
9d0072d0:	00000000 	nop
9d0072d4:	10000007 	b	9d0072f4 <e1>
9d0072d8:	24080002 	li	t0,2

9d0072dc <i4>:
9d0072dc:	00083025 	or	a2,zero,t0
9d0072e0:	01884006 	srlv	t0,t0,t4
9d0072e4:	01886804 	sllv	t5,t0,t4
9d0072e8:	11a60002 	beq	t5,a2,9d0072f4 <e1>
9d0072ec:	00000000 	nop
9d0072f0:	35080002 	ori	t0,t0,0x2

9d0072f4 <e1>:
9d0072f4:	00876024 	and	t4,a0,a3
9d0072f8:	01856826 	xor	t5,t4,a1
9d0072fc:	05a00010 	bltz	t5,9d007340 <Bsub1>
9d007300:	00000000 	nop
9d007304:	010a4021 	addu	t0,t0,t2
9d007308:	010a682b 	sltu	t5,t0,t2
9d00730c:	11a00017 	beqz	t5,9d00736c <Bres>
9d007310:	00000000 	nop
9d007314:	310d0001 	andi	t5,t0,0x1
9d007318:	11a00002 	beqz	t5,9d007324 <i7>
9d00731c:	00000000 	nop
9d007320:	35080002 	ori	t0,t0,0x2

9d007324 <i7>:
9d007324:	00084042 	srl	t0,t0,0x1
9d007328:	25290001 	addiu	t1,t1,1
9d00732c:	240100ff 	li	at,255
9d007330:	1521000e 	bne	t1,at,9d00736c <Bres>
9d007334:	00000000 	nop
9d007338:	1000000c 	b	9d00736c <Bres>
9d00733c:	24080000 	li	t0,0

9d007340 <Bsub1>:
9d007340:	010a682b 	sltu	t5,t0,t2
9d007344:	11a00004 	beqz	t5,9d007358 <i9>
9d007348:	010a4023 	subu	t0,t0,t2
9d00734c:	00084023 	negu	t0,t0
9d007350:	10000003 	b	9d007360 <e9>
9d007354:	01876026 	xor	t4,t4,a3

9d007358 <i9>:
9d007358:	11000050 	beqz	t0,9d00749c <Bzer>
9d00735c:	00000000 	nop

9d007360 <e9>:
9d007360:	71063020 	clz	a2,t0
9d007364:	01264823 	subu	t1,t1,a2
9d007368:	00c84004 	sllv	t0,t0,a2

9d00736c <Bres>:
9d00736c:	1920000e 	blez	t1,9d0073a8 <Bund>
9d007370:	00000000 	nop

9d007374 <Blab12>:
9d007374:	25080080 	addiu	t0,t0,128
9d007378:	2d0d0080 	sltiu	t5,t0,128
9d00737c:	012d4821 	addu	t1,t1,t5
9d007380:	00086a02 	srl	t5,t0,0x8
9d007384:	31ad0001 	andi	t5,t5,0x1
9d007388:	010d4023 	subu	t0,t0,t5
9d00738c:	00084040 	sll	t0,t0,0x1
9d007390:	00084242 	srl	t0,t0,0x9
9d007394:	00096dc0 	sll	t5,t1,0x17
9d007398:	010d4025 	or	t0,t0,t5
9d00739c:	010c1025 	or	v0,t0,t4

9d0073a0 <B999>:
9d0073a0:	03e00008 	jr	ra
9d0073a4:	00000000 	nop

9d0073a8 <Bund>:
9d0073a8:	24060001 	li	a2,1
9d0073ac:	00c93023 	subu	a2,a2,t1
9d0073b0:	2cc10020 	sltiu	at,a2,32
9d0073b4:	10200039 	beqz	at,9d00749c <Bzer>
9d0073b8:	00000000 	nop
9d0073bc:	3c018000 	lui	at,0x8000
9d0073c0:	01014025 	or	t0,t0,at
9d0073c4:	240d0020 	li	t5,32
9d0073c8:	01a66823 	subu	t5,t5,a2
9d0073cc:	01a84804 	sllv	t1,t0,t5
9d0073d0:	11200002 	beqz	t1,9d0073dc <i10>
9d0073d4:	00c84006 	srlv	t0,t0,a2
9d0073d8:	35080001 	ori	t0,t0,0x1

9d0073dc <i10>:
9d0073dc:	24090000 	li	t1,0
9d0073e0:	250d0080 	addiu	t5,t0,128
9d0073e4:	05a1ffe3 	bgez	t5,9d007374 <Blab12>
9d0073e8:	00000000 	nop
9d0073ec:	1000ffe1 	b	9d007374 <Blab12>
9d0073f0:	24090001 	li	t1,1

9d0073f4 <BspecA>:
9d0073f4:	1520000e 	bnez	t1,9d007430 <i12>
9d0073f8:	00000000 	nop
9d0073fc:	01084021 	addu	t0,t0,t0
9d007400:	11000005 	beqz	t0,9d007418 <i13>
9d007404:	00000000 	nop
9d007408:	710c6020 	clz	t4,t0
9d00740c:	012c4823 	subu	t1,t1,t4
9d007410:	1000ff98 	b	9d007274 <Blab1>
9d007414:	01884004 	sllv	t0,t0,t4

9d007418 <i13>:
9d007418:	240100ff 	li	at,255
9d00741c:	1161000f 	beq	t3,at,9d00745c <BspecB>
9d007420:	00000000 	nop
9d007424:	3c018000 	lui	at,0x8000
9d007428:	14a10018 	bne	a1,at,9d00748c <BretB>
9d00742c:	00000000 	nop

9d007430 <i12>:
9d007430:	01086821 	addu	t5,t0,t0
9d007434:	15a0001b 	bnez	t5,9d0074a4 <Bnan>
9d007438:	00000000 	nop
9d00743c:	240100ff 	li	at,255
9d007440:	15610014 	bne	t3,at,9d007494 <BretA>
9d007444:	00000000 	nop
9d007448:	00856826 	xor	t5,a0,a1
9d00744c:	05a00015 	bltz	t5,9d0074a4 <Bnan>
9d007450:	00000000 	nop
9d007454:	1000000d 	b	9d00748c <BretB>
9d007458:	00000000 	nop

9d00745c <BspecB>:
9d00745c:	15600008 	bnez	t3,9d007480 <i15>
9d007460:	00000000 	nop
9d007464:	014a5021 	addu	t2,t2,t2
9d007468:	1140000a 	beqz	t2,9d007494 <BretA>
9d00746c:	00000000 	nop
9d007470:	714c6020 	clz	t4,t2
9d007474:	016c5823 	subu	t3,t3,t4
9d007478:	1000ff82 	b	9d007284 <Blab2>
9d00747c:	018a5004 	sllv	t2,t2,t4

9d007480 <i15>:
9d007480:	014a6821 	addu	t5,t2,t2
9d007484:	15a00007 	bnez	t5,9d0074a4 <Bnan>
9d007488:	00000000 	nop

9d00748c <BretB>:
9d00748c:	1000ffc4 	b	9d0073a0 <B999>
9d007490:	00051025 	or	v0,zero,a1

9d007494 <BretA>:
9d007494:	1000ffc2 	b	9d0073a0 <B999>
9d007498:	00041025 	or	v0,zero,a0

9d00749c <Bzer>:
9d00749c:	1000ffc0 	b	9d0073a0 <B999>
9d0074a0:	24020000 	li	v0,0

9d0074a4 <Bnan>:
9d0074a4:	1000ffbe 	b	9d0073a0 <B999>
9d0074a8:	3c02ffc0 	lui	v0,0xffc0
9d0074ac:	00000000 	nop

Disassembly of section .text.free:

9d0074b0 <free>:
9d0074b0:	10800097 	beqz	a0,9d007710 <free+0x260>
9d0074b4:	00000000 	nop
9d0074b8:	8c88fffc 	lw	t0,-4(a0)
9d0074bc:	2485fff8 	addiu	a1,a0,-8
9d0074c0:	01001025 	move	v0,t0
9d0074c4:	7c020004 	ins	v0,zero,0x0,0x1
9d0074c8:	00a23821 	addu	a3,a1,v0
9d0074cc:	8ce30004 	lw	v1,4(a3)
9d0074d0:	30660001 	andi	a2,v1,0x1
9d0074d4:	10c0008e 	beqz	a2,9d007710 <free+0x260>
9d0074d8:	3c06a000 	lui	a2,0xa000
9d0074dc:	24c600c8 	addiu	a2,a2,200
9d0074e0:	8cc90008 	lw	t1,8(a2)
9d0074e4:	7c030804 	ins	v1,zero,0x0,0x2
9d0074e8:	14e9001a 	bne	a3,t1,9d007554 <free+0xa4>
9d0074ec:	31080001 	andi	t0,t0,0x1
9d0074f0:	15000008 	bnez	t0,9d007514 <free+0x64>
9d0074f4:	00431021 	addu	v0,v0,v1
9d0074f8:	8c83fff8 	lw	v1,-8(a0)
9d0074fc:	00a32823 	subu	a1,a1,v1
9d007500:	8ca40008 	lw	a0,8(a1)
9d007504:	00431021 	addu	v0,v0,v1
9d007508:	8ca3000c 	lw	v1,12(a1)
9d00750c:	ac83000c 	sw	v1,12(a0)
9d007510:	ac640008 	sw	a0,8(v1)
9d007514:	34430001 	ori	v1,v0,0x1
9d007518:	aca30004 	sw	v1,4(a1)
9d00751c:	3c03a000 	lui	v1,0xa000
9d007520:	8c6300c4 	lw	v1,196(v1)
9d007524:	0043102b 	sltu	v0,v0,v1
9d007528:	14400079 	bnez	v0,9d007710 <free+0x260>
9d00752c:	acc50008 	sw	a1,8(a2)
9d007530:	3c02a000 	lui	v0,0xa000
9d007534:	8c44065c 	lw	a0,1628(v0)
9d007538:	27bdffe8 	addiu	sp,sp,-24
9d00753c:	afbf0014 	sw	ra,20(sp)
9d007540:	0f402433 	jal	9d0090cc <malloc_trim>
9d007544:	00000000 	nop
9d007548:	8fbf0014 	lw	ra,20(sp)
9d00754c:	03e00008 	jr	ra
9d007550:	27bd0018 	addiu	sp,sp,24
9d007554:	ace30004 	sw	v1,4(a3)
9d007558:	1500000c 	bnez	t0,9d00758c <free+0xdc>
9d00755c:	00004825 	move	t1,zero
9d007560:	8c84fff8 	lw	a0,-8(a0)
9d007564:	3c08a000 	lui	t0,0xa000
9d007568:	250800d0 	addiu	t0,t0,208
9d00756c:	00a42823 	subu	a1,a1,a0
9d007570:	00441021 	addu	v0,v0,a0
9d007574:	8ca40008 	lw	a0,8(a1)
9d007578:	50880004 	beql	a0,t0,9d00758c <free+0xdc>
9d00757c:	24090001 	li	t1,1
9d007580:	8ca8000c 	lw	t0,12(a1)
9d007584:	ac88000c 	sw	t0,12(a0)
9d007588:	ad040008 	sw	a0,8(t0)
9d00758c:	00e32021 	addu	a0,a3,v1
9d007590:	8c840004 	lw	a0,4(a0)
9d007594:	30840001 	andi	a0,a0,0x1
9d007598:	5480000e 	bnezl	a0,9d0075d4 <free+0x124>
9d00759c:	34430001 	ori	v1,v0,0x1
9d0075a0:	00431021 	addu	v0,v0,v1
9d0075a4:	15200023 	bnez	t1,9d007634 <free+0x184>
9d0075a8:	8ce30008 	lw	v1,8(a3)
9d0075ac:	3c04a000 	lui	a0,0xa000
9d0075b0:	248400d0 	addiu	a0,a0,208
9d0075b4:	54640020 	bnel	v1,a0,9d007638 <free+0x188>
9d0075b8:	8ce4000c 	lw	a0,12(a3)
9d0075bc:	acc50014 	sw	a1,20(a2)
9d0075c0:	acc50010 	sw	a1,16(a2)
9d0075c4:	24090001 	li	t1,1
9d0075c8:	aca3000c 	sw	v1,12(a1)
9d0075cc:	aca30008 	sw	v1,8(a1)
9d0075d0:	34430001 	ori	v1,v0,0x1
9d0075d4:	aca30004 	sw	v1,4(a1)
9d0075d8:	00a21821 	addu	v1,a1,v0
9d0075dc:	1520004c 	bnez	t1,9d007710 <free+0x260>
9d0075e0:	ac620000 	sw	v0,0(v1)
9d0075e4:	2c430200 	sltiu	v1,v0,512
9d0075e8:	50600016 	beqzl	v1,9d007644 <free+0x194>
9d0075ec:	00021a42 	srl	v1,v0,0x9
9d0075f0:	000210c2 	srl	v0,v0,0x3
9d0075f4:	00022083 	sra	a0,v0,0x2
9d0075f8:	24030001 	li	v1,1
9d0075fc:	00831804 	sllv	v1,v1,a0
9d007600:	8cc40004 	lw	a0,4(a2)
9d007604:	24420001 	addiu	v0,v0,1
9d007608:	000210c0 	sll	v0,v0,0x3
9d00760c:	00641825 	or	v1,v1,a0
9d007610:	00c21021 	addu	v0,a2,v0
9d007614:	acc30004 	sw	v1,4(a2)
9d007618:	8c430000 	lw	v1,0(v0)
9d00761c:	2444fff8 	addiu	a0,v0,-8
9d007620:	aca4000c 	sw	a0,12(a1)
9d007624:	aca30008 	sw	v1,8(a1)
9d007628:	ac450000 	sw	a1,0(v0)
9d00762c:	03e00008 	jr	ra
9d007630:	ac65000c 	sw	a1,12(v1)
9d007634:	8ce4000c 	lw	a0,12(a3)
9d007638:	ac64000c 	sw	a0,12(v1)
9d00763c:	1000ffe4 	b	9d0075d0 <free+0x120>
9d007640:	ac830008 	sw	v1,8(a0)
9d007644:	2c640005 	sltiu	a0,v1,5
9d007648:	10800015 	beqz	a0,9d0076a0 <free+0x1f0>
9d00764c:	2c640015 	sltiu	a0,v1,21
9d007650:	00021982 	srl	v1,v0,0x6
9d007654:	24630038 	addiu	v1,v1,56
9d007658:	24640001 	addiu	a0,v1,1
9d00765c:	000420c0 	sll	a0,a0,0x3
9d007660:	00c42021 	addu	a0,a2,a0
9d007664:	2487fff8 	addiu	a3,a0,-8
9d007668:	8c840000 	lw	a0,0(a0)
9d00766c:	14e40021 	bne	a3,a0,9d0076f4 <free+0x244>
9d007670:	2408fffc 	li	t0,-4
9d007674:	24020001 	li	v0,1
9d007678:	00031883 	sra	v1,v1,0x2
9d00767c:	00621804 	sllv	v1,v0,v1
9d007680:	8cc20004 	lw	v0,4(a2)
9d007684:	00621825 	or	v1,v1,v0
9d007688:	acc30004 	sw	v1,4(a2)
9d00768c:	aca7000c 	sw	a3,12(a1)
9d007690:	aca40008 	sw	a0,8(a1)
9d007694:	ace50008 	sw	a1,8(a3)
9d007698:	03e00008 	jr	ra
9d00769c:	ac85000c 	sw	a1,12(a0)
9d0076a0:	10800003 	beqz	a0,9d0076b0 <free+0x200>
9d0076a4:	2c640055 	sltiu	a0,v1,85
9d0076a8:	1000ffeb 	b	9d007658 <free+0x1a8>
9d0076ac:	2463005b 	addiu	v1,v1,91
9d0076b0:	10800004 	beqz	a0,9d0076c4 <free+0x214>
9d0076b4:	2c640155 	sltiu	a0,v1,341
9d0076b8:	00021b02 	srl	v1,v0,0xc
9d0076bc:	1000ffe6 	b	9d007658 <free+0x1a8>
9d0076c0:	2463006e 	addiu	v1,v1,110
9d0076c4:	10800004 	beqz	a0,9d0076d8 <free+0x228>
9d0076c8:	2c640555 	sltiu	a0,v1,1365
9d0076cc:	00021bc2 	srl	v1,v0,0xf
9d0076d0:	1000ffe1 	b	9d007658 <free+0x1a8>
9d0076d4:	24630077 	addiu	v1,v1,119
9d0076d8:	1080ffdf 	beqz	a0,9d007658 <free+0x1a8>
9d0076dc:	2403007e 	li	v1,126
9d0076e0:	00021c82 	srl	v1,v0,0x12
9d0076e4:	1000ffdc 	b	9d007658 <free+0x1a8>
9d0076e8:	2463007c 	addiu	v1,v1,124
9d0076ec:	50e4ffe7 	beql	a3,a0,9d00768c <free+0x1dc>
9d0076f0:	8c87000c 	lw	a3,12(a0)
9d0076f4:	8c830004 	lw	v1,4(a0)
9d0076f8:	01031824 	and	v1,t0,v1
9d0076fc:	0043182b 	sltu	v1,v0,v1
9d007700:	5460fffa 	bnezl	v1,9d0076ec <free+0x23c>
9d007704:	8c840008 	lw	a0,8(a0)
9d007708:	1000ffe0 	b	9d00768c <free+0x1dc>
9d00770c:	8c87000c 	lw	a3,12(a0)
9d007710:	03e00008 	jr	ra
9d007714:	00000000 	nop

Disassembly of section .text.strtoull:

9d007718 <strtoull>:
9d007718:	27bdfff8 	addiu	sp,sp,-8
9d00771c:	3c039d01 	lui	v1,0x9d01
9d007720:	afb00004 	sw	s0,4(sp)
9d007724:	24638fc9 	addiu	v1,v1,-28727
9d007728:	80880000 	lb	t0,0(a0)
9d00772c:	1100000f 	beqz	t0,9d00776c <strtoull+0x54>
9d007730:	00000000 	nop
9d007734:	01031021 	addu	v0,t0,v1
9d007738:	80420000 	lb	v0,0(v0)
9d00773c:	30420088 	andi	v0,v0,0x88
9d007740:	5440fff9 	bnezl	v0,9d007728 <strtoull+0x10>
9d007744:	24840001 	addiu	a0,a0,1
9d007748:	2402002b 	li	v0,43
9d00774c:	51020005 	beql	t0,v0,9d007764 <strtoull+0x4c>
9d007750:	3908002d 	xori	t0,t0,0x2d
9d007754:	2402002d 	li	v0,45
9d007758:	55020004 	bnel	t0,v0,9d00776c <strtoull+0x54>
9d00775c:	00004025 	move	t0,zero
9d007760:	3908002d 	xori	t0,t0,0x2d
9d007764:	2d080001 	sltiu	t0,t0,1
9d007768:	24840001 	addiu	a0,a0,1
9d00776c:	14c0002a 	bnez	a2,9d007818 <strtoull+0x100>
9d007770:	80820000 	lb	v0,0(a0)
9d007774:	24030030 	li	v1,48
9d007778:	14430008 	bne	v0,v1,9d00779c <strtoull+0x84>
9d00777c:	2406000a 	li	a2,10
9d007780:	80820001 	lb	v0,1(a0)
9d007784:	24030058 	li	v1,88
9d007788:	7c022944 	ins	v0,zero,0x5,0x1
9d00778c:	50430020 	beql	v0,v1,9d007810 <strtoull+0xf8>
9d007790:	24840002 	addiu	a0,a0,2
9d007794:	24840001 	addiu	a0,a0,1
9d007798:	24060008 	li	a2,8
9d00779c:	3c0e9d01 	lui	t6,0x9d01
9d0077a0:	00066fc3 	sra	t5,a2,0x1f
9d0077a4:	2484ffff 	addiu	a0,a0,-1
9d0077a8:	00006025 	move	t4,zero
9d0077ac:	00001025 	move	v0,zero
9d0077b0:	00001825 	move	v1,zero
9d0077b4:	25ce8fc9 	addiu	t6,t6,-28727
9d0077b8:	240f0041 	li	t7,65
9d0077bc:	24100061 	li	s0,97
9d0077c0:	24840001 	addiu	a0,a0,1
9d0077c4:	80870000 	lb	a3,0(a0)
9d0077c8:	14e0001f 	bnez	a3,9d007848 <strtoull+0x130>
9d0077cc:	00ee4821 	addu	t1,a3,t6
9d0077d0:	1100005c 	beqz	t0,9d007944 <strtoull+0x22c>
9d0077d4:	00000000 	nop
9d0077d8:	5580005d 	bnezl	t4,9d007950 <strtoull+0x238>
9d0077dc:	3c02a000 	lui	v0,0xa000
9d0077e0:	00023023 	negu	a2,v0
9d0077e4:	0006382b 	sltu	a3,zero,a2
9d0077e8:	00034023 	negu	t0,v1
9d0077ec:	00c01025 	move	v0,a2
9d0077f0:	01071823 	subu	v1,t0,a3
9d0077f4:	54a00001 	bnezl	a1,9d0077fc <strtoull+0xe4>
9d0077f8:	aca40000 	sw	a0,0(a1)
9d0077fc:	8fb00004 	lw	s0,4(sp)
9d007800:	03e00008 	jr	ra
9d007804:	27bd0008 	addiu	sp,sp,8
9d007808:	1000ffd8 	b	9d00776c <strtoull+0x54>
9d00780c:	00004025 	move	t0,zero
9d007810:	1000ffe2 	b	9d00779c <strtoull+0x84>
9d007814:	24060010 	li	a2,16
9d007818:	24030010 	li	v1,16
9d00781c:	14c3ffe0 	bne	a2,v1,9d0077a0 <strtoull+0x88>
9d007820:	3c0e9d01 	lui	t6,0x9d01
9d007824:	24030030 	li	v1,48
9d007828:	1443ffde 	bne	v0,v1,9d0077a4 <strtoull+0x8c>
9d00782c:	00066fc3 	sra	t5,a2,0x1f
9d007830:	80830001 	lb	v1,1(a0)
9d007834:	24020078 	li	v0,120
9d007838:	5062ffd9 	beql	v1,v0,9d0077a0 <strtoull+0x88>
9d00783c:	24840002 	addiu	a0,a0,2
9d007840:	1000ffd7 	b	9d0077a0 <strtoull+0x88>
9d007844:	24840001 	addiu	a0,a0,1
9d007848:	91290000 	lbu	t1,0(t1)
9d00784c:	312a0004 	andi	t2,t1,0x4
9d007850:	51400017 	beqzl	t2,9d0078b0 <strtoull+0x198>
9d007854:	312a0003 	andi	t2,t1,0x3
9d007858:	24e7ffd0 	addiu	a3,a3,-48
9d00785c:	04e0ffdc 	bltz	a3,9d0077d0 <strtoull+0xb8>
9d007860:	00e6482a 	slt	t1,a3,a2
9d007864:	1120ffda 	beqz	t1,9d0077d0 <strtoull+0xb8>
9d007868:	00000000 	nop
9d00786c:	14600017 	bnez	v1,9d0078cc <strtoull+0x1b4>
9d007870:	00000000 	nop
9d007874:	11a0001a 	beqz	t5,9d0078e0 <strtoull+0x1c8>
9d007878:	01a04825 	move	t1,t5
9d00787c:	00405025 	move	t2,v0
9d007880:	01490019 	multu	t2,t1
9d007884:	00005012 	mflo	t2
9d007888:	00005810 	mfhi	t3
9d00788c:	00460019 	multu	v0,a2
9d007890:	0000c810 	mfhi	t9
9d007894:	032a4821 	addu	t1,t9,t2
9d007898:	012a482b 	sltu	t1,t1,t2
9d00789c:	012b4821 	addu	t1,t1,t3
9d0078a0:	1120000f 	beqz	t1,9d0078e0 <strtoull+0x1c8>
9d0078a4:	00000000 	nop
9d0078a8:	1000ffc5 	b	9d0077c0 <strtoull+0xa8>
9d0078ac:	240c0001 	li	t4,1
9d0078b0:	1140ffc7 	beqz	t2,9d0077d0 <strtoull+0xb8>
9d0078b4:	31290001 	andi	t1,t1,0x1
9d0078b8:	02005025 	move	t2,s0
9d0078bc:	01e9500b 	movn	t2,t7,t1
9d0078c0:	00ea3823 	subu	a3,a3,t2
9d0078c4:	1000ffe5 	b	9d00785c <strtoull+0x144>
9d0078c8:	24e7000a 	addiu	a3,a3,10
9d0078cc:	55a0ffbc 	bnezl	t5,9d0077c0 <strtoull+0xa8>
9d0078d0:	240c0001 	li	t4,1
9d0078d4:	00604825 	move	t1,v1
9d0078d8:	1000ffe9 	b	9d007880 <strtoull+0x168>
9d0078dc:	00c05025 	move	t2,a2
9d0078e0:	5580ffb8 	bnezl	t4,9d0077c4 <strtoull+0xac>
9d0078e4:	24840001 	addiu	a0,a0,1
9d0078e8:	01a20018 	mult	t5,v0
9d0078ec:	70c30000 	madd	a2,v1
9d0078f0:	00004812 	mflo	t1
9d0078f4:	00460019 	multu	v0,a2
9d0078f8:	00001810 	mfhi	v1
9d0078fc:	01231821 	addu	v1,t1,v1
9d007900:	00035827 	nor	t3,zero,v1
9d007904:	00074fc3 	sra	t1,a3,0x1f
9d007908:	00001012 	mflo	v0
9d00790c:	0169c02b 	sltu	t8,t3,t1
9d007910:	1700ffe5 	bnez	t8,9d0078a8 <strtoull+0x190>
9d007914:	00025027 	nor	t2,zero,v0
9d007918:	552b0005 	bnel	t1,t3,9d007930 <strtoull+0x218>
9d00791c:	00e23821 	addu	a3,a3,v0
9d007920:	0147502b 	sltu	t2,t2,a3
9d007924:	5540ffa6 	bnezl	t2,9d0077c0 <strtoull+0xa8>
9d007928:	240c0001 	li	t4,1
9d00792c:	00e23821 	addu	a3,a3,v0
9d007930:	00e2502b 	sltu	t2,a3,v0
9d007934:	00694821 	addu	t1,v1,t1
9d007938:	00e01025 	move	v0,a3
9d00793c:	1000ffa0 	b	9d0077c0 <strtoull+0xa8>
9d007940:	01491821 	addu	v1,t2,t1
9d007944:	1180ffab 	beqz	t4,9d0077f4 <strtoull+0xdc>
9d007948:	00000000 	nop
9d00794c:	3c02a000 	lui	v0,0xa000
9d007950:	24030022 	li	v1,34
9d007954:	ac430038 	sw	v1,56(v0)
9d007958:	2402ffff 	li	v0,-1
9d00795c:	1000ffa5 	b	9d0077f4 <strtoull+0xdc>
9d007960:	2403ffff 	li	v1,-1

Disassembly of section .text.fp32div:

9d007964 <__divsf3>:
9d007964:	3c0b8000 000445c2 310800ff 000555c2     ...<.E.....1.U..
9d007974:	314a00ff 00043a00 00eb3825 00054a00     ..J1.:..%8...J..
9d007984:	012b4825 00857026 016e5824 250effff     %H+.&p..$Xn....%
9d007994:	2dc100fe 1020003f 00000000              ...-?. .....

9d0079a0 <Dlab1>:
9d0079a0:	254effff 	addiu	t6,t2,-1
9d0079a4:	2dc100fe 	sltiu	at,t6,254
9d0079a8:	10200053 	beqz	at,9d007af8 <DspecB>
9d0079ac:	00000000 	nop

9d0079b0 <Dlab2>:
9d0079b0:	00e9082b 	sltu	at,a3,t1
9d0079b4:	14200003 	bnez	at,9d0079c4 <i27>
9d0079b8:	00000000 	nop
9d0079bc:	00073842 	srl	a3,a3,0x1
9d0079c0:	25080001 	addiu	t0,t0,1

9d0079c4 <i27>:
9d0079c4:	00096382 	srl	t4,t1,0xe
9d0079c8:	018001f4 	teq	t4,zero,0x7
9d0079cc:	00ec001b 	divu	zero,a3,t4
9d0079d0:	00002012 	mflo	a0
9d0079d4:	00003010 	mfhi	a2
9d0079d8:	312d3fff 	andi	t5,t1,0x3fff
9d0079dc:	01a40019 	multu	t5,a0
9d0079e0:	00002812 	mflo	a1
9d0079e4:	00063380 	sll	a2,a2,0xe
9d0079e8:	00c5702b 	sltu	t6,a2,a1
9d0079ec:	11c00004 	beqz	t6,9d007a00 <i28>
9d0079f0:	00c53023 	subu	a2,a2,a1
9d0079f4:	2484ffff 	addiu	a0,a0,-1
9d0079f8:	00c93021 	addu	a2,a2,t1
9d0079fc:	00c9702b 	sltu	t6,a2,t1

9d007a00 <i28>:
9d007a00:	018001f4 	teq	t4,zero,0x7
9d007a04:	00cc001b 	divu	zero,a2,t4
9d007a08:	00003812 	mflo	a3
9d007a0c:	00003010 	mfhi	a2
9d007a10:	01a70019 	multu	t5,a3
9d007a14:	00002812 	mflo	a1
9d007a18:	00063380 	sll	a2,a2,0xe
9d007a1c:	00c5702b 	sltu	t6,a2,a1
9d007a20:	11c00004 	beqz	t6,9d007a34 <i29>
9d007a24:	00c53023 	subu	a2,a2,a1
9d007a28:	24e7ffff 	addiu	a3,a3,-1
9d007a2c:	00c93021 	addu	a2,a2,t1
9d007a30:	00c9702b 	sltu	t6,a2,t1

9d007a34 <i29>:
9d007a34:	00047380 	sll	t6,a0,0xe
9d007a38:	00ee3821 	addu	a3,a3,t6
9d007a3c:	10c00002 	beqz	a2,9d007a48 <i30>
9d007a40:	00073900 	sll	a3,a3,0x4
9d007a44:	34e70001 	ori	a3,a3,0x1

9d007a48 <i30>:
9d007a48:	240e007e 	li	t6,126
9d007a4c:	01ca7023 	subu	t6,t6,t2
9d007a50:	010e4021 	addu	t0,t0,t6
9d007a54:	250effff 	addiu	t6,t0,-1
9d007a58:	2dc100fe 	sltiu	at,t6,254
9d007a5c:	10200034 	beqz	at,9d007b30 <Doveund>
9d007a60:	00000000 	nop

9d007a64 <Dlab8>:
9d007a64:	24e70080 	addiu	a3,a3,128
9d007a68:	2cee0080 	sltiu	t6,a3,128
9d007a6c:	010e4021 	addu	t0,t0,t6
9d007a70:	00077202 	srl	t6,a3,0x8
9d007a74:	31ce0001 	andi	t6,t6,0x1
9d007a78:	00ee3823 	subu	a3,a3,t6
9d007a7c:	00073840 	sll	a3,a3,0x1
9d007a80:	00073a42 	srl	a3,a3,0x9
9d007a84:	000875c0 	sll	t6,t0,0x17
9d007a88:	00ee3825 	or	a3,a3,t6
9d007a8c:	00eb1025 	or	v0,a3,t3

9d007a90 <D999>:
9d007a90:	03e00008 	jr	ra
9d007a94:	00000000 	nop

9d007a98 <DspecA>:
9d007a98:	15000008 	bnez	t0,9d007abc <i31>
9d007a9c:	00000000 	nop
9d007aa0:	00e73821 	addu	a3,a3,a3
9d007aa4:	10e00005 	beqz	a3,9d007abc <i31>
9d007aa8:	00000000 	nop
9d007aac:	70ec6020 	clz	t4,a3
9d007ab0:	010c4023 	subu	t0,t0,t4
9d007ab4:	1000ffba 	b	9d0079a0 <Dlab1>
9d007ab8:	01873804 	sllv	a3,a3,t4

9d007abc <i31>:
9d007abc:	15480004 	bne	t2,t0,9d007ad0 <i33>
9d007ac0:	00000000 	nop
9d007ac4:	01297021 	addu	t6,t1,t1
9d007ac8:	11c0002f 	beqz	t6,9d007b88 <Dnan>
9d007acc:	00000000 	nop

9d007ad0 <i33>:
9d007ad0:	240100ff 	li	at,255
9d007ad4:	11410008 	beq	t2,at,9d007af8 <DspecB>
9d007ad8:	00000000 	nop
9d007adc:	11000012 	beqz	t0,9d007b28 <Dzer>
9d007ae0:	00000000 	nop
9d007ae4:	00e77021 	addu	t6,a3,a3
9d007ae8:	15c00027 	bnez	t6,9d007b88 <Dnan>
9d007aec:	00000000 	nop
9d007af0:	10000022 	b	9d007b7c <Dinf>
9d007af4:	00000000 	nop

9d007af8 <DspecB>:
9d007af8:	15400008 	bnez	t2,9d007b1c <i34>
9d007afc:	00000000 	nop
9d007b00:	01294821 	addu	t1,t1,t1
9d007b04:	1120001d 	beqz	t1,9d007b7c <Dinf>
9d007b08:	00000000 	nop
9d007b0c:	712c6020 	clz	t4,t1
9d007b10:	014c5023 	subu	t2,t2,t4
9d007b14:	1000ffa6 	b	9d0079b0 <Dlab2>
9d007b18:	01894804 	sllv	t1,t1,t4

9d007b1c <i34>:
9d007b1c:	01297021 	addu	t6,t1,t1
9d007b20:	15c00019 	bnez	t6,9d007b88 <Dnan>
9d007b24:	00000000 	nop

9d007b28 <Dzer>:
9d007b28:	1000ffd9 	b	9d007a90 <D999>
9d007b2c:	000b1025 	or	v0,zero,t3

9d007b30 <Doveund>:
9d007b30:	1d000012 	bgtz	t0,9d007b7c <Dinf>
9d007b34:	00000000 	nop
9d007b38:	240c0001 	li	t4,1
9d007b3c:	01886023 	subu	t4,t4,t0
9d007b40:	2d810020 	sltiu	at,t4,32
9d007b44:	1020fff8 	beqz	at,9d007b28 <Dzer>
9d007b48:	00000000 	nop
9d007b4c:	240e0020 	li	t6,32
9d007b50:	01cc7023 	subu	t6,t6,t4
9d007b54:	01c74004 	sllv	t0,a3,t6
9d007b58:	11000002 	beqz	t0,9d007b64 <i37>
9d007b5c:	01873806 	srlv	a3,a3,t4
9d007b60:	34e70002 	ori	a3,a3,0x2

9d007b64 <i37>:
9d007b64:	24080000 	li	t0,0
9d007b68:	24ee0080 	addiu	t6,a3,128
9d007b6c:	05c1ffbd 	bgez	t6,9d007a64 <Dlab8>
9d007b70:	00000000 	nop
9d007b74:	1000ffbb 	b	9d007a64 <Dlab8>
9d007b78:	24080001 	li	t0,1

9d007b7c <Dinf>:
9d007b7c:	3c017f80 	lui	at,0x7f80
9d007b80:	1000ffc3 	b	9d007a90 <D999>
9d007b84:	01611025 	or	v0,t3,at

9d007b88 <Dnan>:
9d007b88:	1000ffc1 	b	9d007a90 <D999>
9d007b8c:	3c02ffc0 	lui	v0,0xffc0
9d007b90:	00000000 	nop

Disassembly of section .text._strtostr:

9d007b94 <_strtostr>:
9d007b94:	27bdfec8 	addiu	sp,sp,-312
9d007b98:	24020002 	li	v0,2
9d007b9c:	afb60128 	sw	s6,296(sp)
9d007ba0:	afb40120 	sw	s4,288(sp)
9d007ba4:	afb3011c 	sw	s3,284(sp)
9d007ba8:	afb20118 	sw	s2,280(sp)
9d007bac:	afb00110 	sw	s0,272(sp)
9d007bb0:	afbf0134 	sw	ra,308(sp)
9d007bb4:	afbe0130 	sw	s8,304(sp)
9d007bb8:	afb7012c 	sw	s7,300(sp)
9d007bbc:	afb50124 	sw	s5,292(sp)
9d007bc0:	afb10114 	sw	s1,276(sp)
9d007bc4:	0080b025 	move	s6,a0
9d007bc8:	00a09025 	move	s2,a1
9d007bcc:	00c0a025 	move	s4,a2
9d007bd0:	00e09825 	move	s3,a3
9d007bd4:	14820029 	bne	a0,v0,9d007c7c <_strtostr+0xe8>
9d007bd8:	8fb00148 	lw	s0,328(sp)
9d007bdc:	8e020008 	lw	v0,8(s0)
9d007be0:	2403005e 	li	v1,94
9d007be4:	80440000 	lb	a0,0(v0)
9d007be8:	14830004 	bne	a0,v1,9d007bfc <_strtostr+0x68>
9d007bec:	00008825 	move	s1,zero
9d007bf0:	24420001 	addiu	v0,v0,1
9d007bf4:	ae020008 	sw	v0,8(s0)
9d007bf8:	24110001 	li	s1,1
9d007bfc:	02202825 	move	a1,s1
9d007c00:	27a40010 	addiu	a0,sp,16
9d007c04:	0f4029ee 	jal	9d00a7b8 <memset>
9d007c08:	24060100 	li	a2,256
9d007c0c:	3a310001 	xori	s1,s1,0x1
9d007c10:	2402ffff 	li	v0,-1
9d007c14:	2407ffff 	li	a3,-1
9d007c18:	2408002d 	li	t0,45
9d007c1c:	2404005d 	li	a0,93
9d007c20:	8e030008 	lw	v1,8(s0)
9d007c24:	1047004e 	beq	v0,a3,9d007d60 <_strtostr+0x1cc>
9d007c28:	80650000 	lb	a1,0(v1)
9d007c2c:	54a8004d 	bnel	a1,t0,9d007d64 <_strtostr+0x1d0>
9d007c30:	27a30010 	addiu	v1,sp,16
9d007c34:	80660001 	lb	a2,1(v1)
9d007c38:	50c4004a 	beql	a2,a0,9d007d64 <_strtostr+0x1d0>
9d007c3c:	27a30010 	addiu	v1,sp,16
9d007c40:	24420001 	addiu	v0,v0,1
9d007c44:	00c2282a 	slt	a1,a2,v0
9d007c48:	10a00042 	beqz	a1,9d007d54 <_strtostr+0x1c0>
9d007c4c:	27a50010 	addiu	a1,sp,16
9d007c50:	24630001 	addiu	v1,v1,1
9d007c54:	ae030008 	sw	v1,8(s0)
9d007c58:	2402ffff 	li	v0,-1
9d007c5c:	8e030008 	lw	v1,8(s0)
9d007c60:	24650001 	addiu	a1,v1,1
9d007c64:	ae050008 	sw	a1,8(s0)
9d007c68:	80650001 	lb	a1,1(v1)
9d007c6c:	54a4ffed 	bnel	a1,a0,9d007c24 <_strtostr+0x90>
9d007c70:	8e030008 	lw	v1,8(s0)
9d007c74:	24630002 	addiu	v1,v1,2
9d007c78:	ae030008 	sw	v1,8(s0)
9d007c7c:	32910001 	andi	s1,s4,0x1
9d007c80:	16200005 	bnez	s1,9d007c98 <_strtostr+0x104>
9d007c84:	3c179d01 	lui	s7,0x9d01
9d007c88:	8e02000c 	lw	v0,12(s0)
9d007c8c:	24430004 	addiu	v1,v0,4
9d007c90:	ae03000c 	sw	v1,12(s0)
9d007c94:	8c550000 	lw	s5,0(v0)
9d007c98:	0260a025 	move	s4,s3
9d007c9c:	241effff 	li	s8,-1
9d007ca0:	26f78fc9 	addiu	s7,s7,-28727
9d007ca4:	12800010 	beqz	s4,9d007ce8 <_strtostr+0x154>
9d007ca8:	2402ffff 	li	v0,-1
9d007cac:	0f4028b9 	jal	9d00a2e4 <gsgetc>
9d007cb0:	02002025 	move	a0,s0
9d007cb4:	105e003b 	beq	v0,s8,9d007da4 <_strtostr+0x210>
9d007cb8:	24050001 	li	a1,1
9d007cbc:	16c5002d 	bne	s6,a1,9d007d74 <_strtostr+0x1e0>
9d007cc0:	2684ffff 	addiu	a0,s4,-1
9d007cc4:	00571821 	addu	v1,v0,s7
9d007cc8:	80630000 	lb	v1,0(v1)
9d007ccc:	30630088 	andi	v1,v1,0x88
9d007cd0:	1060002f 	beqz	v1,9d007d90 <_strtostr+0x1fc>
9d007cd4:	00000000 	nop
9d007cd8:	8e030010 	lw	v1,16(s0)
9d007cdc:	ae020004 	sw	v0,4(s0)
9d007ce0:	2463ffff 	addiu	v1,v1,-1
9d007ce4:	ae030010 	sw	v1,16(s0)
9d007ce8:	8e030014 	lw	v1,20(s0)
9d007cec:	24630001 	addiu	v1,v1,1
9d007cf0:	16200007 	bnez	s1,9d007d10 <_strtostr+0x17c>
9d007cf4:	ae030014 	sw	v1,20(s0)
9d007cf8:	24030001 	li	v1,1
9d007cfc:	52430001 	beql	s2,v1,9d007d04 <_strtostr+0x170>
9d007d00:	a2a00000 	sb	zero,0(s5)
9d007d04:	8e030018 	lw	v1,24(s0)
9d007d08:	24630001 	addiu	v1,v1,1
9d007d0c:	ae030018 	sw	v1,24(s0)
9d007d10:	56930004 	bnel	s4,s3,9d007d24 <_strtostr+0x190>
9d007d14:	00001025 	move	v0,zero
9d007d18:	2403ffff 	li	v1,-1
9d007d1c:	54430001 	bnel	v0,v1,9d007d24 <_strtostr+0x190>
9d007d20:	24020001 	li	v0,1
9d007d24:	8fbf0134 	lw	ra,308(sp)
9d007d28:	8fbe0130 	lw	s8,304(sp)
9d007d2c:	8fb7012c 	lw	s7,300(sp)
9d007d30:	8fb60128 	lw	s6,296(sp)
9d007d34:	8fb50124 	lw	s5,292(sp)
9d007d38:	8fb40120 	lw	s4,288(sp)
9d007d3c:	8fb3011c 	lw	s3,284(sp)
9d007d40:	8fb20118 	lw	s2,280(sp)
9d007d44:	8fb10114 	lw	s1,276(sp)
9d007d48:	8fb00110 	lw	s0,272(sp)
9d007d4c:	03e00008 	jr	ra
9d007d50:	27bd0138 	addiu	sp,sp,312
9d007d54:	00a22821 	addu	a1,a1,v0
9d007d58:	1000ffb9 	b	9d007c40 <_strtostr+0xac>
9d007d5c:	a0b10000 	sb	s1,0(a1)
9d007d60:	27a30010 	addiu	v1,sp,16
9d007d64:	00651821 	addu	v1,v1,a1
9d007d68:	00a01025 	move	v0,a1
9d007d6c:	1000ffbb 	b	9d007c5c <_strtostr+0xc8>
9d007d70:	a0710000 	sb	s1,0(v1)
9d007d74:	24030002 	li	v1,2
9d007d78:	16c30005 	bne	s6,v1,9d007d90 <_strtostr+0x1fc>
9d007d7c:	27a30010 	addiu	v1,sp,16
9d007d80:	00621821 	addu	v1,v1,v0
9d007d84:	80630000 	lb	v1,0(v1)
9d007d88:	5060ffd4 	beqzl	v1,9d007cdc <_strtostr+0x148>
9d007d8c:	8e030010 	lw	v1,16(s0)
9d007d90:	1620ffc4 	bnez	s1,9d007ca4 <_strtostr+0x110>
9d007d94:	0080a025 	move	s4,a0
9d007d98:	a2a20000 	sb	v0,0(s5)
9d007d9c:	1000ffc1 	b	9d007ca4 <_strtostr+0x110>
9d007da0:	26b50001 	addiu	s5,s5,1
9d007da4:	1000ffd0 	b	9d007ce8 <_strtostr+0x154>
9d007da8:	2402ffff 	li	v0,-1

Disassembly of section .text:

9d007dac <initialize_sfrs>:
	
	//SPI communication
	//encoder_init(); //change this to new I2C communication
	
	//ADC input for current sensor: AN5
 	AD1CON1bits.ON = 1;
9d007dac:	3c03bf81 	lui	v1,0xbf81
9d007db0:	94649000 	lhu	a0,-28672(v1)
9d007db4:	24020001 	li	v0,1
9d007db8:	7c447bc4 	ins	a0,v0,0xf,0x1
9d007dbc:	a4649000 	sh	a0,-28672(v1)
	AD1CON1bits.SIDL = 1;
9d007dc0:	94649000 	lhu	a0,-28672(v1)
9d007dc4:	7c446b44 	ins	a0,v0,0xd,0x1
9d007dc8:	a4649000 	sh	a0,-28672(v1)
	AD1PCFGbits.PCFG5 = 0; //pin 5 analog
9d007dcc:	3c03bf81 	lui	v1,0xbf81
9d007dd0:	94649060 	lhu	a0,-28576(v1)
9d007dd4:	7c042944 	ins	a0,zero,0x5,0x1
9d007dd8:	a4649060 	sh	a0,-28576(v1)
	TRISDbits.TRISD5 = 1; //pin 5 input
9d007ddc:	3c03bf88 	lui	v1,0xbf88
9d007de0:	946460c0 	lhu	a0,24768(v1)
9d007de4:	7c442944 	ins	a0,v0,0x5,0x1
9d007de8:	a46460c0 	sh	a0,24768(v1)
	
 	//Digital output for H-bridge control: D4
	TRISDbits.TRISD4 = 0;
9d007dec:	946460c0 	lhu	a0,24768(v1)
9d007df0:	7c042104 	ins	a0,zero,0x4,0x1
9d007df4:	a46460c0 	sh	a0,24768(v1)
	LATDbits.LATD4 = 0; //direction of motor 
9d007df8:	3c03bf88 	lui	v1,0xbf88
9d007dfc:	946460e0 	lhu	a0,24800(v1)
9d007e00:	7c042104 	ins	a0,zero,0x4,0x1
9d007e04:	a46460e0 	sh	a0,24800(v1)
	
	//Timer initialization (3 timers)
	
	T2CONbits.TCKPS = 0b001; //prescaler of 2, use PR = 2000
9d007e08:	3c05bf80 	lui	a1,0xbf80
9d007e0c:	94a30800 	lhu	v1,2048(a1)
9d007e10:	7c433104 	ins	v1,v0,0x4,0x3
9d007e14:	a4a30800 	sh	v1,2048(a1)
	T2CONbits.T32 = 0;
9d007e18:	94a30800 	lhu	v1,2048(a1)
9d007e1c:	7c0318c4 	ins	v1,zero,0x3,0x1
9d007e20:	a4a30800 	sh	v1,2048(a1)
	PR2 = 2000;
9d007e24:	240307d0 	li	v1,2000
9d007e28:	3c04bf80 	lui	a0,0xbf80
9d007e2c:	ac830820 	sw	v1,2080(a0)

	T3CONbits.TCKPS = 0b011; //prescaler of 8, use PR = 2000
9d007e30:	3c06bf80 	lui	a2,0xbf80
9d007e34:	94c40a00 	lhu	a0,2560(a2)
9d007e38:	24070003 	li	a3,3
9d007e3c:	7ce43104 	ins	a0,a3,0x4,0x3
9d007e40:	a4c40a00 	sh	a0,2560(a2)
	PR3 = 2000;
9d007e44:	3c04bf80 	lui	a0,0xbf80
9d007e48:	ac830a20 	sw	v1,2592(a0)
	
	T4CONbits.TCKPS = 0b100; //prescaler of 16, use PR = 25000
9d007e4c:	3c04bf80 	lui	a0,0xbf80
9d007e50:	94830c00 	lhu	v1,3072(a0)
9d007e54:	24090004 	li	t1,4
9d007e58:	7d233104 	ins	v1,t1,0x4,0x3
9d007e5c:	a4830c00 	sh	v1,3072(a0)
	T4CONbits.T32 = 0;
9d007e60:	94830c00 	lhu	v1,3072(a0)
9d007e64:	7c0318c4 	ins	v1,zero,0x3,0x1
9d007e68:	a4830c00 	sh	v1,3072(a0)
	PR4 = 25000;
9d007e6c:	3c03bf80 	lui	v1,0xbf80
9d007e70:	240761a8 	li	a3,25000
9d007e74:	ac670c20 	sw	a3,3104(v1)
	
 	//OC PWM for H-bridge operation
	OC3CONbits.SIDL = 1;
9d007e78:	3c03bf80 	lui	v1,0xbf80
9d007e7c:	94673400 	lhu	a3,13312(v1)
9d007e80:	7c476b44 	ins	a3,v0,0xd,0x1
9d007e84:	a4673400 	sh	a3,13312(v1)
	OC3CONbits.OCTSEL = 0; //timer2
9d007e88:	94673400 	lhu	a3,13312(v1)
9d007e8c:	7c0718c4 	ins	a3,zero,0x3,0x1
9d007e90:	a4673400 	sh	a3,13312(v1)
	OC3CONbits.OCM = 0b110; //PWM mode; fault pin disabled
9d007e94:	94673400 	lhu	a3,13312(v1)
9d007e98:	24080006 	li	t0,6
9d007e9c:	7d071004 	ins	a3,t0,0x0,0x3
9d007ea0:	a4673400 	sh	a3,13312(v1)
	OC3CONbits.OC32 = 0; //16 bit mode
9d007ea4:	94673400 	lhu	a3,13312(v1)
9d007ea8:	7c072944 	ins	a3,zero,0x5,0x1
9d007eac:	a4673400 	sh	a3,13312(v1)
	OC3R = 0; //initialize at 25% PR2 
9d007eb0:	3c07bf80 	lui	a3,0xbf80
9d007eb4:	ace03410 	sw	zero,13328(a3)
	
	//Interrupt setup for ISRs on timers 3 and 4
	IPC3bits.T3IP = 5;
9d007eb8:	3c07bf88 	lui	a3,0xbf88
9d007ebc:	8ce810c0 	lw	t0,4288(a3)
9d007ec0:	240a0005 	li	t2,5
9d007ec4:	7d482084 	ins	t0,t2,0x2,0x3
9d007ec8:	ace810c0 	sw	t0,4288(a3)
	IPC3bits.T3IS = 0;
9d007ecc:	8ce810c0 	lw	t0,4288(a3)
9d007ed0:	7c080804 	ins	t0,zero,0x0,0x2
9d007ed4:	ace810c0 	sw	t0,4288(a3)
		
	IPC4bits.T4IP = 4;
9d007ed8:	3c07bf88 	lui	a3,0xbf88
9d007edc:	8ce810d0 	lw	t0,4304(a3)
9d007ee0:	7d282084 	ins	t0,t1,0x2,0x3
9d007ee4:	ace810d0 	sw	t0,4304(a3)
	IPC4bits.T4IS = 0;
9d007ee8:	8ce810d0 	lw	t0,4304(a3)
9d007eec:	7c080804 	ins	t0,zero,0x0,0x2
9d007ef0:	ace810d0 	sw	t0,4304(a3)
	
	OC3CONbits.ON = 1;
9d007ef4:	94673400 	lhu	a3,13312(v1)
9d007ef8:	7c477bc4 	ins	a3,v0,0xf,0x1
9d007efc:	a4673400 	sh	a3,13312(v1)
	T2CONbits.ON = 1; //for 20KHz OC PWM
9d007f00:	94a30800 	lhu	v1,2048(a1)
9d007f04:	7c437bc4 	ins	v1,v0,0xf,0x1
9d007f08:	a4a30800 	sh	v1,2048(a1)
	T3CONbits.ON = 1; //for 5KHz current control ISR
9d007f0c:	94c30a00 	lhu	v1,2560(a2)
9d007f10:	7c437bc4 	ins	v1,v0,0xf,0x1
9d007f14:	a4c30a00 	sh	v1,2560(a2)
	T4CONbits.ON = 1; //for 200Hz position control ISR
9d007f18:	94830c00 	lhu	v1,3072(a0)
9d007f1c:	7c437bc4 	ins	v1,v0,0xf,0x1
9d007f20:	a4830c00 	sh	v1,3072(a0)

	
	IEC0bits.T3IE = 1;
9d007f24:	3c03bf88 	lui	v1,0xbf88
9d007f28:	8c641060 	lw	a0,4192(v1)
9d007f2c:	7c446304 	ins	a0,v0,0xc,0x1
9d007f30:	ac641060 	sw	a0,4192(v1)
	IEC0bits.T4IE = 1;
9d007f34:	8c641060 	lw	a0,4192(v1)
9d007f38:	7c448404 	ins	a0,v0,0x10,0x1
9d007f3c:	ac641060 	sw	a0,4192(v1)

}
9d007f40:	03e00008 	jr	ra
9d007f44:	00000000 	nop

9d007f48 <adc_sample_convert>:

unsigned int adc_sample_convert(int pin) { // sample & convert the value on the given 
9d007f48:	27bdfff8 	addiu	sp,sp,-8
9d007f4c:	afbf0004 	sw	ra,4(sp)
                                           // adc pin the pin should be configured as an 
                                           // analog input in AD1PCFG
    unsigned int elapsed = 0, finish_time = 0;
    AD1CHSbits.CH0SA = pin;                // connect chosen pin to MUXA for sampling
9d007f50:	3c02bf81 	lui	v0,0xbf81
9d007f54:	8c439040 	lw	v1,-28608(v0)
9d007f58:	7c839c04 	ins	v1,a0,0x10,0x4
9d007f5c:	ac439040 	sw	v1,-28608(v0)
    AD1CON1bits.SAMP = 1;                  // start sampling
9d007f60:	3c02bf81 	lui	v0,0xbf81
9d007f64:	94439000 	lhu	v1,-28672(v0)
9d007f68:	24040001 	li	a0,1
9d007f6c:	7c830844 	ins	v1,a0,0x1,0x1
9d007f70:	a4439000 	sh	v1,-28672(v0)
    elapsed = _CP0_GET_COUNT();
9d007f74:	40034800 	mfc0	v1,c0_count
    finish_time = elapsed + SAMPLE_TIME;
9d007f78:	2463000a 	addiu	v1,v1,10
    while (_CP0_GET_COUNT() < finish_time) { 
9d007f7c:	40024800 	mfc0	v0,c0_count
9d007f80:	0043102b 	sltu	v0,v0,v1
9d007f84:	1440fffd 	bnez	v0,9d007f7c <adc_sample_convert+0x34>
9d007f88:	3c02bf81 	lui	v0,0xbf81
      ;                                   // sample for more than 250 ns
    }
    AD1CON1bits.SAMP = 0;                 // stop sampling and start converting
9d007f8c:	94439000 	lhu	v1,-28672(v0)
9d007f90:	7c030844 	ins	v1,zero,0x1,0x1
9d007f94:	a4439000 	sh	v1,-28672(v0)
    while (!AD1CON1bits.DONE) {
9d007f98:	00401825 	move	v1,v0
9d007f9c:	8c629000 	lw	v0,-28672(v1)
9d007fa0:	30420001 	andi	v0,v0,0x1
9d007fa4:	1040fffd 	beqz	v0,9d007f9c <adc_sample_convert+0x54>
9d007fa8:	3c02bf81 	lui	v0,0xbf81
      ;                                   // wait for the conversion process to finish
    }
    return ADC1BUF0;                      // read the buffer with the result
9d007fac:	8c429070 	lw	v0,-28560(v0)
9d007fb0:	8fbf0004 	lw	ra,4(sp)
9d007fb4:	03e00008 	jr	ra
9d007fb8:	27bd0008 	addiu	sp,sp,8

Disassembly of section .text.strtol:

9d007fbc <strtol>:
9d007fbc:	3c079d01 	lui	a3,0x9d01
9d007fc0:	00801025 	move	v0,a0
9d007fc4:	24e78fc9 	addiu	a3,a3,-28727
9d007fc8:	804a0000 	lb	t2,0(v0)
9d007fcc:	1140000f 	beqz	t2,9d00800c <strtol+0x50>
9d007fd0:	00000000 	nop
9d007fd4:	01471821 	addu	v1,t2,a3
9d007fd8:	80630000 	lb	v1,0(v1)
9d007fdc:	30630088 	andi	v1,v1,0x88
9d007fe0:	5460fff9 	bnezl	v1,9d007fc8 <strtol+0xc>
9d007fe4:	24420001 	addiu	v0,v0,1
9d007fe8:	2403002b 	li	v1,43
9d007fec:	51430005 	beql	t2,v1,9d008004 <strtol+0x48>
9d007ff0:	394a002d 	xori	t2,t2,0x2d
9d007ff4:	2403002d 	li	v1,45
9d007ff8:	55430004 	bnel	t2,v1,9d00800c <strtol+0x50>
9d007ffc:	00005025 	move	t2,zero
9d008000:	394a002d 	xori	t2,t2,0x2d
9d008004:	2d4a0001 	sltiu	t2,t2,1
9d008008:	24420001 	addiu	v0,v0,1
9d00800c:	14c0002e 	bnez	a2,9d0080c8 <strtol+0x10c>
9d008010:	80430000 	lb	v1,0(v0)
9d008014:	24060030 	li	a2,48
9d008018:	14660039 	bne	v1,a2,9d008100 <strtol+0x144>
9d00801c:	00005825 	move	t3,zero
9d008020:	80430001 	lb	v1,1(v0)
9d008024:	24060058 	li	a2,88
9d008028:	7c032944 	ins	v1,zero,0x5,0x1
9d00802c:	50660023 	beql	v1,a2,9d0080bc <strtol+0x100>
9d008030:	24420002 	addiu	v0,v0,2
9d008034:	24420001 	addiu	v0,v0,1
9d008038:	240b0001 	li	t3,1
9d00803c:	24060008 	li	a2,8
9d008040:	3c077fff 	lui	a3,0x7fff
9d008044:	34e7ffff 	ori	a3,a3,0xffff
9d008048:	00e6001a 	div	zero,a3,a2
9d00804c:	00c001f4 	teq	a2,zero,0x7
9d008050:	3c0d9d01 	lui	t5,0x9d01
9d008054:	2443ffff 	addiu	v1,v0,-1
9d008058:	00006025 	move	t4,zero
9d00805c:	00001025 	move	v0,zero
9d008060:	25ad8fc9 	addiu	t5,t5,-28727
9d008064:	240e0041 	li	t6,65
9d008068:	240f0061 	li	t7,97
9d00806c:	00e04825 	move	t1,a3
9d008070:	0000c812 	mflo	t9
9d008074:	24630001 	addiu	v1,v1,1
9d008078:	80670000 	lb	a3,0(v1)
9d00807c:	14e00022 	bnez	a3,9d008108 <strtol+0x14c>
9d008080:	00ed4021 	addu	t0,a3,t5
9d008084:	1140003c 	beqz	t2,9d008178 <strtol+0x1bc>
9d008088:	00000000 	nop
9d00808c:	1180003c 	beqz	t4,9d008180 <strtol+0x1c4>
9d008090:	00021023 	negu	v0,v0
9d008094:	3c02a000 	lui	v0,0xa000
9d008098:	24060022 	li	a2,34
9d00809c:	ac460038 	sw	a2,56(v0)
9d0080a0:	15400037 	bnez	t2,9d008180 <strtol+0x1c4>
9d0080a4:	3c028000 	lui	v0,0x8000
9d0080a8:	3c027fff 	lui	v0,0x7fff
9d0080ac:	10000034 	b	9d008180 <strtol+0x1c4>
9d0080b0:	3442ffff 	ori	v0,v0,0xffff
9d0080b4:	1000ffd5 	b	9d00800c <strtol+0x50>
9d0080b8:	00005025 	move	t2,zero
9d0080bc:	240b0001 	li	t3,1
9d0080c0:	1000ffdf 	b	9d008040 <strtol+0x84>
9d0080c4:	24060010 	li	a2,16
9d0080c8:	24070010 	li	a3,16
9d0080cc:	14c7ffdc 	bne	a2,a3,9d008040 <strtol+0x84>
9d0080d0:	00005825 	move	t3,zero
9d0080d4:	24070030 	li	a3,48
9d0080d8:	1467ffda 	bne	v1,a3,9d008044 <strtol+0x88>
9d0080dc:	3c077fff 	lui	a3,0x7fff
9d0080e0:	80430001 	lb	v1,1(v0)
9d0080e4:	24070058 	li	a3,88
9d0080e8:	7c032944 	ins	v1,zero,0x5,0x1
9d0080ec:	50670002 	beql	v1,a3,9d0080f8 <strtol+0x13c>
9d0080f0:	24420002 	addiu	v0,v0,2
9d0080f4:	24420001 	addiu	v0,v0,1
9d0080f8:	1000ffd1 	b	9d008040 <strtol+0x84>
9d0080fc:	240b0001 	li	t3,1
9d008100:	1000ffcf 	b	9d008040 <strtol+0x84>
9d008104:	2406000a 	li	a2,10
9d008108:	91080000 	lbu	t0,0(t0)
9d00810c:	31180004 	andi	t8,t0,0x4
9d008110:	13000012 	beqz	t8,9d00815c <strtol+0x1a0>
9d008114:	31180003 	andi	t8,t0,0x3
9d008118:	24e7ffd0 	addiu	a3,a3,-48
9d00811c:	04e0ffd9 	bltz	a3,9d008084 <strtol+0xc8>
9d008120:	00e6402a 	slt	t0,a3,a2
9d008124:	1100ffd7 	beqz	t0,9d008084 <strtol+0xc8>
9d008128:	0322402a 	slt	t0,t9,v0
9d00812c:	55000009 	bnezl	t0,9d008154 <strtol+0x198>
9d008130:	240c0001 	li	t4,1
9d008134:	5580ffcf 	bnezl	t4,9d008074 <strtol+0xb8>
9d008138:	240b0001 	li	t3,1
9d00813c:	70461002 	mul	v0,v0,a2
9d008140:	01224023 	subu	t0,t1,v0
9d008144:	0107402a 	slt	t0,t0,a3
9d008148:	55000002 	bnezl	t0,9d008154 <strtol+0x198>
9d00814c:	240c0001 	li	t4,1
9d008150:	00471021 	addu	v0,v0,a3
9d008154:	1000ffc7 	b	9d008074 <strtol+0xb8>
9d008158:	240b0001 	li	t3,1
9d00815c:	1300ffc9 	beqz	t8,9d008084 <strtol+0xc8>
9d008160:	31080001 	andi	t0,t0,0x1
9d008164:	01e0c025 	move	t8,t7
9d008168:	01c8c00b 	movn	t8,t6,t0
9d00816c:	00f83823 	subu	a3,a3,t8
9d008170:	1000ffea 	b	9d00811c <strtol+0x160>
9d008174:	24e7000a 	addiu	a3,a3,10
9d008178:	5580ffc7 	bnezl	t4,9d008098 <strtol+0xdc>
9d00817c:	3c02a000 	lui	v0,0xa000
9d008180:	10a00002 	beqz	a1,9d00818c <strtol+0x1d0>
9d008184:	006b200b 	movn	a0,v1,t3
9d008188:	aca40000 	sw	a0,0(a1)
9d00818c:	03e00008 	jr	ra
9d008190:	00000000 	nop

Disassembly of section .text.strtoul:

9d008194 <strtoul>:
9d008194:	3c079d01 	lui	a3,0x9d01
9d008198:	00801025 	move	v0,a0
9d00819c:	24e78fc9 	addiu	a3,a3,-28727
9d0081a0:	80480000 	lb	t0,0(v0)
9d0081a4:	1100000f 	beqz	t0,9d0081e4 <strtoul+0x50>
9d0081a8:	00000000 	nop
9d0081ac:	01071821 	addu	v1,t0,a3
9d0081b0:	80630000 	lb	v1,0(v1)
9d0081b4:	30630088 	andi	v1,v1,0x88
9d0081b8:	5460fff9 	bnezl	v1,9d0081a0 <strtoul+0xc>
9d0081bc:	24420001 	addiu	v0,v0,1
9d0081c0:	2403002b 	li	v1,43
9d0081c4:	51030005 	beql	t0,v1,9d0081dc <strtoul+0x48>
9d0081c8:	3908002d 	xori	t0,t0,0x2d
9d0081cc:	2403002d 	li	v1,45
9d0081d0:	55030004 	bnel	t0,v1,9d0081e4 <strtoul+0x50>
9d0081d4:	00004025 	move	t0,zero
9d0081d8:	3908002d 	xori	t0,t0,0x2d
9d0081dc:	2d080001 	sltiu	t0,t0,1
9d0081e0:	24420001 	addiu	v0,v0,1
9d0081e4:	14c00025 	bnez	a2,9d00827c <strtoul+0xe8>
9d0081e8:	80430000 	lb	v1,0(v0)
9d0081ec:	24060030 	li	a2,48
9d0081f0:	14660030 	bne	v1,a2,9d0082b4 <strtoul+0x120>
9d0081f4:	00004825 	move	t1,zero
9d0081f8:	80430001 	lb	v1,1(v0)
9d0081fc:	24060058 	li	a2,88
9d008200:	7c032944 	ins	v1,zero,0x5,0x1
9d008204:	5066001a 	beql	v1,a2,9d008270 <strtoul+0xdc>
9d008208:	24420002 	addiu	v0,v0,2
9d00820c:	24420001 	addiu	v0,v0,1
9d008210:	24090001 	li	t1,1
9d008214:	24060008 	li	a2,8
9d008218:	3c0c9d01 	lui	t4,0x9d01
9d00821c:	2443ffff 	addiu	v1,v0,-1
9d008220:	00005825 	move	t3,zero
9d008224:	00001025 	move	v0,zero
9d008228:	258c8fc9 	addiu	t4,t4,-28727
9d00822c:	240d0041 	li	t5,65
9d008230:	240e0061 	li	t6,97
9d008234:	24630001 	addiu	v1,v1,1
9d008238:	80670000 	lb	a3,0(v1)
9d00823c:	14e0001f 	bnez	a3,9d0082bc <strtoul+0x128>
9d008240:	00ec5021 	addu	t2,a3,t4
9d008244:	1100003b 	beqz	t0,9d008334 <strtoul+0x1a0>
9d008248:	00000000 	nop
9d00824c:	1160003b 	beqz	t3,9d00833c <strtoul+0x1a8>
9d008250:	00021023 	negu	v0,v0
9d008254:	3c02a000 	lui	v0,0xa000
9d008258:	24060022 	li	a2,34
9d00825c:	ac460038 	sw	a2,56(v0)
9d008260:	10000036 	b	9d00833c <strtoul+0x1a8>
9d008264:	2402ffff 	li	v0,-1
9d008268:	1000ffde 	b	9d0081e4 <strtoul+0x50>
9d00826c:	00004025 	move	t0,zero
9d008270:	24090001 	li	t1,1
9d008274:	1000ffe8 	b	9d008218 <strtoul+0x84>
9d008278:	24060010 	li	a2,16
9d00827c:	24070010 	li	a3,16
9d008280:	14c7ffe5 	bne	a2,a3,9d008218 <strtoul+0x84>
9d008284:	00004825 	move	t1,zero
9d008288:	24070030 	li	a3,48
9d00828c:	1467ffe3 	bne	v1,a3,9d00821c <strtoul+0x88>
9d008290:	3c0c9d01 	lui	t4,0x9d01
9d008294:	80430001 	lb	v1,1(v0)
9d008298:	24070058 	li	a3,88
9d00829c:	7c032944 	ins	v1,zero,0x5,0x1
9d0082a0:	50670002 	beql	v1,a3,9d0082ac <strtoul+0x118>
9d0082a4:	24420002 	addiu	v0,v0,2
9d0082a8:	24420001 	addiu	v0,v0,1
9d0082ac:	1000ffda 	b	9d008218 <strtoul+0x84>
9d0082b0:	24090001 	li	t1,1
9d0082b4:	1000ffd8 	b	9d008218 <strtoul+0x84>
9d0082b8:	2406000a 	li	a2,10
9d0082bc:	914a0000 	lbu	t2,0(t2)
9d0082c0:	314f0004 	andi	t7,t2,0x4
9d0082c4:	11e00014 	beqz	t7,9d008318 <strtoul+0x184>
9d0082c8:	314f0003 	andi	t7,t2,0x3
9d0082cc:	24e7ffd0 	addiu	a3,a3,-48
9d0082d0:	04e0ffdc 	bltz	a3,9d008244 <strtoul+0xb0>
9d0082d4:	00e6502a 	slt	t2,a3,a2
9d0082d8:	1140ffda 	beqz	t2,9d008244 <strtoul+0xb0>
9d0082dc:	00460019 	multu	v0,a2
9d0082e0:	00004810 	mfhi	t1
9d0082e4:	5520000a 	bnezl	t1,9d008310 <strtoul+0x17c>
9d0082e8:	240b0001 	li	t3,1
9d0082ec:	15600008 	bnez	t3,9d008310 <strtoul+0x17c>
9d0082f0:	240b0001 	li	t3,1
9d0082f4:	70461002 	mul	v0,v0,a2
9d0082f8:	00024827 	nor	t1,zero,v0
9d0082fc:	0127482b 	sltu	t1,t1,a3
9d008300:	5520ffcc 	bnezl	t1,9d008234 <strtoul+0xa0>
9d008304:	24090001 	li	t1,1
9d008308:	00471021 	addu	v0,v0,a3
9d00830c:	00005825 	move	t3,zero
9d008310:	1000ffc8 	b	9d008234 <strtoul+0xa0>
9d008314:	24090001 	li	t1,1
9d008318:	11e0ffca 	beqz	t7,9d008244 <strtoul+0xb0>
9d00831c:	314a0001 	andi	t2,t2,0x1
9d008320:	01c07825 	move	t7,t6
9d008324:	01aa780b 	movn	t7,t5,t2
9d008328:	00ef3823 	subu	a3,a3,t7
9d00832c:	1000ffe8 	b	9d0082d0 <strtoul+0x13c>
9d008330:	24e7000a 	addiu	a3,a3,10
9d008334:	5560ffc8 	bnezl	t3,9d008258 <strtoul+0xc4>
9d008338:	3c02a000 	lui	v0,0xa000
9d00833c:	10a00002 	beqz	a1,9d008348 <strtoul+0x1b4>
9d008340:	0069200b 	movn	a0,v1,t1
9d008344:	aca40000 	sw	a0,0(a1)
9d008348:	03e00008 	jr	ra
9d00834c:	00000000 	nop

Disassembly of section .text.fp32mul:

9d008350 <__mulsf3>:
9d008350:	00043dc2 30e700ff 00054dc2 312900ff     .=.....0.M....)1
9d008360:	3c0a8000 00043200 00ca3025 00054200     ...<.2..%0...B..
9d008370:	010a4025 00856026 014c5024 24ecffff     %@..&`..$PL....$
9d008380:	2d8100fe 10200021 00000000              ...-!. .....

9d00838c <Clab1>:
9d00838c:	252cffff 	addiu	t4,t1,-1
9d008390:	2d8100fe 	sltiu	at,t4,254
9d008394:	10200036 	beqz	at,9d008470 <CspecB>
9d008398:	00000000 	nop

9d00839c <Clab2>:
9d00839c:	00c80019 	multu	a2,t0
9d0083a0:	00005812 	mflo	t3
9d0083a4:	11600002 	beqz	t3,9d0083b0 <i17>
9d0083a8:	00003010 	mfhi	a2
9d0083ac:	34c60001 	ori	a2,a2,0x1

9d0083b0 <i17>:
9d0083b0:	04c00003 	bltz	a2,9d0083c0 <i18>
9d0083b4:	00000000 	nop
9d0083b8:	00063040 	sll	a2,a2,0x1
9d0083bc:	24e7ffff 	addiu	a3,a3,-1

9d0083c0 <i18>:
9d0083c0:	252cff82 	addiu	t4,t1,-126
9d0083c4:	00ec3821 	addu	a3,a3,t4
9d0083c8:	24ecffff 	addiu	t4,a3,-1
9d0083cc:	2d8100fe 	sltiu	at,t4,254
9d0083d0:	1020003a 	beqz	at,9d0084bc <Coveund>
9d0083d4:	00000000 	nop

9d0083d8 <Clab8>:
9d0083d8:	24c60080 	addiu	a2,a2,128
9d0083dc:	2ccc0080 	sltiu	t4,a2,128
9d0083e0:	00ec3821 	addu	a3,a3,t4
9d0083e4:	00066202 	srl	t4,a2,0x8
9d0083e8:	318c0001 	andi	t4,t4,0x1
9d0083ec:	00cc3023 	subu	a2,a2,t4
9d0083f0:	00063040 	sll	a2,a2,0x1
9d0083f4:	00063242 	srl	a2,a2,0x9
9d0083f8:	000765c0 	sll	t4,a3,0x17
9d0083fc:	00cc3025 	or	a2,a2,t4
9d008400:	00ca1025 	or	v0,a2,t2

9d008404 <C999>:
9d008404:	03e00008 	jr	ra
9d008408:	00000000 	nop

9d00840c <CspecA>:
9d00840c:	14e0000d 	bnez	a3,9d008444 <i19>
9d008410:	00000000 	nop
9d008414:	00c63021 	addu	a2,a2,a2
9d008418:	10c00005 	beqz	a2,9d008430 <i20>
9d00841c:	00000000 	nop
9d008420:	70cb5820 	clz	t3,a2
9d008424:	00eb3823 	subu	a3,a3,t3
9d008428:	1000ffd8 	b	9d00838c <Clab1>
9d00842c:	01663004 	sllv	a2,a2,t3

9d008430 <i20>:
9d008430:	240100ff 	li	at,255
9d008434:	1121001f 	beq	t1,at,9d0084b4 <Cnan>
9d008438:	00000000 	nop
9d00843c:	10000015 	b	9d008494 <Czer>
9d008440:	00000000 	nop

9d008444 <i19>:
9d008444:	00c66021 	addu	t4,a2,a2
9d008448:	1580001a 	bnez	t4,9d0084b4 <Cnan>
9d00844c:	00000000 	nop
9d008450:	15200004 	bnez	t1,9d008464 <i21>
9d008454:	00000000 	nop
9d008458:	01086021 	addu	t4,t0,t0
9d00845c:	11800015 	beqz	t4,9d0084b4 <Cnan>
9d008460:	00000000 	nop

9d008464 <i21>:
9d008464:	240100ff 	li	at,255
9d008468:	1521000f 	bne	t1,at,9d0084a8 <Cinf>
9d00846c:	00000000 	nop

9d008470 <CspecB>:
9d008470:	1520000a 	bnez	t1,9d00849c <i22>
9d008474:	00000000 	nop
9d008478:	01084021 	addu	t0,t0,t0
9d00847c:	11000005 	beqz	t0,9d008494 <Czer>
9d008480:	00000000 	nop
9d008484:	710b5820 	clz	t3,t0
9d008488:	012b4823 	subu	t1,t1,t3
9d00848c:	1000ffc3 	b	9d00839c <Clab2>
9d008490:	01684004 	sllv	t0,t0,t3

9d008494 <Czer>:
9d008494:	1000ffdb 	b	9d008404 <C999>
9d008498:	000a1025 	or	v0,zero,t2

9d00849c <i22>:
9d00849c:	01086021 	addu	t4,t0,t0
9d0084a0:	15800004 	bnez	t4,9d0084b4 <Cnan>
9d0084a4:	00000000 	nop

9d0084a8 <Cinf>:
9d0084a8:	3c017f80 	lui	at,0x7f80
9d0084ac:	1000ffd5 	b	9d008404 <C999>
9d0084b0:	01411025 	or	v0,t2,at

9d0084b4 <Cnan>:
9d0084b4:	1000ffd3 	b	9d008404 <C999>
9d0084b8:	3c02ffc0 	lui	v0,0xffc0

9d0084bc <Coveund>:
9d0084bc:	1ce0fffa 	bgtz	a3,9d0084a8 <Cinf>
9d0084c0:	00000000 	nop
9d0084c4:	240b0001 	li	t3,1
9d0084c8:	01675823 	subu	t3,t3,a3
9d0084cc:	2d610020 	sltiu	at,t3,32
9d0084d0:	1020fff0 	beqz	at,9d008494 <Czer>
9d0084d4:	00000000 	nop
9d0084d8:	240c0020 	li	t4,32
9d0084dc:	018b6023 	subu	t4,t4,t3
9d0084e0:	01863804 	sllv	a3,a2,t4
9d0084e4:	10e00002 	beqz	a3,9d0084f0 <i25>
9d0084e8:	01663006 	srlv	a2,a2,t3
9d0084ec:	34c60002 	ori	a2,a2,0x2

9d0084f0 <i25>:
9d0084f0:	24070000 	li	a3,0
9d0084f4:	24cc0080 	addiu	t4,a2,128
9d0084f8:	0581ffb7 	bgez	t4,9d0083d8 <Clab8>
9d0084fc:	00000000 	nop
9d008500:	1000ffb5 	b	9d0083d8 <Clab8>
9d008504:	24070001 	li	a3,1
9d008508:	00000000 	nop

Disassembly of section .text.__ldexp:

9d00850c <__ldexp>:
9d00850c:	7ca25500 	ext	v0,a1,0x14,0xb
9d008510:	2447ffff 	addiu	a3,v0,-1
9d008514:	2ce707fe 	sltiu	a3,a3,2046
9d008518:	00054fc2 	srl	t1,a1,0x1f
9d00851c:	10e00018 	beqz	a3,9d008580 <__ldexp+0x74>
9d008520:	7ca39800 	ext	v1,a1,0x0,0x14
9d008524:	3c050010 	lui	a1,0x10
9d008528:	2442fc01 	addiu	v0,v0,-1023
9d00852c:	00651825 	or	v1,v1,a1
9d008530:	00463021 	addu	a2,v0,a2
9d008534:	000340c0 	sll	t0,v1,0x3
9d008538:	00041742 	srl	v0,a0,0x1d
9d00853c:	24c703ff 	addiu	a3,a2,1023
9d008540:	00484025 	or	t0,v0,t0
9d008544:	000450c0 	sll	t2,a0,0x3
9d008548:	18e00015 	blez	a3,9d0085a0 <__ldexp+0x94>
9d00854c:	00092ac0 	sll	a1,t1,0xb
9d008550:	28e207ff 	slti	v0,a3,2047
9d008554:	10400031 	beqz	v0,9d00861c <__ldexp+0x110>
9d008558:	7c63e000 	ext	v1,v1,0x0,0x1d
9d00855c:	7c620500 	ext	v0,v1,0x14,0x1
9d008560:	50400004 	beqzl	v0,9d008574 <__ldexp+0x68>
9d008564:	00052d00 	sll	a1,a1,0x14
9d008568:	7c639800 	ext	v1,v1,0x0,0x14
9d00856c:	00a72825 	or	a1,a1,a3
9d008570:	00052d00 	sll	a1,a1,0x14
9d008574:	00801025 	move	v0,a0
9d008578:	03e00008 	jr	ra
9d00857c:	00a31825 	or	v1,a1,v1
9d008580:	14400005 	bnez	v0,9d008598 <__ldexp+0x8c>
9d008584:	00801025 	move	v0,a0
9d008588:	00641025 	or	v0,v1,a0
9d00858c:	14400029 	bnez	v0,9d008634 <__ldexp+0x128>
9d008590:	00000000 	nop
9d008594:	00801025 	move	v0,a0
9d008598:	03e00008 	jr	ra
9d00859c:	00a01825 	move	v1,a1
9d0085a0:	24030001 	li	v1,1
9d0085a4:	00673823 	subu	a3,v1,a3
9d0085a8:	28e20038 	slti	v0,a3,56
9d0085ac:	1040001f 	beqz	v0,9d00862c <__ldexp+0x120>
9d0085b0:	00002025 	move	a0,zero
9d0085b4:	00071827 	nor	v1,zero,a3
9d0085b8:	00081040 	sll	v0,t0,0x1
9d0085bc:	00621004 	sllv	v0,v0,v1
9d0085c0:	24c603fe 	addiu	a2,a2,1022
9d0085c4:	00ea1806 	srlv	v1,t2,a3
9d0085c8:	30e40020 	andi	a0,a3,0x20
9d0085cc:	00431825 	or	v1,v0,v1
9d0085d0:	00e83806 	srlv	a3,t0,a3
9d0085d4:	30c90020 	andi	t1,a2,0x20
9d0085d8:	00e4180b 	movn	v1,a3,a0
9d0085dc:	00ca1004 	sllv	v0,t2,a2
9d0085e0:	15200003 	bnez	t1,9d0085f0 <__ldexp+0xe4>
9d0085e4:	0004380b 	movn	a3,zero,a0
9d0085e8:	00c83004 	sllv	a2,t0,a2
9d0085ec:	00ca1025 	or	v0,a2,t2
9d0085f0:	0002202b 	sltu	a0,zero,v0
9d0085f4:	00832025 	or	a0,a0,v1
9d0085f8:	30820007 	andi	v0,a0,0x7
9d0085fc:	1440001e 	bnez	v0,9d008678 <__ldexp+0x16c>
9d008600:	7c8200c0 	ext	v0,a0,0x3,0x1
9d008604:	00071740 	sll	v0,a3,0x1d
9d008608:	000420c2 	srl	a0,a0,0x3
9d00860c:	000718c2 	srl	v1,a3,0x3
9d008610:	00442025 	or	a0,v0,a0
9d008614:	1000ffd1 	b	9d00855c <__ldexp+0x50>
9d008618:	24070001 	li	a3,1
9d00861c:	34a307ff 	ori	v1,a1,0x7ff
9d008620:	00031d00 	sll	v1,v1,0x14
9d008624:	03e00008 	jr	ra
9d008628:	00001025 	move	v0,zero
9d00862c:	1000ffd0 	b	9d008570 <__ldexp+0x64>
9d008630:	00001825 	move	v1,zero
9d008634:	14600003 	bnez	v1,9d008644 <__ldexp+0x138>
9d008638:	70621020 	clz	v0,v1
9d00863c:	70821020 	clz	v0,a0
9d008640:	24420020 	addiu	v0,v0,32
9d008644:	2442fff5 	addiu	v0,v0,-11
9d008648:	00023827 	nor	a3,zero,v0
9d00864c:	00042842 	srl	a1,a0,0x1
9d008650:	00e52806 	srlv	a1,a1,a3
9d008654:	00431804 	sllv	v1,v1,v0
9d008658:	30480020 	andi	t0,v0,0x20
9d00865c:	00442004 	sllv	a0,a0,v0
9d008660:	00a31825 	or	v1,a1,v1
9d008664:	2407fc02 	li	a3,-1022
9d008668:	0088180b 	movn	v1,a0,t0
9d00866c:	00e21023 	subu	v0,a3,v0
9d008670:	1000ffaf 	b	9d008530 <__ldexp+0x24>
9d008674:	0008200b 	movn	a0,zero,t0
9d008678:	24420003 	addiu	v0,v0,3
9d00867c:	00442021 	addu	a0,v0,a0
9d008680:	0082102b 	sltu	v0,a0,v0
9d008684:	00471821 	addu	v1,v0,a3
9d008688:	7c620600 	ext	v0,v1,0x18,0x1
9d00868c:	10400006 	beqz	v0,9d0086a8 <__ldexp+0x19c>
9d008690:	00031700 	sll	v0,v1,0x1c
9d008694:	00042102 	srl	a0,a0,0x4
9d008698:	00442025 	or	a0,v0,a0
9d00869c:	00031902 	srl	v1,v1,0x4
9d0086a0:	1000ffae 	b	9d00855c <__ldexp+0x50>
9d0086a4:	24070002 	li	a3,2
9d0086a8:	00031740 	sll	v0,v1,0x1d
9d0086ac:	000420c2 	srl	a0,a0,0x3
9d0086b0:	00442025 	or	a0,v0,a0
9d0086b4:	000318c2 	srl	v1,v1,0x3
9d0086b8:	1000ffa8 	b	9d00855c <__ldexp+0x50>
9d0086bc:	24070001 	li	a3,1

Disassembly of section .text:

9d0086c0 <NU32_Startup>:

// Perform startup routines:
//  Make NU32_LED1 and NU32_LED2 pins outputs (NU32_USER is by default an input)
//  Initialize the serial port - UART3 (no interrupt) 
//  Enable interrupts
void NU32_Startup() {
9d0086c0:	27bdfff8 	addiu	sp,sp,-8
9d0086c4:	afbf0004 	sw	ra,4(sp)
  // disable interrupts
  __builtin_disable_interrupts();
9d0086c8:	41626000 	di	v0
9d0086cc:	000000c0 	ehb
  // see Chapter 2 "CPU for Devices with M4K Core" of the PIC32 reference manual
  // most of the other bits have prescribed values
  // microchip does not provide a _CP0_SET_CONFIG macro, so we directly use
  // the compiler built-in command _mtc0
  // to disable cache, use 0xa4210582 
  __builtin_mtc0(_CP0_CONFIG, _CP0_CONFIG_SELECT, 0xa4210583); 
9d0086d0:	3c02a421 	lui	v0,0xa421
9d0086d4:	24420583 	addiu	v0,v0,1411
9d0086d8:	40828000 	mtc0	v0,c0_config
9d0086dc:	000000c0 	ehb
  
  // set the prefectch cache wait state to 2, as per the
  // electrical characteristics data sheet
  CHECONbits.PFMWS = 0x2;   
9d0086e0:	3c02bf88 	lui	v0,0xbf88
9d0086e4:	8c434000 	lw	v1,16384(v0)
9d0086e8:	24050002 	li	a1,2
9d0086ec:	7ca31004 	ins	v1,a1,0x0,0x3
9d0086f0:	ac434000 	sw	v1,16384(v0)

  //enable prefetch for cacheable and noncacheable memory
  CHECONbits.PREFEN = 0x3; 
9d0086f4:	8c434000 	lw	v1,16384(v0)
9d0086f8:	24040003 	li	a0,3
9d0086fc:	7c832904 	ins	v1,a0,0x4,0x2
9d008700:	ac434000 	sw	v1,16384(v0)

  // 0 data RAM access wait states
  BMXCONbits.BMXWSDRM = 0x0;
9d008704:	3c02bf88 	lui	v0,0xbf88
9d008708:	8c432000 	lw	v1,8192(v0)
9d00870c:	7c033184 	ins	v1,zero,0x6,0x1
9d008710:	ac432000 	sw	v1,8192(v0)
  
  // enable multi vector interrupts
  INTCONbits.MVEC = 0x1;
9d008714:	3c02bf88 	lui	v0,0xbf88
9d008718:	8c461000 	lw	a2,4096(v0)
9d00871c:	24030001 	li	v1,1
9d008720:	7c666304 	ins	a2,v1,0xc,0x1
9d008724:	ac461000 	sw	a2,4096(v0)

  // disable JTAG to get B10, B11, B12 and B13 back
  DDPCONbits.JTAGEN = 0;
9d008728:	3c02bf81 	lui	v0,0xbf81
9d00872c:	9046f200 	lbu	a2,-3584(v0)
9d008730:	7c0618c4 	ins	a2,zero,0x3,0x1
9d008734:	a046f200 	sb	a2,-3584(v0)

  TRISFCLR = 0x0003;  // Make F0 and F1 outputs (LED1 and LED2)
9d008738:	3c02bf88 	lui	v0,0xbf88
9d00873c:	ac446144 	sw	a0,24900(v0)
  NU32_LED1 = 1;      // LED1 is off
9d008740:	3c02bf88 	lui	v0,0xbf88
9d008744:	90446160 	lbu	a0,24928(v0)
9d008748:	7c640004 	ins	a0,v1,0x0,0x1
9d00874c:	a0446160 	sb	a0,24928(v0)
  NU32_LED2 = 0;      // LED2 is on
9d008750:	90446160 	lbu	a0,24928(v0)
9d008754:	7c040844 	ins	a0,zero,0x1,0x1
9d008758:	a0446160 	sb	a0,24928(v0)

  // turn on UART3 without an interrupt
  U3MODEbits.BRGH = 0; // set baud to NU32_DESIRED_BAUD
9d00875c:	3c02bf80 	lui	v0,0xbf80
9d008760:	94446400 	lhu	a0,25600(v0)
9d008764:	7c0418c4 	ins	a0,zero,0x3,0x1
9d008768:	a4446400 	sh	a0,25600(v0)
  U3BRG = ((NU32_SYS_FREQ / NU32_DESIRED_BAUD) / 16) - 1;
9d00876c:	3c04bf80 	lui	a0,0xbf80
9d008770:	24060014 	li	a2,20
9d008774:	ac866440 	sw	a2,25664(a0)

  // 8 bit, no parity bit, and 1 stop bit (8N1 setup)
  U3MODEbits.PDSEL = 0;
9d008778:	94446400 	lhu	a0,25600(v0)
9d00877c:	7c041044 	ins	a0,zero,0x1,0x2
9d008780:	a4446400 	sh	a0,25600(v0)
  U3MODEbits.STSEL = 0;
9d008784:	94446400 	lhu	a0,25600(v0)
9d008788:	7c040004 	ins	a0,zero,0x0,0x1
9d00878c:	a4446400 	sh	a0,25600(v0)

  // configure TX & RX pins as output & input pins
  U3STAbits.UTXEN = 1;
9d008790:	3c04bf80 	lui	a0,0xbf80
9d008794:	8c866410 	lw	a2,25616(a0)
9d008798:	7c665284 	ins	a2,v1,0xa,0x1
9d00879c:	ac866410 	sw	a2,25616(a0)
  U3STAbits.URXEN = 1;
9d0087a0:	8c866410 	lw	a2,25616(a0)
9d0087a4:	7c666304 	ins	a2,v1,0xc,0x1
9d0087a8:	ac866410 	sw	a2,25616(a0)
  // configure hardware flow control using RTS and CTS
  U3MODEbits.UEN = 2;
9d0087ac:	94446400 	lhu	a0,25600(v0)
9d0087b0:	7ca44a04 	ins	a0,a1,0x8,0x2
9d0087b4:	a4446400 	sh	a0,25600(v0)

  // enable the uart
  U3MODEbits.ON = 1;
9d0087b8:	94446400 	lhu	a0,25600(v0)
9d0087bc:	7c647bc4 	ins	a0,v1,0xf,0x1
9d0087c0:	a4446400 	sh	a0,25600(v0)

  __builtin_enable_interrupts();
9d0087c4:	41626020 	ei	v0
}
9d0087c8:	8fbf0004 	lw	ra,4(sp)
9d0087cc:	03e00008 	jr	ra
9d0087d0:	27bd0008 	addiu	sp,sp,8

9d0087d4 <NU32_ReadUART3>:
// Read from UART3
// block other functions until you get a '\r' or '\n'
// send the pointer to your char array and the number of elements in the array
void NU32_ReadUART3(char * message, int maxLength) {
  char data = 0;
  int complete = 0, num_bytes = 0;
9d0087d4:	00003025 	move	a2,zero
  // loop until you get a '\r' or '\n'
  while (!complete) {
    if (U3STAbits.URXDA) { // if data is available
9d0087d8:	3c03bf80 	lui	v1,0xbf80
      data = U3RXREG;      // read the data
9d0087dc:	3c09bf80 	lui	t1,0xbf80
      if ((data == '\n') || (data == '\r')) {
9d0087e0:	2408000a 	li	t0,10
9d0087e4:	240a000d 	li	t2,13
    if (U3STAbits.URXDA) { // if data is available
9d0087e8:	8c626410 	lw	v0,25616(v1)
9d0087ec:	30420001 	andi	v0,v0,0x1
9d0087f0:	1040fffd 	beqz	v0,9d0087e8 <NU32_ReadUART3+0x14>
9d0087f4:	00000000 	nop
      data = U3RXREG;      // read the data
9d0087f8:	8d226430 	lw	v0,25648(t1)
9d0087fc:	7c021420 	seb	v0,v0
      if ((data == '\n') || (data == '\r')) {
9d008800:	50480009 	beql	v0,t0,9d008828 <NU32_ReadUART3+0x54>
9d008804:	00862021 	addu	a0,a0,a2
9d008808:	104a0006 	beq	v0,t2,9d008824 <NU32_ReadUART3+0x50>
9d00880c:	00863821 	addu	a3,a0,a2
        complete = 1;
      } else {
        message[num_bytes] = data;
9d008810:	a0e20000 	sb	v0,0(a3)
        ++num_bytes;
9d008814:	24c60001 	addiu	a2,a2,1
        // roll over if the array is too small
        if (num_bytes >= maxLength) {
9d008818:	00c5102a 	slt	v0,a2,a1
9d00881c:	1000fff2 	b	9d0087e8 <NU32_ReadUART3+0x14>
9d008820:	0002300a 	movz	a2,zero,v0
        }
      }
    }
  }
  // end the string
  message[num_bytes] = '\0';
9d008824:	00862021 	addu	a0,a0,a2
}
9d008828:	03e00008 	jr	ra
9d00882c:	a0800000 	sb	zero,0(a0)

9d008830 <NU32_WriteUART3>:

// Write a character array using UART3
void NU32_WriteUART3(const char * string) {
  while (*string != '\0') {
9d008830:	80850000 	lb	a1,0(a0)
9d008834:	10a0000b 	beqz	a1,9d008864 <NU32_WriteUART3+0x34>
9d008838:	3c03bf80 	lui	v1,0xbf80
    while (U3STAbits.UTXBF) {
      ; // wait until tx buffer isn't full
    }
    U3TXREG = *string;
9d00883c:	3c06bf80 	lui	a2,0xbf80
    while (U3STAbits.UTXBF) {
9d008840:	8c626410 	lw	v0,25616(v1)
9d008844:	7c420240 	ext	v0,v0,0x9,0x1
9d008848:	1440fffd 	bnez	v0,9d008840 <NU32_WriteUART3+0x10>
9d00884c:	00000000 	nop
    U3TXREG = *string;
9d008850:	acc56420 	sw	a1,25632(a2)
    ++string;
9d008854:	24840001 	addiu	a0,a0,1
  while (*string != '\0') {
9d008858:	80850000 	lb	a1,0(a0)
9d00885c:	14a0fff8 	bnez	a1,9d008840 <NU32_WriteUART3+0x10>
9d008860:	00000000 	nop
  }
}
9d008864:	03e00008 	jr	ra
9d008868:	00000000 	nop

9d00886c <CurrentControl>:

#include "current.h"

//5KHz ISR to control current going to motor
void __ISR(_TIMER_3_VECTOR, IPL5SOFT) CurrentControl(void) {
9d00886c:	415de800 	rdpgpr	sp,sp
9d008870:	401a7000 	mfc0	k0,c0_epc
9d008874:	401b6000 	mfc0	k1,c0_status
9d008878:	27bdffd8 	addiu	sp,sp,-40
9d00887c:	afba0024 	sw	k0,36(sp)
9d008880:	401a6002 	mfc0	k0,c0_srsctl
9d008884:	afbb0020 	sw	k1,32(sp)
9d008888:	afba001c 	sw	k0,28(sp)
9d00888c:	7c1b7844 	ins	k1,zero,0x1,0xf
9d008890:	377b1400 	ori	k1,k1,0x1400
9d008894:	409b6000 	mtc0	k1,c0_status
9d008898:	afa5000c 	sw	a1,12(sp)
9d00889c:	afa40008 	sw	a0,8(sp)
9d0088a0:	afa30004 	sw	v1,4(sp)
9d0088a4:	afa20000 	sw	v0,0(sp)
9d0088a8:	00001012 	mflo	v0
9d0088ac:	afa20014 	sw	v0,20(sp)
9d0088b0:	00001810 	mfhi	v1
9d0088b4:	afa30010 	sw	v1,16(sp)
	//adcval = adc_sample_convert(ADC_PIN);
	
	//PI controller for current
	
 	//set OC3RS at 25% of PR at first, modify later
	OC3RS = 500;
9d0088b8:	3c02bf80 	lui	v0,0xbf80
9d0088bc:	240301f4 	li	v1,500
9d0088c0:	ac433420 	sw	v1,13344(v0)
	//invert directional output of motor
	//LATDINV = 0b1 << 4; //invert digital output at pin 4
	
	
	//set PWM and motor direction based on mode flag
	switch (mode) {
9d0088c4:	8f82804c 	lw	v0,-32692(gp)
9d0088c8:	1040001a 	beqz	v0,9d008934 <CurrentControl+0xc8>
9d0088cc:	24030001 	li	v1,1
9d0088d0:	1043001c 	beq	v0,v1,9d008944 <CurrentControl+0xd8>
9d0088d4:	8f828068 	lw	v0,-32664(gp)
		
	}
	
	
	//clear interrupt flag
	IFS0bits.T3IF = 0;
9d0088d8:	3c02bf88 	lui	v0,0xbf88
9d0088dc:	8c431030 	lw	v1,4144(v0)
9d0088e0:	7c036304 	ins	v1,zero,0xc,0x1
9d0088e4:	ac431030 	sw	v1,4144(v0)

9d0088e8:	8fa20014 	lw	v0,20(sp)
9d0088ec:	00400013 	mtlo	v0
9d0088f0:	8fa30010 	lw	v1,16(sp)
9d0088f4:	00600011 	mthi	v1
9d0088f8:	8fa5000c 	lw	a1,12(sp)
9d0088fc:	8fa40008 	lw	a0,8(sp)
9d008900:	8fa30004 	lw	v1,4(sp)
9d008904:	8fa20000 	lw	v0,0(sp)
9d008908:	41606000 	di
9d00890c:	000000c0 	ehb
9d008910:	8fba0024 	lw	k0,36(sp)
9d008914:	8fbb0020 	lw	k1,32(sp)
9d008918:	409a7000 	mtc0	k0,c0_epc
9d00891c:	8fba001c 	lw	k0,28(sp)
9d008920:	27bd0028 	addiu	sp,sp,40
9d008924:	409a6002 	mtc0	k0,c0_srsctl
9d008928:	41dde800 	wrpgpr	sp,sp
9d00892c:	409b6000 	mtc0	k1,c0_status
9d008930:	42000018 	eret
			OC3RS = 0;
9d008934:	3c02bf80 	lui	v0,0xbf80
9d008938:	ac403420 	sw	zero,13344(v0)
			break;
9d00893c:	1000ffe7 	b	9d0088dc <CurrentControl+0x70>
9d008940:	3c02bf88 	lui	v0,0xbf88
			if (client_input < 0) {
9d008944:	04400011 	bltz	v0,9d00898c <CurrentControl+0x120>
9d008948:	3c03bf88 	lui	v1,0xbf88
				LATDbits.LATD4 = 1;
9d00894c:	946460e0 	lhu	a0,24800(v1)
9d008950:	24050001 	li	a1,1
9d008954:	7ca42104 	ins	a0,a1,0x4,0x1
9d008958:	a46460e0 	sh	a0,24800(v1)
				OC3RS = (unsigned int) client_input * PR2/100;			
9d00895c:	3c03bf80 	lui	v1,0xbf80
9d008960:	8c630820 	lw	v1,2080(v1)
9d008964:	70431002 	mul	v0,v0,v1
9d008968:	3c0351eb 	lui	v1,0x51eb
9d00896c:	3463851f 	ori	v1,v1,0x851f
9d008970:	00430019 	multu	v0,v1
9d008974:	00001010 	mfhi	v0
9d008978:	00021142 	srl	v0,v0,0x5
9d00897c:	3c03bf80 	lui	v1,0xbf80
9d008980:	ac623420 	sw	v0,13344(v1)
	IFS0bits.T3IF = 0;
9d008984:	1000ffd5 	b	9d0088dc <CurrentControl+0x70>
9d008988:	3c02bf88 	lui	v0,0xbf88
				LATDbits.LATD4 = 0;
9d00898c:	946460e0 	lhu	a0,24800(v1)
9d008990:	7c042104 	ins	a0,zero,0x4,0x1
9d008994:	a46460e0 	sh	a0,24800(v1)
				OC3RS = (unsigned int) -client_input * PR2/100;			
9d008998:	3c03bf80 	lui	v1,0xbf80
9d00899c:	8c630820 	lw	v1,2080(v1)
9d0089a0:	00021023 	negu	v0,v0
9d0089a4:	70431002 	mul	v0,v0,v1
9d0089a8:	3c0351eb 	lui	v1,0x51eb
9d0089ac:	3463851f 	ori	v1,v1,0x851f
9d0089b0:	00430019 	multu	v0,v1
9d0089b4:	00001010 	mfhi	v0
9d0089b8:	00021142 	srl	v0,v0,0x5
9d0089bc:	3c03bf80 	lui	v1,0xbf80
9d0089c0:	ac623420 	sw	v0,13344(v1)
9d0089c4:	1000ffc5 	b	9d0088dc <CurrentControl+0x70>
9d0089c8:	3c02bf88 	lui	v0,0xbf88

Disassembly of section .text._sbrk_init:

9d0089cc <_sbrk_init>:
9d0089cc:	27bdffd8 	addiu	sp,sp,-40
9d0089d0:	afb40020 	sw	s4,32(sp)
9d0089d4:	3c14a000 	lui	s4,0xa000
9d0089d8:	8e820678 	lw	v0,1656(s4)
9d0089dc:	afbf0024 	sw	ra,36(sp)
9d0089e0:	afb3001c 	sw	s3,28(sp)
9d0089e4:	afb20018 	sw	s2,24(sp)
9d0089e8:	afb10014 	sw	s1,20(sp)
9d0089ec:	1440002e 	bnez	v0,9d008aa8 <_sbrk_init+0xdc>
9d0089f0:	afb00010 	sw	s0,16(sp)
9d0089f4:	3c12a000 	lui	s2,0xa000
9d0089f8:	8e510680 	lw	s1,1664(s2)
9d0089fc:	16200003 	bnez	s1,9d008a0c <_sbrk_init+0x40>
9d008a00:	3c13a000 	lui	s3,0xa000
9d008a04:	3c11a000 	lui	s1,0xa000
9d008a08:	263106b0 	addiu	s1,s1,1712
9d008a0c:	8e70067c 	lw	s0,1660(s3)
9d008a10:	16000006 	bnez	s0,9d008a2c <_sbrk_init+0x60>
9d008a14:	00111f82 	srl	v1,s1,0x1e
9d008a18:	3c10a000 	lui	s0,0xa000
9d008a1c:	3c020000 	lui	v0,0x0
9d008a20:	261006b0 	addiu	s0,s0,1712
9d008a24:	24420000 	addiu	v0,v0,0
9d008a28:	02028021 	addu	s0,s0,v0
9d008a2c:	24020002 	li	v0,2
9d008a30:	50620001 	beql	v1,v0,9d008a38 <_sbrk_init+0x6c>
9d008a34:	7e31e000 	ext	s1,s1,0x0,0x1d
9d008a38:	00101f82 	srl	v1,s0,0x1e
9d008a3c:	24020002 	li	v0,2
9d008a40:	50620001 	beql	v1,v0,9d008a48 <_sbrk_init+0x7c>
9d008a44:	7e10e000 	ext	s0,s0,0x0,0x1d
9d008a48:	0f4029da 	jal	9d00a768 <_stub_sbd_memlayout>
9d008a4c:	00000000 	nop
9d008a50:	8c430000 	lw	v1,0(v0)
9d008a54:	8c420004 	lw	v0,4(v0)
9d008a58:	0223202b 	sltu	a0,s1,v1
9d008a5c:	14800004 	bnez	a0,9d008a70 <_sbrk_init+0xa4>
9d008a60:	00621021 	addu	v0,v1,v0
9d008a64:	0222202b 	sltu	a0,s1,v0
9d008a68:	54800029 	bnezl	a0,9d008b10 <_sbrk_init+0x144>
9d008a6c:	0211182b 	sltu	v1,s0,s1
9d008a70:	3c04a000 	lui	a0,0xa000
9d008a74:	248400c0 	addiu	a0,a0,192
9d008a78:	7c84e000 	ext	a0,a0,0x0,0x1d
9d008a7c:	0064202b 	sltu	a0,v1,a0
9d008a80:	14800009 	bnez	a0,9d008aa8 <_sbrk_init+0xdc>
9d008a84:	0203202b 	sltu	a0,s0,v1
9d008a88:	14800005 	bnez	a0,9d008aa0 <_sbrk_init+0xd4>
9d008a8c:	0062202b 	sltu	a0,v1,v0
9d008a90:	0202202b 	sltu	a0,s0,v0
9d008a94:	5480000c 	bnezl	a0,9d008ac8 <_sbrk_init+0xfc>
9d008a98:	02001025 	move	v0,s0
9d008a9c:	0062202b 	sltu	a0,v1,v0
9d008aa0:	1480000a 	bnez	a0,9d008acc <_sbrk_init+0x100>
9d008aa4:	3c04a000 	lui	a0,0xa000
9d008aa8:	8fbf0024 	lw	ra,36(sp)
9d008aac:	8fb40020 	lw	s4,32(sp)
9d008ab0:	8fb3001c 	lw	s3,28(sp)
9d008ab4:	8fb20018 	lw	s2,24(sp)
9d008ab8:	8fb10014 	lw	s1,20(sp)
9d008abc:	8fb00010 	lw	s0,16(sp)
9d008ac0:	03e00008 	jr	ra
9d008ac4:	27bd0028 	addiu	sp,sp,40
9d008ac8:	3c04a000 	lui	a0,0xa000
9d008acc:	248400c0 	addiu	a0,a0,192
9d008ad0:	00042742 	srl	a0,a0,0x1d
9d008ad4:	24050005 	li	a1,5
9d008ad8:	14850009 	bne	a0,a1,9d008b00 <_sbrk_init+0x134>
9d008adc:	24050004 	li	a1,4
9d008ae0:	3c04a000 	lui	a0,0xa000
9d008ae4:	00641825 	or	v1,v1,a0
9d008ae8:	00441025 	or	v0,v0,a0
9d008aec:	ae430680 	sw	v1,1664(s2)
9d008af0:	ae62067c 	sw	v0,1660(s3)
9d008af4:	8e420680 	lw	v0,1664(s2)
9d008af8:	1000ffeb 	b	9d008aa8 <_sbrk_init+0xdc>
9d008afc:	ae820678 	sw	v0,1656(s4)
9d008b00:	5485fffc 	bnel	a0,a1,9d008af4 <_sbrk_init+0x128>
9d008b04:	ae420680 	sw	v0,1664(s2)
9d008b08:	1000fff6 	b	9d008ae4 <_sbrk_init+0x118>
9d008b0c:	3c048000 	lui	a0,0x8000
9d008b10:	1460ffed 	bnez	v1,9d008ac8 <_sbrk_init+0xfc>
9d008b14:	02201825 	move	v1,s1
9d008b18:	1000ffde 	b	9d008a94 <_sbrk_init+0xc8>
9d008b1c:	0202202b 	sltu	a0,s0,v0

Disassembly of section .text._mon_getc:

9d008b20 <_mon_getc>:
9d008b20:	3c02a000 	lui	v0,0xa000
9d008b24:	8c450004 	lw	a1,4(v0)
9d008b28:	14a00013 	bnez	a1,9d008b78 <_mon_getc+0x58>
9d008b2c:	3c02bf80 	lui	v0,0xbf80
9d008b30:	3c020000 	lui	v0,0x0
9d008b34:	27bdffe8 	addiu	sp,sp,-24
9d008b38:	24420000 	addiu	v0,v0,0
9d008b3c:	10400006 	beqz	v0,9d008b58 <_mon_getc+0x38>
9d008b40:	afbf0014 	sw	ra,20(sp)
9d008b44:	0c000000 	jal	90000000 <_bmxdudba_address+0x8ffe0000>
9d008b48:	00000000 	nop
9d008b4c:	8fbf0014 	lw	ra,20(sp)
9d008b50:	03e00008 	jr	ra
9d008b54:	27bd0018 	addiu	sp,sp,24
9d008b58:	3c020000 	lui	v0,0x0
9d008b5c:	24420000 	addiu	v0,v0,0
9d008b60:	50400027 	beqzl	v0,9d008c00 <_mon_getc+0xe0>
9d008b64:	3c02bf80 	lui	v0,0xbf80
9d008b68:	0c000000 	jal	90000000 <_bmxdudba_address+0x8ffe0000>
9d008b6c:	00000000 	nop
9d008b70:	1000fff7 	b	9d008b50 <_mon_getc+0x30>
9d008b74:	8fbf0014 	lw	ra,20(sp)
9d008b78:	24436010 	addiu	v1,v0,24592
9d008b7c:	10600018 	beqz	v1,9d008be0 <_mon_getc+0xc0>
9d008b80:	2402ffff 	li	v0,-1
9d008b84:	24020002 	li	v0,2
9d008b88:	10a20017 	beq	a1,v0,9d008be8 <_mon_getc+0xc8>
9d008b8c:	3c02bf80 	lui	v0,0xbf80
9d008b90:	3c02bf80 	lui	v0,0xbf80
9d008b94:	3c04bf80 	lui	a0,0xbf80
9d008b98:	8c456000 	lw	a1,24576(v0)
9d008b9c:	24846030 	addiu	a0,a0,24624
9d008ba0:	00601025 	move	v0,v1
9d008ba4:	30a58000 	andi	a1,a1,0x8000
9d008ba8:	14a00005 	bnez	a1,9d008bc0 <_mon_getc+0xa0>
9d008bac:	240300a1 	li	v1,161
9d008bb0:	3c03bf80 	lui	v1,0xbf80
9d008bb4:	34058000 	li	a1,0x8000
9d008bb8:	ac656008 	sw	a1,24584(v1)
9d008bbc:	240300a1 	li	v1,161
9d008bc0:	8c450000 	lw	a1,0(v0)
9d008bc4:	30a50001 	andi	a1,a1,0x1
9d008bc8:	14a00004 	bnez	a1,9d008bdc <_mon_getc+0xbc>
9d008bcc:	00000000 	nop
9d008bd0:	2463ffff 	addiu	v1,v1,-1
9d008bd4:	1460fffa 	bnez	v1,9d008bc0 <_mon_getc+0xa0>
9d008bd8:	00000000 	nop
9d008bdc:	8c820000 	lw	v0,0(a0)
9d008be0:	03e00008 	jr	ra
9d008be4:	00000000 	nop
9d008be8:	8c456800 	lw	a1,26624(v0)
9d008bec:	3c04bf80 	lui	a0,0xbf80
9d008bf0:	3c02bf80 	lui	v0,0xbf80
9d008bf4:	24846830 	addiu	a0,a0,26672
9d008bf8:	1000ffea 	b	9d008ba4 <_mon_getc+0x84>
9d008bfc:	24426810 	addiu	v0,v0,26640
9d008c00:	8c456000 	lw	a1,24576(v0)
9d008c04:	3c04bf80 	lui	a0,0xbf80
9d008c08:	3c02bf80 	lui	v0,0xbf80
9d008c0c:	30a58000 	andi	a1,a1,0x8000
9d008c10:	24846030 	addiu	a0,a0,24624
9d008c14:	14a00004 	bnez	a1,9d008c28 <_mon_getc+0x108>
9d008c18:	24426010 	addiu	v0,v0,24592
9d008c1c:	3c03bf80 	lui	v1,0xbf80
9d008c20:	34058000 	li	a1,0x8000
9d008c24:	ac656008 	sw	a1,24584(v1)
9d008c28:	240300a1 	li	v1,161
9d008c2c:	8c450000 	lw	a1,0(v0)
9d008c30:	30a50001 	andi	a1,a1,0x1
9d008c34:	14a00004 	bnez	a1,9d008c48 <_mon_getc+0x128>
9d008c38:	00000000 	nop
9d008c3c:	2463ffff 	addiu	v1,v1,-1
9d008c40:	1460fffa 	bnez	v1,9d008c2c <_mon_getc+0x10c>
9d008c44:	00000000 	nop
9d008c48:	8c820000 	lw	v0,0(a0)
9d008c4c:	1000ffc0 	b	9d008b50 <_mon_getc+0x30>
9d008c50:	8fbf0014 	lw	ra,20(sp)

Disassembly of section .text.dpcmp:

9d008c54 <__eqdf2>:
9d008c54:	2409fffe 00055040 00075840 01645825     ...$@P..@X..%Xd.
9d008c64:	01665825 014b5025 15400003 00000000     %Xf.%PK...@.....
9d008c74:	1000003c 24020000                       <......$

9d008c7c <i56>:
9d008c7c:	10800002 	beqz	a0,9d008c88 <i57>
9d008c80:	00054040 	sll	t0,a1,0x1
9d008c84:	25080001 	addiu	t0,t0,1

9d008c88 <i57>:
9d008c88:	3c01ffe0 	lui	at,0xffe0
9d008c8c:	34210001 	ori	at,at,0x1
9d008c90:	0101082b 	sltu	at,t0,at
9d008c94:	10200037 	beqz	at,9d008d74 <Lnan>
9d008c98:	00000000 	nop
9d008c9c:	10c00002 	beqz	a2,9d008ca8 <i58>
9d008ca0:	00074040 	sll	t0,a3,0x1
9d008ca4:	25080001 	addiu	t0,t0,1

9d008ca8 <i58>:
9d008ca8:	3c01ffe0 	lui	at,0xffe0
9d008cac:	34210001 	ori	at,at,0x1
9d008cb0:	0101082b 	sltu	at,t0,at
9d008cb4:	1020002f 	beqz	at,9d008d74 <Lnan>
9d008cb8:	00000000 	nop
9d008cbc:	04a10016 	bgez	a1,9d008d18 <i59>
9d008cc0:	00000000 	nop
9d008cc4:	04e00003 	bltz	a3,9d008cd4 <i60>
9d008cc8:	00000000 	nop
9d008ccc:	10000026 	b	9d008d68 <L999>
9d008cd0:	2402ffff 	li	v0,-1

9d008cd4 <i60>:
9d008cd4:	0086502b 	sltu	t2,a0,a2
9d008cd8:	00862023 	subu	a0,a0,a2
9d008cdc:	00aa582b 	sltu	t3,a1,t2
9d008ce0:	00aa2823 	subu	a1,a1,t2
9d008ce4:	00a7502b 	sltu	t2,a1,a3
9d008ce8:	014b5025 	or	t2,t2,t3
9d008cec:	11400003 	beqz	t2,9d008cfc <i61>
9d008cf0:	00a72823 	subu	a1,a1,a3
9d008cf4:	1000001c 	b	9d008d68 <L999>
9d008cf8:	24020001 	li	v0,1

9d008cfc <i61>:
9d008cfc:	00a45025 	or	t2,a1,a0
9d008d00:	11400003 	beqz	t2,9d008d10 <i62>
9d008d04:	00000000 	nop
9d008d08:	10000017 	b	9d008d68 <L999>
9d008d0c:	2402ffff 	li	v0,-1

9d008d10 <i62>:
9d008d10:	10000015 	b	9d008d68 <L999>
9d008d14:	24020000 	li	v0,0

9d008d18 <i59>:
9d008d18:	04e10003 	bgez	a3,9d008d28 <i63>
9d008d1c:	00000000 	nop
9d008d20:	10000011 	b	9d008d68 <L999>
9d008d24:	24020001 	li	v0,1

9d008d28 <i63>:
9d008d28:	0086502b 	sltu	t2,a0,a2
9d008d2c:	00862023 	subu	a0,a0,a2
9d008d30:	00aa582b 	sltu	t3,a1,t2
9d008d34:	00aa2823 	subu	a1,a1,t2
9d008d38:	00a7502b 	sltu	t2,a1,a3
9d008d3c:	014b5025 	or	t2,t2,t3
9d008d40:	11400003 	beqz	t2,9d008d50 <i64>
9d008d44:	00a72823 	subu	a1,a1,a3
9d008d48:	10000007 	b	9d008d68 <L999>
9d008d4c:	2402ffff 	li	v0,-1

9d008d50 <i64>:
9d008d50:	00a45025 	or	t2,a1,a0
9d008d54:	11400003 	beqz	t2,9d008d64 <i65>
9d008d58:	00000000 	nop
9d008d5c:	10000002 	b	9d008d68 <L999>
9d008d60:	24020001 	li	v0,1

9d008d64 <i65>:
9d008d64:	24020000 	li	v0,0

9d008d68 <L999>:
9d008d68:	03e00008 	jr	ra
9d008d6c:	00000000 	nop
9d008d70:	00000000 	nop

9d008d74 <Lnan>:
9d008d74:	1000fffc 	b	9d008d68 <L999>
9d008d78:	00091025 	or	v0,zero,t1
9d008d7c:	00000000 	nop

Disassembly of section .text._mon_putc:

9d008d80 <_mon_putc>:
9d008d80:	3c02a000 	lui	v0,0xa000
9d008d84:	8c430004 	lw	v1,4(v0)
9d008d88:	14600013 	bnez	v1,9d008dd8 <_mon_putc+0x58>
9d008d8c:	00803025 	move	a2,a0
9d008d90:	3c020000 	lui	v0,0x0
9d008d94:	27bdffe8 	addiu	sp,sp,-24
9d008d98:	24420000 	addiu	v0,v0,0
9d008d9c:	10400006 	beqz	v0,9d008db8 <_mon_putc+0x38>
9d008da0:	afbf0014 	sw	ra,20(sp)
9d008da4:	0c000000 	jal	90000000 <_bmxdudba_address+0x8ffe0000>
9d008da8:	00000000 	nop
9d008dac:	8fbf0014 	lw	ra,20(sp)
9d008db0:	03e00008 	jr	ra
9d008db4:	27bd0018 	addiu	sp,sp,24
9d008db8:	3c020000 	lui	v0,0x0
9d008dbc:	24420000 	addiu	v0,v0,0
9d008dc0:	10400025 	beqz	v0,9d008e58 <_mon_putc+0xd8>
9d008dc4:	3c05bf80 	lui	a1,0xbf80
9d008dc8:	0c000000 	jal	90000000 <_bmxdudba_address+0x8ffe0000>
9d008dcc:	00000000 	nop
9d008dd0:	1000fff7 	b	9d008db0 <_mon_putc+0x30>
9d008dd4:	8fbf0014 	lw	ra,20(sp)
9d008dd8:	3c02bf80 	lui	v0,0xbf80
9d008ddc:	24426010 	addiu	v0,v0,24592
9d008de0:	1040002f 	beqz	v0,9d008ea0 <_mon_putc+0x120>
9d008de4:	00000000 	nop
9d008de8:	24040001 	li	a0,1
9d008dec:	14640012 	bne	v1,a0,9d008e38 <_mon_putc+0xb8>
9d008df0:	3c03bf80 	lui	v1,0xbf80
9d008df4:	3c03bf80 	lui	v1,0xbf80
9d008df8:	3c04bf80 	lui	a0,0xbf80
9d008dfc:	3c05bf80 	lui	a1,0xbf80
9d008e00:	24636020 	addiu	v1,v1,24608
9d008e04:	24846018 	addiu	a0,a0,24600
9d008e08:	24a56008 	addiu	a1,a1,24584
9d008e0c:	34078000 	li	a3,0x8000
9d008e10:	aca70000 	sw	a3,0(a1)
9d008e14:	24050400 	li	a1,1024
9d008e18:	ac850000 	sw	a1,0(a0)
9d008e1c:	8c440000 	lw	a0,0(v0)
9d008e20:	30840100 	andi	a0,a0,0x100
9d008e24:	1080fffd 	beqz	a0,9d008e1c <_mon_putc+0x9c>
9d008e28:	00000000 	nop
9d008e2c:	ac660000 	sw	a2,0(v1)
9d008e30:	03e00008 	jr	ra
9d008e34:	00000000 	nop
9d008e38:	3c04bf80 	lui	a0,0xbf80
9d008e3c:	3c05bf80 	lui	a1,0xbf80
9d008e40:	3c02bf80 	lui	v0,0xbf80
9d008e44:	24636820 	addiu	v1,v1,26656
9d008e48:	24846818 	addiu	a0,a0,26648
9d008e4c:	24a56808 	addiu	a1,a1,26632
9d008e50:	1000ffee 	b	9d008e0c <_mon_putc+0x8c>
9d008e54:	24426810 	addiu	v0,v0,26640
9d008e58:	24a56808 	addiu	a1,a1,26632
9d008e5c:	3c04bf80 	lui	a0,0xbf80
9d008e60:	34078000 	li	a3,0x8000
9d008e64:	aca70000 	sw	a3,0(a1)
9d008e68:	3c03bf80 	lui	v1,0xbf80
9d008e6c:	24846818 	addiu	a0,a0,26648
9d008e70:	3c02bf80 	lui	v0,0xbf80
9d008e74:	24050400 	li	a1,1024
9d008e78:	24636820 	addiu	v1,v1,26656
9d008e7c:	24426810 	addiu	v0,v0,26640
9d008e80:	ac850000 	sw	a1,0(a0)
9d008e84:	8c440000 	lw	a0,0(v0)
9d008e88:	30840100 	andi	a0,a0,0x100
9d008e8c:	1080fffd 	beqz	a0,9d008e84 <_mon_putc+0x104>
9d008e90:	00000000 	nop
9d008e94:	ac660000 	sw	a2,0(v1)
9d008e98:	1000ffc5 	b	9d008db0 <_mon_putc+0x30>
9d008e9c:	8fbf0014 	lw	ra,20(sp)
9d008ea0:	03e00008 	jr	ra
9d008ea4:	00000000 	nop

Disassembly of section .text.libm:

9d008ea8 <dpmodf>:
9d008ea8:	00043825 00054025 3c018000 00a15824     %8..%@.....<$X..
9d008eb8:	00054840 00094d42 252cffff 2d8107fe     @H..BM....,%...-
9d008ec8:	10200037 00000000 240a0433 01495023     7. .....3..$#PI.
9d008ed8:	29410035 1020002f 00000000 29410020     5.A)/. ..... .A)
9d008ee8:	14200006 00000000 254affe0 24040000     .. .......J%...$
9d008ef8:	01452806 10000005 01452804              .(E......(E.

9d008f04 <i12>:
9d008f04:	19400003 	blez	t2,9d008f14 <e12>
9d008f08:	00000000 	nop
9d008f0c:	01442006 	srlv	a0,a0,t2
9d008f10:	01442004 	sllv	a0,a0,t2

9d008f14 <e12>:
9d008f14:	01054023 	subu	t0,t0,a1
9d008f18:	00e43823 	subu	a3,a3,a0
9d008f1c:	acc40000 	sw	a0,0(a2)
9d008f20:	acc50004 	sw	a1,4(a2)
9d008f24:	15000008 	bnez	t0,9d008f48 <L16>
9d008f28:	2529000b 	addiu	t1,t1,11
9d008f2c:	14e00003 	bnez	a3,9d008f3c <L17>
9d008f30:	00000000 	nop
9d008f34:	1000000d 	b	9d008f6c <L18>
9d008f38:	24090000 	li	t1,0

9d008f3c <L17>:
9d008f3c:	00e04025 	move	t0,a3
9d008f40:	24070000 	li	a3,0
9d008f44:	2529ffe0 	addiu	t1,t1,-32

9d008f48 <L16>:
9d008f48:	71042020 	clz	a0,t0
9d008f4c:	10800007 	beqz	a0,9d008f6c <L18>
9d008f50:	00000000 	nop
9d008f54:	01244823 	subu	t1,t1,a0
9d008f58:	00045022 	neg	t2,a0
9d008f5c:	01475006 	srlv	t2,a3,t2
9d008f60:	00873804 	sllv	a3,a3,a0
9d008f64:	00884004 	sllv	t0,t0,a0
9d008f68:	010a4025 	or	t0,t0,t2

9d008f6c <L18>:
9d008f6c:	000722c2 	srl	a0,a3,0xb
9d008f70:	00086540 	sll	t4,t0,0x15
9d008f74:	008c2025 	or	a0,a0,t4
9d008f78:	00082840 	sll	a1,t0,0x1
9d008f7c:	00052b02 	srl	a1,a1,0xc
9d008f80:	00096500 	sll	t4,t1,0x14
9d008f84:	00ac2825 	or	a1,a1,t4
9d008f88:	00ab2825 	or	a1,a1,t3

9d008f8c <Dret2>:
9d008f8c:	00041025 	or	v0,zero,a0
9d008f90:	00051825 	or	v1,zero,a1

9d008f94 <D999>:
9d008f94:	03e00008 	jr	ra
9d008f98:	00000000 	nop

9d008f9c <Dzer>:
9d008f9c:	accb0004 	sw	t3,4(a2)
9d008fa0:	1000fffa 	b	9d008f8c <Dret2>
9d008fa4:	acc00000 	sw	zero,0(a2)

9d008fa8 <Dspec>:
9d008fa8:	1120fffc 	beqz	t1,9d008f9c <Dzer>
9d008fac:	00000000 	nop
9d008fb0:	3c05fff8 	lui	a1,0xfff8
9d008fb4:	24040000 	li	a0,0
9d008fb8:	acc40000 	sw	a0,0(a2)
9d008fbc:	1000fff3 	b	9d008f8c <Dret2>
9d008fc0:	acc50004 	sw	a1,4(a2)
9d008fc4:	00000000 	nop

Disassembly of section .rodata:

9d008fc8 <_ctype>:
9d008fc8:	20202000 20202020 28282020 20282828     .         ((((( 
9d008fd8:	20202020 20202020 20202020 20202020                     
9d008fe8:	10108020 10101010 10101010 10101010      ...............
9d008ff8:	04040410 04040404 10040404 10101010     ................
9d009008:	41411010 41414141 01010101 01010101     ..AAAAAA........
9d009018:	01010101 01010101 01010101 10101010     ................
9d009028:	42421010 42424242 02020202 02020202     ..BBBBBB........
9d009038:	02020202 02020202 02020202 10101010     ................
9d009048:	00000020 00000000 00000000 00000000      ...............
	...
9d0090c8:	0c000000                                ....

Disassembly of section .text.malloc_trim:

9d0090cc <malloc_trim>:
9d0090cc:	27bdffe0 	addiu	sp,sp,-32
9d0090d0:	afb20018 	sw	s2,24(sp)
9d0090d4:	3c12a000 	lui	s2,0xa000
9d0090d8:	265200c8 	addiu	s2,s2,200
9d0090dc:	afb10014 	sw	s1,20(sp)
9d0090e0:	afb00010 	sw	s0,16(sp)
9d0090e4:	afbf001c 	sw	ra,28(sp)
9d0090e8:	0f402a95 	jal	9d00aa54 <getpagesize>
9d0090ec:	00808025 	move	s0,a0
9d0090f0:	8e430008 	lw	v1,8(s2)
9d0090f4:	8c710004 	lw	s1,4(v1)
9d0090f8:	7c110804 	ins	s1,zero,0x0,0x2
9d0090fc:	02308023 	subu	s0,s1,s0
9d009100:	2610ffef 	addiu	s0,s0,-17
9d009104:	02028021 	addu	s0,s0,v0
9d009108:	0202001b 	divu	zero,s0,v0
9d00910c:	004001f4 	teq	v0,zero,0x7
9d009110:	00008012 	mflo	s0
9d009114:	2610ffff 	addiu	s0,s0,-1
9d009118:	72028002 	mul	s0,s0,v0
9d00911c:	0202102a 	slt	v0,s0,v0
9d009120:	10400008 	beqz	v0,9d009144 <malloc_trim+0x78>
9d009124:	00000000 	nop
9d009128:	00001025 	move	v0,zero
9d00912c:	8fbf001c 	lw	ra,28(sp)
9d009130:	8fb20018 	lw	s2,24(sp)
9d009134:	8fb10014 	lw	s1,20(sp)
9d009138:	8fb00010 	lw	s0,16(sp)
9d00913c:	03e00008 	jr	ra
9d009140:	27bd0020 	addiu	sp,sp,32
9d009144:	0f40290e 	jal	9d00a438 <sbrk>
9d009148:	00002025 	move	a0,zero
9d00914c:	8e430008 	lw	v1,8(s2)
9d009150:	00711821 	addu	v1,v1,s1
9d009154:	1443fff5 	bne	v0,v1,9d00912c <malloc_trim+0x60>
9d009158:	00001025 	move	v0,zero
9d00915c:	0f40290e 	jal	9d00a438 <sbrk>
9d009160:	00102023 	negu	a0,s0
9d009164:	2403ffff 	li	v1,-1
9d009168:	54430010 	bnel	v0,v1,9d0091ac <malloc_trim+0xe0>
9d00916c:	8e420008 	lw	v0,8(s2)
9d009170:	0f40290e 	jal	9d00a438 <sbrk>
9d009174:	00002025 	move	a0,zero
9d009178:	8e440008 	lw	a0,8(s2)
9d00917c:	00441823 	subu	v1,v0,a0
9d009180:	28650010 	slti	a1,v1,16
9d009184:	54a0ffe9 	bnezl	a1,9d00912c <malloc_trim+0x60>
9d009188:	00001025 	move	v0,zero
9d00918c:	3c05a000 	lui	a1,0xa000
9d009190:	8ca500c0 	lw	a1,192(a1)
9d009194:	34630001 	ori	v1,v1,0x1
9d009198:	ac830004 	sw	v1,4(a0)
9d00919c:	00451023 	subu	v0,v0,a1
9d0091a0:	3c05a000 	lui	a1,0xa000
9d0091a4:	1000ffe0 	b	9d009128 <malloc_trim+0x5c>
9d0091a8:	aca2062c 	sw	v0,1580(a1)
9d0091ac:	02308823 	subu	s1,s1,s0
9d0091b0:	3c03a000 	lui	v1,0xa000
9d0091b4:	36310001 	ori	s1,s1,0x1
9d0091b8:	ac510004 	sw	s1,4(v0)
9d0091bc:	8c62062c 	lw	v0,1580(v1)
9d0091c0:	00508023 	subu	s0,v0,s0
9d0091c4:	ac70062c 	sw	s0,1580(v1)
9d0091c8:	1000ffd8 	b	9d00912c <malloc_trim+0x60>
9d0091cc:	24020001 	li	v0,1

Disassembly of section .text.__ldexpf:

9d0091d0 <__ldexpf>:
9d0091d0:	7c863dc0 	ext	a2,a0,0x17,0x8
9d0091d4:	24c7ffff 	addiu	a3,a2,-1
9d0091d8:	2ce700fe 	sltiu	a3,a3,254
9d0091dc:	000447c2 	srl	t0,a0,0x1f
9d0091e0:	10e0002a 	beqz	a3,9d00928c <__ldexpf+0xbc>
9d0091e4:	7c82b000 	ext	v0,a0,0x0,0x17
9d0091e8:	3c040080 	lui	a0,0x80
9d0091ec:	24c6ff81 	addiu	a2,a2,-127
9d0091f0:	00441025 	or	v0,v0,a0
9d0091f4:	00c52821 	addu	a1,a2,a1
9d0091f8:	24a6007f 	addiu	a2,a1,127
9d0091fc:	000238c0 	sll	a3,v0,0x3
9d009200:	1cc00017 	bgtz	a2,9d009260 <__ldexpf+0x90>
9d009204:	00081a00 	sll	v1,t0,0x8
9d009208:	24040001 	li	a0,1
9d00920c:	00863023 	subu	a2,a0,a2
9d009210:	28c4001b 	slti	a0,a2,27
9d009214:	1080001a 	beqz	a0,9d009280 <__ldexpf+0xb0>
9d009218:	00001025 	move	v0,zero
9d00921c:	24a4009e 	addiu	a0,a1,158
9d009220:	00872004 	sllv	a0,a3,a0
9d009224:	0004202b 	sltu	a0,zero,a0
9d009228:	00c73806 	srlv	a3,a3,a2
9d00922c:	00872025 	or	a0,a0,a3
9d009230:	30850007 	andi	a1,a0,0x7
9d009234:	10a00024 	beqz	a1,9d0092c8 <__ldexpf+0xf8>
9d009238:	000410c2 	srl	v0,a0,0x3
9d00923c:	24840003 	addiu	a0,a0,3
9d009240:	30420001 	andi	v0,v0,0x1
9d009244:	00821021 	addu	v0,a0,v0
9d009248:	000226c2 	srl	a0,v0,0x1b
9d00924c:	5080001e 	beqzl	a0,9d0092c8 <__ldexpf+0xf8>
9d009250:	000210c2 	srl	v0,v0,0x3
9d009254:	00021102 	srl	v0,v0,0x4
9d009258:	10000004 	b	9d00926c <__ldexpf+0x9c>
9d00925c:	24060002 	li	a2,2
9d009260:	28c500ff 	slti	a1,a2,255
9d009264:	10a00014 	beqz	a1,9d0092b8 <__ldexpf+0xe8>
9d009268:	7c42e000 	ext	v0,v0,0x0,0x1d
9d00926c:	7c4405c0 	ext	a0,v0,0x17,0x1
9d009270:	10800004 	beqz	a0,9d009284 <__ldexpf+0xb4>
9d009274:	000325c0 	sll	a0,v1,0x17
9d009278:	7c42b000 	ext	v0,v0,0x0,0x17
9d00927c:	00661825 	or	v1,v1,a2
9d009280:	000325c0 	sll	a0,v1,0x17
9d009284:	03e00008 	jr	ra
9d009288:	00821025 	or	v0,a0,v0
9d00928c:	14c00003 	bnez	a2,9d00929c <__ldexpf+0xcc>
9d009290:	00000000 	nop
9d009294:	14400003 	bnez	v0,9d0092a4 <__ldexpf+0xd4>
9d009298:	70463020 	clz	a2,v0
9d00929c:	03e00008 	jr	ra
9d0092a0:	00801025 	move	v0,a0
9d0092a4:	24c3fff8 	addiu	v1,a2,-8
9d0092a8:	2406ff82 	li	a2,-126
9d0092ac:	00621004 	sllv	v0,v0,v1
9d0092b0:	1000ffd0 	b	9d0091f4 <__ldexpf+0x24>
9d0092b4:	00c33023 	subu	a2,a2,v1
9d0092b8:	000817c0 	sll	v0,t0,0x1f
9d0092bc:	3c047f80 	lui	a0,0x7f80
9d0092c0:	03e00008 	jr	ra
9d0092c4:	00441025 	or	v0,v0,a0
9d0092c8:	1000ffe8 	b	9d00926c <__ldexpf+0x9c>
9d0092cc:	24060001 	li	a2,1

Disassembly of section .text.ungetc:

9d0092d0 <ungetc>:
9d0092d0:	27bdffe0 	addiu	sp,sp,-32
9d0092d4:	afb20018 	sw	s2,24(sp)
9d0092d8:	2412ffff 	li	s2,-1
9d0092dc:	afbf001c 	sw	ra,28(sp)
9d0092e0:	afb10014 	sw	s1,20(sp)
9d0092e4:	14920009 	bne	a0,s2,9d00930c <ungetc+0x3c>
9d0092e8:	afb00010 	sw	s0,16(sp)
9d0092ec:	2411ffff 	li	s1,-1
9d0092f0:	8fbf001c 	lw	ra,28(sp)
9d0092f4:	02201025 	move	v0,s1
9d0092f8:	8fb20018 	lw	s2,24(sp)
9d0092fc:	8fb10014 	lw	s1,20(sp)
9d009300:	8fb00010 	lw	s0,16(sp)
9d009304:	03e00008 	jr	ra
9d009308:	27bd0020 	addiu	sp,sp,32
9d00930c:	8ca20018 	lw	v0,24(a1)
9d009310:	00a08025 	move	s0,a1
9d009314:	00808825 	move	s1,a0
9d009318:	8c420010 	lw	v0,16(v0)
9d00931c:	24050002 	li	a1,2
9d009320:	0040f809 	jalr	v0
9d009324:	02002025 	move	a0,s0
9d009328:	5040fff1 	beqzl	v0,9d0092f0 <ungetc+0x20>
9d00932c:	2411ffff 	li	s1,-1
9d009330:	8e020000 	lw	v0,0(s0)
9d009334:	54520004 	bnel	v0,s2,9d009348 <ungetc+0x78>
9d009338:	8e03000c 	lw	v1,12(s0)
9d00933c:	0f4026b6 	jal	9d009ad8 <_i_init>
9d009340:	02002025 	move	a0,s0
9d009344:	8e03000c 	lw	v1,12(s0)
9d009348:	14600009 	bnez	v1,9d009370 <ungetc+0xa0>
9d00934c:	8e020004 	lw	v0,4(s0)
9d009350:	2403ffff 	li	v1,-1
9d009354:	5443ffe6 	bnel	v0,v1,9d0092f0 <ungetc+0x20>
9d009358:	2411ffff 	li	s1,-1
9d00935c:	ae110004 	sw	s1,4(s0)
9d009360:	96020010 	lhu	v0,16(s0)
9d009364:	3042ffdf 	andi	v0,v0,0xffdf
9d009368:	1000ffe1 	b	9d0092f0 <ungetc+0x20>
9d00936c:	a6020010 	sh	v0,16(s0)
9d009370:	8e040008 	lw	a0,8(s0)
9d009374:	0082202b 	sltu	a0,a0,v0
9d009378:	1480000b 	bnez	a0,9d0093a8 <ungetc+0xd8>
9d00937c:	8e030000 	lw	v1,0(s0)
9d009380:	1460ffdc 	bnez	v1,9d0092f4 <ungetc+0x24>
9d009384:	8fbf001c 	lw	ra,28(sp)
9d009388:	8e020004 	lw	v0,4(s0)
9d00938c:	24630001 	addiu	v1,v1,1
9d009390:	ae030000 	sw	v1,0(s0)
9d009394:	90430000 	lbu	v1,0(v0)
9d009398:	5471fff1 	bnel	v1,s1,9d009360 <ungetc+0x90>
9d00939c:	a0510000 	sb	s1,0(v0)
9d0093a0:	1000fff0 	b	9d009364 <ungetc+0x94>
9d0093a4:	96020010 	lhu	v0,16(s0)
9d0093a8:	2442ffff 	addiu	v0,v0,-1
9d0093ac:	1000fff6 	b	9d009388 <ungetc+0xb8>
9d0093b0:	ae020004 	sw	v0,4(s0)

Disassembly of section .text.general_exception:

9d0093b4 <_general_exception_context>:
9d0093b4:	27bdffa8 	addiu	sp,sp,-88
9d0093b8:	afa10004 	sw	at,4(sp)
9d0093bc:	afa20008 	sw	v0,8(sp)
9d0093c0:	afa3000c 	sw	v1,12(sp)
9d0093c4:	afa40010 	sw	a0,16(sp)
9d0093c8:	afa50014 	sw	a1,20(sp)
9d0093cc:	afa60018 	sw	a2,24(sp)
9d0093d0:	afa7001c 	sw	a3,28(sp)
9d0093d4:	afa80020 	sw	t0,32(sp)
9d0093d8:	afa90024 	sw	t1,36(sp)
9d0093dc:	afaa0028 	sw	t2,40(sp)
9d0093e0:	afab002c 	sw	t3,44(sp)
9d0093e4:	afac0030 	sw	t4,48(sp)
9d0093e8:	afad0034 	sw	t5,52(sp)
9d0093ec:	afae0038 	sw	t6,56(sp)
9d0093f0:	afaf003c 	sw	t7,60(sp)
9d0093f4:	afb80040 	sw	t8,64(sp)
9d0093f8:	afb90044 	sw	t9,68(sp)
9d0093fc:	afbf0048 	sw	ra,72(sp)
9d009400:	00004012 	mflo	t0
9d009404:	afa8004c 	sw	t0,76(sp)
9d009408:	00004010 	mfhi	t0
9d00940c:	afa80050 	sw	t0,80(sp)
9d009410:	3c1a9d01 	lui	k0,0x9d01
9d009414:	275aa4cc 	addiu	k0,k0,-23348
9d009418:	00000000 	nop
9d00941c:	40046800 	mfc0	a0,c0_cause
9d009420:	40056000 	mfc0	a1,c0_status
9d009424:	0340f809 	jalr	k0
9d009428:	00000000 	nop
9d00942c:	8fa80050 	lw	t0,80(sp)
9d009430:	01000011 	mthi	t0
9d009434:	8fa8004c 	lw	t0,76(sp)
9d009438:	01000013 	mtlo	t0
9d00943c:	8fa10004 	lw	at,4(sp)
9d009440:	8fa20008 	lw	v0,8(sp)
9d009444:	8fa3000c 	lw	v1,12(sp)
9d009448:	8fa40010 	lw	a0,16(sp)
9d00944c:	8fa50014 	lw	a1,20(sp)
9d009450:	8fa60018 	lw	a2,24(sp)
9d009454:	8fa7001c 	lw	a3,28(sp)
9d009458:	8fa80020 	lw	t0,32(sp)
9d00945c:	8fa90024 	lw	t1,36(sp)
9d009460:	8faa0028 	lw	t2,40(sp)
9d009464:	8fab002c 	lw	t3,44(sp)
9d009468:	8fac0030 	lw	t4,48(sp)
9d00946c:	8fad0034 	lw	t5,52(sp)
9d009470:	8fae0038 	lw	t6,56(sp)
9d009474:	8faf003c 	lw	t7,60(sp)
9d009478:	8fb80040 	lw	t8,64(sp)
9d00947c:	8fb90044 	lw	t9,68(sp)
9d009480:	8fbf0048 	lw	ra,72(sp)
9d009484:	27bd0058 	addiu	sp,sp,88
9d009488:	000000c0 	ehb
9d00948c:	42000018 	eret

Disassembly of section .text._outcnvrt:

9d009490 <_outcnvrt>:
9d009490:	27bdffd0 	addiu	sp,sp,-48
9d009494:	afb2001c 	sw	s2,28(sp)
9d009498:	97b20040 	lhu	s2,64(sp)
9d00949c:	afb50028 	sw	s5,40(sp)
9d0094a0:	afb40024 	sw	s4,36(sp)
9d0094a4:	32520008 	andi	s2,s2,0x8
9d0094a8:	afb30020 	sw	s3,32(sp)
9d0094ac:	afb10018 	sw	s1,24(sp)
9d0094b0:	afb00014 	sw	s0,20(sp)
9d0094b4:	afbf002c 	sw	ra,44(sp)
9d0094b8:	0080a025 	move	s4,a0
9d0094bc:	00a0a825 	move	s5,a1
9d0094c0:	00c08025 	move	s0,a2
9d0094c4:	00e08825 	move	s1,a3
9d0094c8:	12400012 	beqz	s2,9d009514 <_outcnvrt+0x84>
9d0094cc:	00c7982a 	slt	s3,a2,a3
9d0094d0:	02803025 	move	a2,s4
9d0094d4:	02002825 	move	a1,s0
9d0094d8:	0f402826 	jal	9d00a098 <__sputn>
9d0094dc:	02a02025 	move	a0,s5
9d0094e0:	2403ffff 	li	v1,-1
9d0094e4:	14430016 	bne	v0,v1,9d009540 <_outcnvrt+0xb0>
9d0094e8:	8fbf002c 	lw	ra,44(sp)
9d0094ec:	02201025 	move	v0,s1
9d0094f0:	0213100a 	movz	v0,s0,s3
9d0094f4:	8fb50028 	lw	s5,40(sp)
9d0094f8:	8fb40024 	lw	s4,36(sp)
9d0094fc:	8fb30020 	lw	s3,32(sp)
9d009500:	8fb2001c 	lw	s2,28(sp)
9d009504:	8fb10018 	lw	s1,24(sp)
9d009508:	8fb00014 	lw	s0,20(sp)
9d00950c:	03e00008 	jr	ra
9d009510:	27bd0030 	addiu	sp,sp,48
9d009514:	1260ffef 	beqz	s3,9d0094d4 <_outcnvrt+0x44>
9d009518:	02803025 	move	a2,s4
9d00951c:	3c069d01 	lui	a2,0x9d01
9d009520:	24c6a608 	addiu	a2,a2,-23032
9d009524:	0f40271f 	jal	9d009c7c <repl>
9d009528:	00f02823 	subu	a1,a3,s0
9d00952c:	2403ffff 	li	v1,-1
9d009530:	1443ffe8 	bne	v0,v1,9d0094d4 <_outcnvrt+0x44>
9d009534:	02803025 	move	a2,s4
9d009538:	1000ffec 	b	9d0094ec <_outcnvrt+0x5c>
9d00953c:	8fbf002c 	lw	ra,44(sp)
9d009540:	1240ffea 	beqz	s2,9d0094ec <_outcnvrt+0x5c>
9d009544:	00000000 	nop
9d009548:	1260ffe9 	beqz	s3,9d0094f0 <_outcnvrt+0x60>
9d00954c:	02201025 	move	v0,s1
9d009550:	3c069d01 	lui	a2,0x9d01
9d009554:	24c6a608 	addiu	a2,a2,-23032
9d009558:	02302823 	subu	a1,s1,s0
9d00955c:	0f40271f 	jal	9d009c7c <repl>
9d009560:	02802025 	move	a0,s4
9d009564:	1000ffe1 	b	9d0094ec <_outcnvrt+0x5c>
9d009568:	8fbf002c 	lw	ra,44(sp)

Disassembly of section .text._flsbuf_simple:

9d00956c <_flsbuf_simple>:
9d00956c:	8ca2000c 	lw	v0,12(a1)
9d009570:	27bdffd8 	addiu	sp,sp,-40
9d009574:	afb10020 	sw	s1,32(sp)
9d009578:	afb0001c 	sw	s0,28(sp)
9d00957c:	afbf0024 	sw	ra,36(sp)
9d009580:	00808825 	move	s1,a0
9d009584:	1440000c 	bnez	v0,9d0095b8 <_flsbuf_simple+0x4c>
9d009588:	00a08025 	move	s0,a1
9d00958c:	a3a40010 	sb	a0,16(sp)
9d009590:	24050001 	li	a1,1
9d009594:	0f4028f9 	jal	9d00a3e4 <_mon_write>
9d009598:	27a40010 	addiu	a0,sp,16
9d00959c:	ae000000 	sw	zero,0(s0)
9d0095a0:	8fbf0024 	lw	ra,36(sp)
9d0095a4:	02201025 	move	v0,s1
9d0095a8:	8fb0001c 	lw	s0,28(sp)
9d0095ac:	8fb10020 	lw	s1,32(sp)
9d0095b0:	03e00008 	jr	ra
9d0095b4:	27bd0028 	addiu	sp,sp,40
9d0095b8:	8ca20000 	lw	v0,0(a1)
9d0095bc:	2403ffff 	li	v1,-1
9d0095c0:	24420001 	addiu	v0,v0,1
9d0095c4:	1443000a 	bne	v0,v1,9d0095f0 <_flsbuf_simple+0x84>
9d0095c8:	aca20000 	sw	v0,0(a1)
9d0095cc:	8ca20008 	lw	v0,8(a1)
9d0095d0:	14400007 	bnez	v0,9d0095f0 <_flsbuf_simple+0x84>
9d0095d4:	00000000 	nop
9d0095d8:	94a20010 	lhu	v0,16(a1)
9d0095dc:	aca00004 	sw	zero,4(a1)
9d0095e0:	aca0000c 	sw	zero,12(a1)
9d0095e4:	34420010 	ori	v0,v0,0x10
9d0095e8:	aca00000 	sw	zero,0(a1)
9d0095ec:	a4a20010 	sh	v0,16(a1)
9d0095f0:	0f4027d4 	jal	9d009f50 <_fflush_simple>
9d0095f4:	02002025 	move	a0,s0
9d0095f8:	8e020000 	lw	v0,0(s0)
9d0095fc:	2442ffff 	addiu	v0,v0,-1
9d009600:	ae020000 	sw	v0,0(s0)
9d009604:	8e020004 	lw	v0,4(s0)
9d009608:	24430001 	addiu	v1,v0,1
9d00960c:	ae030004 	sw	v1,4(s0)
9d009610:	a0510000 	sb	s1,0(v0)
9d009614:	2402000a 	li	v0,10
9d009618:	1622ffe2 	bne	s1,v0,9d0095a4 <_flsbuf_simple+0x38>
9d00961c:	8fbf0024 	lw	ra,36(sp)
9d009620:	96020010 	lhu	v0,16(s0)
9d009624:	30420008 	andi	v0,v0,0x8
9d009628:	1040ffdf 	beqz	v0,9d0095a8 <_flsbuf_simple+0x3c>
9d00962c:	02201025 	move	v0,s1
9d009630:	0f4027d4 	jal	9d009f50 <_fflush_simple>
9d009634:	02002025 	move	a0,s0
9d009638:	1000ffda 	b	9d0095a4 <_flsbuf_simple+0x38>
9d00963c:	8fbf0024 	lw	ra,36(sp)

Disassembly of section .text.putget.2903:

9d009640 <putget.2903>:
9d009640:	8de20010 	lw	v0,16(t7)
9d009644:	8de50014 	lw	a1,20(t7)
9d009648:	27bdffe0 	addiu	sp,sp,-32
9d00964c:	afb10018 	sw	s1,24(sp)
9d009650:	afb00014 	sw	s0,20(sp)
9d009654:	afbf001c 	sw	ra,28(sp)
9d009658:	00808825 	move	s1,a0
9d00965c:	14a2000a 	bne	a1,v0,9d009688 <putget.2903+0x48>
9d009660:	01e08025 	move	s0,t7
9d009664:	8de4000c 	lw	a0,12(t7)
9d009668:	24a50080 	addiu	a1,a1,128
9d00966c:	1080001f 	beqz	a0,9d0096ec <putget.2903+0xac>
9d009670:	ade50010 	sw	a1,16(t7)
9d009674:	0f40110b 	jal	9d00442c <realloc>
9d009678:	00000000 	nop
9d00967c:	ae02000c 	sw	v0,12(s0)
9d009680:	8e02000c 	lw	v0,12(s0)
9d009684:	ae020008 	sw	v0,8(s0)
9d009688:	8e030014 	lw	v1,20(s0)
9d00968c:	24620001 	addiu	v0,v1,1
9d009690:	ae020014 	sw	v0,20(s0)
9d009694:	8e020008 	lw	v0,8(s0)
9d009698:	00431021 	addu	v0,v0,v1
9d00969c:	1220000d 	beqz	s1,9d0096d4 <putget.2903+0x94>
9d0096a0:	a0510000 	sb	s1,0(v0)
9d0096a4:	8e020004 	lw	v0,4(s0)
9d0096a8:	1040000a 	beqz	v0,9d0096d4 <putget.2903+0x94>
9d0096ac:	2411ffff 	li	s1,-1
9d0096b0:	0f4028b9 	jal	9d00a2e4 <gsgetc>
9d0096b4:	8e040000 	lw	a0,0(s0)
9d0096b8:	00408825 	move	s1,v0
9d0096bc:	2402ffff 	li	v0,-1
9d0096c0:	12220005 	beq	s1,v0,9d0096d8 <putget.2903+0x98>
9d0096c4:	8fbf001c 	lw	ra,28(sp)
9d0096c8:	8e020004 	lw	v0,4(s0)
9d0096cc:	2442ffff 	addiu	v0,v0,-1
9d0096d0:	ae020004 	sw	v0,4(s0)
9d0096d4:	8fbf001c 	lw	ra,28(sp)
9d0096d8:	02201025 	move	v0,s1
9d0096dc:	8fb00014 	lw	s0,20(sp)
9d0096e0:	8fb10018 	lw	s1,24(sp)
9d0096e4:	03e00008 	jr	ra
9d0096e8:	27bd0020 	addiu	sp,sp,32
9d0096ec:	0f400c86 	jal	9d003218 <malloc>
9d0096f0:	00a02025 	move	a0,a1
9d0096f4:	8e050008 	lw	a1,8(s0)
9d0096f8:	ae02000c 	sw	v0,12(s0)
9d0096fc:	24060080 	li	a2,128
9d009700:	0f4029cf 	jal	9d00a73c <memcpy>
9d009704:	00402025 	move	a0,v0
9d009708:	1000ffde 	b	9d009684 <putget.2903+0x44>
9d00970c:	8e02000c 	lw	v0,12(s0)

Disassembly of section .text._sbrk:

9d009710 <_sbrk>:
9d009710:	27bdffe0 	addiu	sp,sp,-32
9d009714:	afb00014 	sw	s0,20(sp)
9d009718:	3c10a000 	lui	s0,0xa000
9d00971c:	8e020678 	lw	v0,1656(s0)
9d009720:	afb10018 	sw	s1,24(sp)
9d009724:	afbf001c 	sw	ra,28(sp)
9d009728:	1440000f 	bnez	v0,9d009768 <_sbrk+0x58>
9d00972c:	00808825 	move	s1,a0
9d009730:	0f402273 	jal	9d0089cc <_sbrk_init>
9d009734:	00000000 	nop
9d009738:	8e020678 	lw	v0,1656(s0)
9d00973c:	1440000b 	bnez	v0,9d00976c <_sbrk+0x5c>
9d009740:	00000000 	nop
9d009744:	3c02a000 	lui	v0,0xa000
9d009748:	2403000c 	li	v1,12
9d00974c:	ac430038 	sw	v1,56(v0)
9d009750:	2402ffff 	li	v0,-1
9d009754:	8fbf001c 	lw	ra,28(sp)
9d009758:	8fb10018 	lw	s1,24(sp)
9d00975c:	8fb00014 	lw	s0,20(sp)
9d009760:	03e00008 	jr	ra
9d009764:	27bd0020 	addiu	sp,sp,32
9d009768:	8e020678 	lw	v0,1656(s0)
9d00976c:	1a20000a 	blez	s1,9d009798 <_sbrk+0x88>
9d009770:	00511821 	addu	v1,v0,s1
9d009774:	0062202b 	sltu	a0,v1,v0
9d009778:	1480fff2 	bnez	a0,9d009744 <_sbrk+0x34>
9d00977c:	3c04a000 	lui	a0,0xa000
9d009780:	8c84067c 	lw	a0,1660(a0)
9d009784:	0083202b 	sltu	a0,a0,v1
9d009788:	5480ffef 	bnezl	a0,9d009748 <_sbrk+0x38>
9d00978c:	3c02a000 	lui	v0,0xa000
9d009790:	1000fff0 	b	9d009754 <_sbrk+0x44>
9d009794:	ae030678 	sw	v1,1656(s0)
9d009798:	0043202b 	sltu	a0,v0,v1
9d00979c:	14800005 	bnez	a0,9d0097b4 <_sbrk+0xa4>
9d0097a0:	3c04a000 	lui	a0,0xa000
9d0097a4:	8c840680 	lw	a0,1664(a0)
9d0097a8:	0064202b 	sltu	a0,v1,a0
9d0097ac:	5080ffe9 	beqzl	a0,9d009754 <_sbrk+0x44>
9d0097b0:	ae030678 	sw	v1,1656(s0)
9d0097b4:	3c02a000 	lui	v0,0xa000
9d0097b8:	1000ffe4 	b	9d00974c <_sbrk+0x3c>
9d0097bc:	24030016 	li	v1,22

Disassembly of section .text.fptodp:

9d0097c0 <__extendsfdf2>:
9d0097c0:	00043dc2 30e700ff 3c018000 00813024     .=.....0...<$0..
9d0097d0:	24e9ffff 2d2100fe 1020000d 00000000     ...$..!-.. .....

9d0097e0 <Glab1>:
9d0097e0:	24e70380 	addiu	a3,a3,896
9d0097e4:	00044a40 	sll	t1,a0,0x9
9d0097e8:	00094b02 	srl	t1,t1,0xc
9d0097ec:	00c93025 	or	a2,a2,t1
9d0097f0:	00042f40 	sll	a1,a0,0x1d

9d0097f4 <Gret>:
9d0097f4:	00074d00 	sll	t1,a3,0x14
9d0097f8:	00c93025 	or	a2,a2,t1
9d0097fc:	00051025 	or	v0,zero,a1
9d009800:	00061825 	or	v1,zero,a2

9d009804 <G999>:
9d009804:	03e00008 	jr	ra
9d009808:	00000000 	nop
9d00980c:	00000000 	nop

9d009810 <Gspec>:
9d009810:	24050000 	li	a1,0
9d009814:	00842021 	addu	a0,a0,a0
9d009818:	1080fff6 	beqz	a0,9d0097f4 <Gret>
9d00981c:	00000000 	nop
9d009820:	14e00009 	bnez	a3,9d009848 <i42>
9d009824:	00000000 	nop

9d009828 <b43>:
9d009828:	24e7ffff 	addiu	a3,a3,-1
9d00982c:	00842021 	addu	a0,a0,a0
9d009830:	3c010080 	lui	at,0x80
9d009834:	0081082b 	sltu	at,a0,at
9d009838:	1420fffb 	bnez	at,9d009828 <b43>
9d00983c:	00000000 	nop
9d009840:	1000ffe7 	b	9d0097e0 <Glab1>
9d009844:	00000000 	nop

9d009848 <i42>:
9d009848:	240707ff 	li	a3,2047
9d00984c:	3c01ff00 	lui	at,0xff00
9d009850:	34210001 	ori	at,at,0x1
9d009854:	0081082b 	sltu	at,a0,at
9d009858:	1420ffe6 	bnez	at,9d0097f4 <Gret>
9d00985c:	00000000 	nop
9d009860:	1000ffe4 	b	9d0097f4 <Gret>
9d009864:	3c06fff8 	lui	a2,0xfff8
9d009868:	00000000 	nop

Disassembly of section .text._o_init:

9d00986c <_o_init>:
9d00986c:	3c02a000 	lui	v0,0xa000
9d009870:	8c430000 	lw	v1,0(v0)
9d009874:	3c029d01 	lui	v0,0x9d01
9d009878:	27bdffe8 	addiu	sp,sp,-24
9d00987c:	2442a6d8 	addiu	v0,v0,-22824
9d009880:	afb00010 	sw	s0,16(sp)
9d009884:	afbf0014 	sw	ra,20(sp)
9d009888:	ac620034 	sw	v0,52(v1)
9d00988c:	8c820008 	lw	v0,8(a0)
9d009890:	14400003 	bnez	v0,9d0098a0 <_o_init+0x34>
9d009894:	00808025 	move	s0,a0
9d009898:	0f4028e4 	jal	9d00a390 <_bufalloc>
9d00989c:	00000000 	nop
9d0098a0:	8e02000c 	lw	v0,12(s0)
9d0098a4:	50400004 	beqzl	v0,9d0098b8 <_o_init+0x4c>
9d0098a8:	ae020000 	sw	v0,0(s0)
9d0098ac:	8e030008 	lw	v1,8(s0)
9d0098b0:	ae030004 	sw	v1,4(s0)
9d0098b4:	ae020000 	sw	v0,0(s0)
9d0098b8:	96020010 	lhu	v0,16(s0)
9d0098bc:	34430002 	ori	v1,v0,0x2
9d0098c0:	a6030010 	sh	v1,16(s0)
9d0098c4:	30431000 	andi	v1,v0,0x1000
9d0098c8:	1060000e 	beqz	v1,9d009904 <_o_init+0x98>
9d0098cc:	8fbf0014 	lw	ra,20(sp)
9d0098d0:	30420008 	andi	v0,v0,0x8
9d0098d4:	50400008 	beqzl	v0,9d0098f8 <_o_init+0x8c>
9d0098d8:	96020010 	lhu	v0,16(s0)
9d0098dc:	0f402a99 	jal	9d00aa64 <isatty>
9d0098e0:	86040012 	lh	a0,18(s0)
9d0098e4:	14400004 	bnez	v0,9d0098f8 <_o_init+0x8c>
9d0098e8:	96020010 	lhu	v0,16(s0)
9d0098ec:	3042fff7 	andi	v0,v0,0xfff7
9d0098f0:	a6020010 	sh	v0,16(s0)
9d0098f4:	96020010 	lhu	v0,16(s0)
9d0098f8:	3042efff 	andi	v0,v0,0xefff
9d0098fc:	a6020010 	sh	v0,16(s0)
9d009900:	8fbf0014 	lw	ra,20(sp)
9d009904:	8fb00010 	lw	s0,16(sp)
9d009908:	03e00008 	jr	ra
9d00990c:	27bd0018 	addiu	sp,sp,24

Disassembly of section .text.fputc:

9d009910 <fputc>:
9d009910:	8ca20018 	lw	v0,24(a1)
9d009914:	27bdffe0 	addiu	sp,sp,-32
9d009918:	afb00014 	sw	s0,20(sp)
9d00991c:	8c420010 	lw	v0,16(v0)
9d009920:	00a08025 	move	s0,a1
9d009924:	afb10018 	sw	s1,24(sp)
9d009928:	afbf001c 	sw	ra,28(sp)
9d00992c:	00808825 	move	s1,a0
9d009930:	24050001 	li	a1,1
9d009934:	0040f809 	jalr	v0
9d009938:	02002025 	move	a0,s0
9d00993c:	50400012 	beqzl	v0,9d009988 <fputc+0x78>
9d009940:	2411ffff 	li	s1,-1
9d009944:	8e020000 	lw	v0,0(s0)
9d009948:	2442ffff 	addiu	v0,v0,-1
9d00994c:	04400008 	bltz	v0,9d009970 <fputc+0x60>
9d009950:	ae020000 	sw	v0,0(s0)
9d009954:	96020010 	lhu	v0,16(s0)
9d009958:	30420008 	andi	v0,v0,0x8
9d00995c:	50400010 	beqzl	v0,9d0099a0 <fputc+0x90>
9d009960:	8e020004 	lw	v0,4(s0)
9d009964:	2402000a 	li	v0,10
9d009968:	5622000d 	bnel	s1,v0,9d0099a0 <fputc+0x90>
9d00996c:	8e020004 	lw	v0,4(s0)
9d009970:	8e020018 	lw	v0,24(s0)
9d009974:	02202025 	move	a0,s1
9d009978:	8c420004 	lw	v0,4(v0)
9d00997c:	0040f809 	jalr	v0
9d009980:	02002825 	move	a1,s0
9d009984:	00408825 	move	s1,v0
9d009988:	8fbf001c 	lw	ra,28(sp)
9d00998c:	02201025 	move	v0,s1
9d009990:	8fb00014 	lw	s0,20(sp)
9d009994:	8fb10018 	lw	s1,24(sp)
9d009998:	03e00008 	jr	ra
9d00999c:	27bd0020 	addiu	sp,sp,32
9d0099a0:	24430001 	addiu	v1,v0,1
9d0099a4:	ae030004 	sw	v1,4(s0)
9d0099a8:	1000fff7 	b	9d009988 <fputc+0x78>
9d0099ac:	a0510000 	sb	s1,0(v0)

Disassembly of section .text._fullexit:

9d0099b0 <_fullexit>:
9d0099b0:	27bdffe0 	addiu	sp,sp,-32
9d0099b4:	afb00010 	sw	s0,16(sp)
9d0099b8:	3c10a000 	lui	s0,0xa000
9d0099bc:	afb20018 	sw	s2,24(sp)
9d0099c0:	afb10014 	sw	s1,20(sp)
9d0099c4:	00809025 	move	s2,a0
9d0099c8:	3c11a000 	lui	s1,0xa000
9d0099cc:	afbf001c 	sw	ra,28(sp)
9d0099d0:	0f402a6f 	jal	9d00a9bc <_weak_pthread_mutex_lock>
9d0099d4:	26040684 	addiu	a0,s0,1668
9d0099d8:	8e220000 	lw	v0,0(s1)
9d0099dc:	24030001 	li	v1,1
9d0099e0:	26040684 	addiu	a0,s0,1668
9d0099e4:	0f402a73 	jal	9d00a9cc <_weak_pthread_mutex_unlock>
9d0099e8:	ac430038 	sw	v1,56(v0)
9d0099ec:	8e220000 	lw	v0,0(s1)
9d0099f0:	8c500010 	lw	s0,16(v0)
9d0099f4:	56000010 	bnezl	s0,9d009a38 <_fullexit+0x88>
9d0099f8:	8e020004 	lw	v0,4(s0)
9d0099fc:	8e220000 	lw	v0,0(s1)
9d009a00:	8c420034 	lw	v0,52(v0)
9d009a04:	10400003 	beqz	v0,9d009a14 <_fullexit+0x64>
9d009a08:	00000000 	nop
9d009a0c:	0040f809 	jalr	v0
9d009a10:	00000000 	nop
9d009a14:	0f402a97 	jal	9d00aa5c <_exit>
9d009a18:	02402025 	move	a0,s2
9d009a1c:	24420001 	addiu	v0,v0,1
9d009a20:	00021080 	sll	v0,v0,0x2
9d009a24:	02021021 	addu	v0,s0,v0
9d009a28:	8c420000 	lw	v0,0(v0)
9d009a2c:	0040f809 	jalr	v0
9d009a30:	ae030004 	sw	v1,4(s0)
9d009a34:	8e020004 	lw	v0,4(s0)
9d009a38:	1c40fff8 	bgtz	v0,9d009a1c <_fullexit+0x6c>
9d009a3c:	2443ffff 	addiu	v1,v0,-1
9d009a40:	1000ffec 	b	9d0099f4 <_fullexit+0x44>
9d009a44:	8e100000 	lw	s0,0(s0)

Disassembly of section .text.strchr:

9d009a48 <strchr>:
9d009a48:	30820003 	andi	v0,a0,0x3
9d009a4c:	10400009 	beqz	v0,9d009a74 <strchr+0x2c>
9d009a50:	30a900ff 	andi	t1,a1,0xff
9d009a54:	00801025 	move	v0,a0
9d009a58:	90430000 	lbu	v1,0(v0)
9d009a5c:	1069001c 	beq	v1,t1,9d009ad0 <strchr+0x88>
9d009a60:	00000000 	nop
9d009a64:	5060001a 	beqzl	v1,9d009ad0 <strchr+0x88>
9d009a68:	00001025 	move	v0,zero
9d009a6c:	1000fffa 	b	9d009a58 <strchr+0x10>
9d009a70:	24420001 	addiu	v0,v0,1
9d009a74:	30a500ff 	andi	a1,a1,0xff
9d009a78:	00051200 	sll	v0,a1,0x8
9d009a7c:	00452825 	or	a1,v0,a1
9d009a80:	00051400 	sll	v0,a1,0x10
9d009a84:	3c07fefe 	lui	a3,0xfefe
9d009a88:	3c088080 	lui	t0,0x8080
9d009a8c:	00452825 	or	a1,v0,a1
9d009a90:	34e7feff 	ori	a3,a3,0xfeff
9d009a94:	35088080 	ori	t0,t0,0x8080
9d009a98:	8c830000 	lw	v1,0(a0)
9d009a9c:	00653026 	xor	a2,v1,a1
9d009aa0:	00671021 	addu	v0,v1,a3
9d009aa4:	00031827 	nor	v1,zero,v1
9d009aa8:	00431024 	and	v0,v0,v1
9d009aac:	00c71821 	addu	v1,a2,a3
9d009ab0:	00063027 	nor	a2,zero,a2
9d009ab4:	00663024 	and	a2,v1,a2
9d009ab8:	00461025 	or	v0,v0,a2
9d009abc:	00481024 	and	v0,v0,t0
9d009ac0:	1440ffe5 	bnez	v0,9d009a58 <strchr+0x10>
9d009ac4:	00801025 	move	v0,a0
9d009ac8:	1000fff3 	b	9d009a98 <strchr+0x50>
9d009acc:	24840004 	addiu	a0,a0,4
9d009ad0:	03e00008 	jr	ra
9d009ad4:	00000000 	nop

Disassembly of section .text._i_init:

9d009ad8 <_i_init>:
9d009ad8:	8c820008 	lw	v0,8(a0)
9d009adc:	27bdffe8 	addiu	sp,sp,-24
9d009ae0:	afb00010 	sw	s0,16(sp)
9d009ae4:	afbf0014 	sw	ra,20(sp)
9d009ae8:	14400003 	bnez	v0,9d009af8 <_i_init+0x20>
9d009aec:	00808025 	move	s0,a0
9d009af0:	0f4028e4 	jal	9d00a390 <_bufalloc>
9d009af4:	00000000 	nop
9d009af8:	8e02000c 	lw	v0,12(s0)
9d009afc:	54400002 	bnezl	v0,9d009b08 <_i_init+0x30>
9d009b00:	8e020008 	lw	v0,8(s0)
9d009b04:	2402ffff 	li	v0,-1
9d009b08:	ae020004 	sw	v0,4(s0)
9d009b0c:	96020010 	lhu	v0,16(s0)
9d009b10:	ae000000 	sw	zero,0(s0)
9d009b14:	34430001 	ori	v1,v0,0x1
9d009b18:	a6030010 	sh	v1,16(s0)
9d009b1c:	30431000 	andi	v1,v0,0x1000
9d009b20:	1060000e 	beqz	v1,9d009b5c <_i_init+0x84>
9d009b24:	8fbf0014 	lw	ra,20(sp)
9d009b28:	30420008 	andi	v0,v0,0x8
9d009b2c:	50400008 	beqzl	v0,9d009b50 <_i_init+0x78>
9d009b30:	96020010 	lhu	v0,16(s0)
9d009b34:	0f402a99 	jal	9d00aa64 <isatty>
9d009b38:	86040012 	lh	a0,18(s0)
9d009b3c:	14400004 	bnez	v0,9d009b50 <_i_init+0x78>
9d009b40:	96020010 	lhu	v0,16(s0)
9d009b44:	3042fff7 	andi	v0,v0,0xfff7
9d009b48:	a6020010 	sh	v0,16(s0)
9d009b4c:	96020010 	lhu	v0,16(s0)
9d009b50:	3042efff 	andi	v0,v0,0xefff
9d009b54:	a6020010 	sh	v0,16(s0)
9d009b58:	8fbf0014 	lw	ra,20(sp)
9d009b5c:	8fb00010 	lw	s0,16(sp)
9d009b60:	03e00008 	jr	ra
9d009b64:	27bd0018 	addiu	sp,sp,24

Disassembly of section .text.dptoli:

9d009b68 <__fixdfsi>:
9d009b68:	00053ac0 00045542 00ea3825 3c018000     .:..BU..%8.....<
9d009b78:	00e13825 00055040 000a5542 2406041e     %8..@P..BU.....$
9d009b88:	00ca3023 18c0000c 00000000 2cc10020     #0.......... ..,
9d009b98:	14200002 00000000 34070000              .. ........4

9d009ba4 <L42>:
9d009ba4:	04a10002 	bgez	a1,9d009bb0 <i50>
9d009ba8:	00c73806 	srlv	a3,a3,a2
9d009bac:	00073823 	negu	a3,a3

9d009bb0 <i50>:
9d009bb0:	00071025 	or	v0,zero,a3

9d009bb4 <I999>:
9d009bb4:	03e00008 	jr	ra
9d009bb8:	00000000 	nop
9d009bbc:	00000000 	nop

9d009bc0 <Inaninf>:
9d009bc0:	10800002 	beqz	a0,9d009bcc <i51>
9d009bc4:	00000000 	nop
9d009bc8:	34a50001 	ori	a1,a1,0x1

9d009bcc <i51>:
9d009bcc:	3c017ff0 	lui	at,0x7ff0
9d009bd0:	34210001 	ori	at,at,0x1
9d009bd4:	00a1082b 	sltu	at,a1,at
9d009bd8:	14200003 	bnez	at,9d009be8 <i52>
9d009bdc:	00000000 	nop
9d009be0:	1000fff4 	b	9d009bb4 <I999>
9d009be4:	3c028000 	lui	v0,0x8000

9d009be8 <i52>:
9d009be8:	3c027fff 	lui	v0,0x7fff
9d009bec:	1000fff1 	b	9d009bb4 <I999>
9d009bf0:	3442ffff 	ori	v0,v0,0xffff
9d009bf4:	00000000 	nop

Disassembly of section .text:

9d009bf8 <__pic32_data_init>:
9d009bf8:	03e01825 	move	v1,ra

9d009bfc <_dinit_init>:
9d009bfc:	3c089d00 	lui	t0,0x9d00
9d009c00:	250838e8 	addiu	t0,t0,14568
9d009c04:	8d090000 	lw	t1,0(t0)
9d009c08:	11200018 	beqz	t1,9d009c6c <_dinit_end+0x18>
9d009c0c:	25080004 	addiu	t0,t0,4
9d009c10:	8d0a0000 	lw	t2,0(t0)
9d009c14:	25080004 	addiu	t0,t0,4
9d009c18:	8d0b0000 	lw	t3,0(t0)
9d009c1c:	11600009 	beqz	t3,9d009c44 <_dinit_clear>
9d009c20:	25080004 	addiu	t0,t0,4

9d009c24 <_dinit_copy>:
9d009c24:	910c0000 	lbu	t4,0(t0)
9d009c28:	254affff 	addiu	t2,t2,-1
9d009c2c:	25080001 	addiu	t0,t0,1
9d009c30:	a12c0000 	sb	t4,0(t1)
9d009c34:	1540fffb 	bnez	t2,9d009c24 <_dinit_copy>
9d009c38:	25290001 	addiu	t1,t1,1
9d009c3c:	10000005 	b	9d009c54 <_dinit_end>
9d009c40:	00000000 	nop

9d009c44 <_dinit_clear>:
9d009c44:	a1200000 	sb	zero,0(t1)
9d009c48:	254affff 	addiu	t2,t2,-1
9d009c4c:	1540fffd 	bnez	t2,9d009c44 <_dinit_clear>
9d009c50:	25290001 	addiu	t1,t1,1

9d009c54 <_dinit_end>:
9d009c54:	25080003 	addiu	t0,t0,3
9d009c58:	240afffc 	li	t2,-4
9d009c5c:	01484024 	and	t0,t2,t0
9d009c60:	8d090000 	lw	t1,0(t0)
9d009c64:	1520ffe7 	bnez	t1,9d009c04 <_dinit_init+0x8>
9d009c68:	00000000 	nop
9d009c6c:	0060f825 	move	ra,v1
9d009c70:	03e00008 	jr	ra
9d009c74:	00000000 	nop
9d009c78:	00000000 	nop

Disassembly of section .text.repl:

9d009c7c <repl>:
9d009c7c:	27bdffd8 	addiu	sp,sp,-40
9d009c80:	afb40020 	sw	s4,32(sp)
9d009c84:	afb3001c 	sw	s3,28(sp)
9d009c88:	afb20018 	sw	s2,24(sp)
9d009c8c:	afb10014 	sw	s1,20(sp)
9d009c90:	afb00010 	sw	s0,16(sp)
9d009c94:	afbf0024 	sw	ra,36(sp)
9d009c98:	00808825 	move	s1,a0
9d009c9c:	00a08025 	move	s0,a1
9d009ca0:	00c09025 	move	s2,a2
9d009ca4:	24130020 	li	s3,32
9d009ca8:	2414ffff 	li	s4,-1
9d009cac:	2e050021 	sltiu	a1,s0,33
9d009cb0:	02601025 	move	v0,s3
9d009cb4:	0205100b 	movn	v0,s0,a1
9d009cb8:	00402825 	move	a1,v0
9d009cbc:	02203025 	move	a2,s1
9d009cc0:	02402025 	move	a0,s2
9d009cc4:	0f402826 	jal	9d00a098 <__sputn>
9d009cc8:	02028023 	subu	s0,s0,v0
9d009ccc:	10540005 	beq	v0,s4,9d009ce4 <repl+0x68>
9d009cd0:	8fbf0024 	lw	ra,36(sp)
9d009cd4:	1600fff6 	bnez	s0,9d009cb0 <repl+0x34>
9d009cd8:	2e050021 	sltiu	a1,s0,33
9d009cdc:	00001025 	move	v0,zero
9d009ce0:	8fbf0024 	lw	ra,36(sp)
9d009ce4:	8fb40020 	lw	s4,32(sp)
9d009ce8:	8fb3001c 	lw	s3,28(sp)
9d009cec:	8fb20018 	lw	s2,24(sp)
9d009cf0:	8fb10014 	lw	s1,20(sp)
9d009cf4:	8fb00010 	lw	s0,16(sp)
9d009cf8:	03e00008 	jr	ra
9d009cfc:	27bd0028 	addiu	sp,sp,40

Disassembly of section .text:

9d009d00 <PositionControl>:

#include "posn.h"

//200Hz ISR to control torque/motor commands
void __ISR(_TIMER_4_VECTOR, IPL4SOFT) PositionControl(void) {
9d009d00:	415de800 	rdpgpr	sp,sp
9d009d04:	401a7000 	mfc0	k0,c0_epc
9d009d08:	401b6000 	mfc0	k1,c0_status
9d009d0c:	27bdffe8 	addiu	sp,sp,-24
9d009d10:	afba0014 	sw	k0,20(sp)
9d009d14:	401a6002 	mfc0	k0,c0_srsctl
9d009d18:	afbb0010 	sw	k1,16(sp)
9d009d1c:	afba000c 	sw	k0,12(sp)
9d009d20:	7c1b7844 	ins	k1,zero,0x1,0xf
9d009d24:	377b1000 	ori	k1,k1,0x1000
9d009d28:	409b6000 	mtc0	k1,c0_status
9d009d2c:	afa30004 	sw	v1,4(sp)
9d009d30:	afa20000 	sw	v0,0(sp)
	//takes position data from the encoder via SPI



	//clear interrupt flag
	IFS0bits.T4IF = 0;
9d009d34:	3c02bf88 	lui	v0,0xbf88
9d009d38:	8c431030 	lw	v1,4144(v0)
9d009d3c:	7c038404 	ins	v1,zero,0x10,0x1
9d009d40:	ac431030 	sw	v1,4144(v0)

9d009d44:	8fa30004 	lw	v1,4(sp)
9d009d48:	8fa20000 	lw	v0,0(sp)
9d009d4c:	41606000 	di
9d009d50:	000000c0 	ehb
9d009d54:	8fba0014 	lw	k0,20(sp)
9d009d58:	8fbb0010 	lw	k1,16(sp)
9d009d5c:	409a7000 	mtc0	k0,c0_epc
9d009d60:	8fba000c 	lw	k0,12(sp)
9d009d64:	27bd0018 	addiu	sp,sp,24
9d009d68:	409a6002 	mtc0	k0,c0_srsctl
9d009d6c:	41dde800 	wrpgpr	sp,sp
9d009d70:	409b6000 	mtc0	k1,c0_status
9d009d74:	42000018 	eret

Disassembly of section .text._eat_white:

9d009d78 <_eat_white>:
9d009d78:	27bdffe0 	addiu	sp,sp,-32
9d009d7c:	afb10014 	sw	s1,20(sp)
9d009d80:	3c119d01 	lui	s1,0x9d01
9d009d84:	afb20018 	sw	s2,24(sp)
9d009d88:	afb00010 	sw	s0,16(sp)
9d009d8c:	afbf001c 	sw	ra,28(sp)
9d009d90:	00808025 	move	s0,a0
9d009d94:	2412ffff 	li	s2,-1
9d009d98:	26318fc9 	addiu	s1,s1,-28727
9d009d9c:	0f4028b9 	jal	9d00a2e4 <gsgetc>
9d009da0:	02002025 	move	a0,s0
9d009da4:	10520005 	beq	v0,s2,9d009dbc <_eat_white+0x44>
9d009da8:	00511821 	addu	v1,v0,s1
9d009dac:	80630000 	lb	v1,0(v1)
9d009db0:	30630088 	andi	v1,v1,0x88
9d009db4:	1460fff9 	bnez	v1,9d009d9c <_eat_white+0x24>
9d009db8:	00000000 	nop
9d009dbc:	8e030010 	lw	v1,16(s0)
9d009dc0:	8fbf001c 	lw	ra,28(sp)
9d009dc4:	ae020004 	sw	v0,4(s0)
9d009dc8:	24420001 	addiu	v0,v0,1
9d009dcc:	2463ffff 	addiu	v1,v1,-1
9d009dd0:	2c420001 	sltiu	v0,v0,1
9d009dd4:	ae030010 	sw	v1,16(s0)
9d009dd8:	00021023 	negu	v0,v0
9d009ddc:	8fb20018 	lw	s2,24(sp)
9d009de0:	8fb10014 	lw	s1,20(sp)
9d009de4:	8fb00010 	lw	s0,16(sp)
9d009de8:	03e00008 	jr	ra
9d009dec:	27bd0020 	addiu	sp,sp,32

Disassembly of section .text.litodp:

9d009df0 <__floatsidf>:
9d009df0:	24050000 00054825 00053825 00043025     ...$%H..%8..%0..
9d009e00:	10c0000c 00000000 04c10006 00000000     ................
9d009e10:	3c098000 0005502b 00052823 00063023     ...<+P..#(..#0..
9d009e20:	00ca3023                                #0..

9d009e24 <i40>:
9d009e24:	2407041e 	li	a3,1054
9d009e28:	70c84020 	clz	t0,a2
9d009e2c:	00e83823 	subu	a3,a3,t0
9d009e30:	01063004 	sllv	a2,a2,t0

9d009e34 <i39>:
9d009e34:	000542c2 	srl	t0,a1,0xb
9d009e38:	00065540 	sll	t2,a2,0x15
9d009e3c:	010a4025 	or	t0,t0,t2
9d009e40:	00065040 	sll	t2,a2,0x1
9d009e44:	000a5302 	srl	t2,t2,0xc
9d009e48:	012a4825 	or	t1,t1,t2
9d009e4c:	00075500 	sll	t2,a3,0x14
9d009e50:	012a4825 	or	t1,t1,t2
9d009e54:	00081025 	or	v0,zero,t0
9d009e58:	00091825 	or	v1,zero,t1

9d009e5c <E999>:
9d009e5c:	03e00008 	jr	ra
9d009e60:	00000000 	nop
9d009e64:	00000000 	nop

Disassembly of section .text._fwrite_simple:

9d009e68 <_fwrite_simple>:
9d009e68:	27bdffe0 	addiu	sp,sp,-32
9d009e6c:	afb10014 	sw	s1,20(sp)
9d009e70:	70c58802 	mul	s1,a2,a1
9d009e74:	afbf001c 	sw	ra,28(sp)
9d009e78:	afb20018 	sw	s2,24(sp)
9d009e7c:	12200007 	beqz	s1,9d009e9c <_fwrite_simple+0x34>
9d009e80:	afb00010 	sw	s0,16(sp)
9d009e84:	94e20010 	lhu	v0,16(a3)
9d009e88:	30420001 	andi	v0,v0,0x1
9d009e8c:	10400005 	beqz	v0,9d009ea4 <_fwrite_simple+0x3c>
9d009e90:	3c02a000 	lui	v0,0xa000
9d009e94:	24030009 	li	v1,9
9d009e98:	ac430038 	sw	v1,56(v0)
9d009e9c:	10000008 	b	9d009ec0 <_fwrite_simple+0x58>
9d009ea0:	00008025 	move	s0,zero
9d009ea4:	00809025 	move	s2,a0
9d009ea8:	00e02025 	move	a0,a3
9d009eac:	0f4027d4 	jal	9d009f50 <_fflush_simple>
9d009eb0:	00c08025 	move	s0,a2
9d009eb4:	02202825 	move	a1,s1
9d009eb8:	0f4028f9 	jal	9d00a3e4 <_mon_write>
9d009ebc:	02402025 	move	a0,s2
9d009ec0:	8fbf001c 	lw	ra,28(sp)
9d009ec4:	02001025 	move	v0,s0
9d009ec8:	8fb20018 	lw	s2,24(sp)
9d009ecc:	8fb10014 	lw	s1,20(sp)
9d009ed0:	8fb00010 	lw	s0,16(sp)
9d009ed4:	03e00008 	jr	ra
9d009ed8:	27bd0020 	addiu	sp,sp,32

Disassembly of section .text.fgetc:

9d009edc <fgetc>:
9d009edc:	8c820018 	lw	v0,24(a0)
9d009ee0:	27bdffe8 	addiu	sp,sp,-24
9d009ee4:	afb00010 	sw	s0,16(sp)
9d009ee8:	8c420010 	lw	v0,16(v0)
9d009eec:	afbf0014 	sw	ra,20(sp)
9d009ef0:	24050002 	li	a1,2
9d009ef4:	0040f809 	jalr	v0
9d009ef8:	00808025 	move	s0,a0
9d009efc:	10400009 	beqz	v0,9d009f24 <fgetc+0x48>
9d009f00:	2403ffff 	li	v1,-1
9d009f04:	8e020000 	lw	v0,0(s0)
9d009f08:	2442ffff 	addiu	v0,v0,-1
9d009f0c:	0440000a 	bltz	v0,9d009f38 <fgetc+0x5c>
9d009f10:	ae020000 	sw	v0,0(s0)
9d009f14:	8e020004 	lw	v0,4(s0)
9d009f18:	24430001 	addiu	v1,v0,1
9d009f1c:	ae030004 	sw	v1,4(s0)
9d009f20:	90430000 	lbu	v1,0(v0)
9d009f24:	8fbf0014 	lw	ra,20(sp)
9d009f28:	00601025 	move	v0,v1
9d009f2c:	8fb00010 	lw	s0,16(sp)
9d009f30:	03e00008 	jr	ra
9d009f34:	27bd0018 	addiu	sp,sp,24
9d009f38:	8e020018 	lw	v0,24(s0)
9d009f3c:	8c420000 	lw	v0,0(v0)
9d009f40:	0040f809 	jalr	v0
9d009f44:	02002025 	move	a0,s0
9d009f48:	1000fff6 	b	9d009f24 <fgetc+0x48>
9d009f4c:	00401825 	move	v1,v0

Disassembly of section .text._fflush_simple:

9d009f50 <_fflush_simple>:
9d009f50:	94820010 	lhu	v0,16(a0)
9d009f54:	30420002 	andi	v0,v0,0x2
9d009f58:	10400016 	beqz	v0,9d009fb4 <_fflush_simple+0x64>
9d009f5c:	2402ffff 	li	v0,-1
9d009f60:	8c820000 	lw	v0,0(a0)
9d009f64:	04400014 	bltz	v0,9d009fb8 <_fflush_simple+0x68>
9d009f68:	00000000 	nop
9d009f6c:	8c85000c 	lw	a1,12(a0)
9d009f70:	27bdffe8 	addiu	sp,sp,-24
9d009f74:	afb00010 	sw	s0,16(sp)
9d009f78:	afbf0014 	sw	ra,20(sp)
9d009f7c:	10450004 	beq	v0,a1,9d009f90 <_fflush_simple+0x40>
9d009f80:	00808025 	move	s0,a0
9d009f84:	8c840008 	lw	a0,8(a0)
9d009f88:	0f4028f9 	jal	9d00a3e4 <_mon_write>
9d009f8c:	00a22823 	subu	a1,a1,v0
9d009f90:	8e020008 	lw	v0,8(s0)
9d009f94:	8fbf0014 	lw	ra,20(sp)
9d009f98:	ae020004 	sw	v0,4(s0)
9d009f9c:	8e02000c 	lw	v0,12(s0)
9d009fa0:	ae020000 	sw	v0,0(s0)
9d009fa4:	00001025 	move	v0,zero
9d009fa8:	8fb00010 	lw	s0,16(sp)
9d009fac:	03e00008 	jr	ra
9d009fb0:	27bd0018 	addiu	sp,sp,24
9d009fb4:	ac820004 	sw	v0,4(a0)
9d009fb8:	03e00008 	jr	ra
9d009fbc:	00001025 	move	v0,zero

Disassembly of section .text._sscanf_cdfFnopuxX:

9d009fc0 <_sscanf_cdfFnopuxX>:
9d009fc0:	3c02ffff 	lui	v0,0xffff
9d009fc4:	27bdffc8 	addiu	sp,sp,-56
9d009fc8:	24420081 	addiu	v0,v0,129
9d009fcc:	afbf0034 	sw	ra,52(sp)
9d009fd0:	afb00030 	sw	s0,48(sp)
9d009fd4:	afa5003c 	sw	a1,60(sp)
9d009fd8:	00808025 	move	s0,a0
9d009fdc:	afa60040 	sw	a2,64(sp)
9d009fe0:	afa70044 	sw	a3,68(sp)
9d009fe4:	0f4028a2 	jal	9d00a288 <strlen>
9d009fe8:	afa20020 	sw	v0,32(sp)
9d009fec:	8fa5003c 	lw	a1,60(sp)
9d009ff0:	afa20010 	sw	v0,16(sp)
9d009ff4:	afa2001c 	sw	v0,28(sp)
9d009ff8:	3c029d01 	lui	v0,0x9d01
9d009ffc:	27a60040 	addiu	a2,sp,64
9d00a000:	2442a94c 	addiu	v0,v0,-22196
9d00a004:	27a40010 	addiu	a0,sp,16
9d00a008:	afb00018 	sw	s0,24(sp)
9d00a00c:	afb00014 	sw	s0,20(sp)
9d00a010:	afa20028 	sw	v0,40(sp)
9d00a014:	0f4007ec 	jal	9d001fb0 <do_scan>
9d00a018:	afa6002c 	sw	a2,44(sp)
9d00a01c:	8fbf0034 	lw	ra,52(sp)
9d00a020:	8fb00030 	lw	s0,48(sp)
9d00a024:	03e00008 	jr	ra
9d00a028:	27bd0038 	addiu	sp,sp,56

Disassembly of section .text._sscanf_cdnopuxX:

9d00a02c <.text._sscanf_cdnopuxX>:
9d00a02c:	3c02ffff 	lui	v0,0xffff
9d00a030:	27bdffc8 	addiu	sp,sp,-56
9d00a034:	24420081 	addiu	v0,v0,129
9d00a038:	afbf0034 	sw	ra,52(sp)
9d00a03c:	afb00030 	sw	s0,48(sp)
9d00a040:	afa5003c 	sw	a1,60(sp)
9d00a044:	00808025 	move	s0,a0
9d00a048:	afa60040 	sw	a2,64(sp)
9d00a04c:	afa70044 	sw	a3,68(sp)
9d00a050:	0f4028a2 	jal	9d00a288 <strlen>
9d00a054:	afa20020 	sw	v0,32(sp)
9d00a058:	8fa5003c 	lw	a1,60(sp)
9d00a05c:	afa20010 	sw	v0,16(sp)
9d00a060:	afa2001c 	sw	v0,28(sp)
9d00a064:	3c029d01 	lui	v0,0x9d01
9d00a068:	27a60040 	addiu	a2,sp,64
9d00a06c:	2442a94c 	addiu	v0,v0,-22196
9d00a070:	27a40010 	addiu	a0,sp,16
9d00a074:	afb00018 	sw	s0,24(sp)
9d00a078:	afb00014 	sw	s0,20(sp)
9d00a07c:	afa20028 	sw	v0,40(sp)
9d00a080:	0f4007ec 	jal	9d001fb0 <do_scan>
9d00a084:	afa6002c 	sw	a2,44(sp)
9d00a088:	8fbf0034 	lw	ra,52(sp)
9d00a08c:	8fb00030 	lw	s0,48(sp)
9d00a090:	03e00008 	jr	ra
9d00a094:	27bd0038 	addiu	sp,sp,56

Disassembly of section .text.__sputn:

9d00a098 <__sputn>:
9d00a098:	27bdffd8 	addiu	sp,sp,-40
9d00a09c:	afb30020 	sw	s3,32(sp)
9d00a0a0:	afb2001c 	sw	s2,28(sp)
9d00a0a4:	afb10018 	sw	s1,24(sp)
9d00a0a8:	afb00014 	sw	s0,20(sp)
9d00a0ac:	afbf0024 	sw	ra,36(sp)
9d00a0b0:	00808025 	move	s0,a0
9d00a0b4:	00c09025 	move	s2,a2
9d00a0b8:	00858821 	addu	s1,a0,a1
9d00a0bc:	2413ffff 	li	s3,-1
9d00a0c0:	16110003 	bne	s0,s1,9d00a0d0 <__sputn+0x38>
9d00a0c4:	26100001 	addiu	s0,s0,1
9d00a0c8:	10000006 	b	9d00a0e4 <__sputn+0x4c>
9d00a0cc:	00001025 	move	v0,zero
9d00a0d0:	8204ffff 	lb	a0,-1(s0)
9d00a0d4:	0f402644 	jal	9d009910 <fputc>
9d00a0d8:	02402825 	move	a1,s2
9d00a0dc:	1453fff8 	bne	v0,s3,9d00a0c0 <__sputn+0x28>
9d00a0e0:	00000000 	nop
9d00a0e4:	8fbf0024 	lw	ra,36(sp)
9d00a0e8:	8fb30020 	lw	s3,32(sp)
9d00a0ec:	8fb2001c 	lw	s2,28(sp)
9d00a0f0:	8fb10018 	lw	s1,24(sp)
9d00a0f4:	8fb00014 	lw	s0,20(sp)
9d00a0f8:	03e00008 	jr	ra
9d00a0fc:	27bd0028 	addiu	sp,sp,40

Disassembly of section .text.memmove:

9d00a100 <memmove>:
9d00a100:	0085182b 	sltu	v1,a0,a1
9d00a104:	14600005 	bnez	v1,9d00a11c <memmove+0x1c>
9d00a108:	00801025 	move	v0,a0
9d00a10c:	00a61821 	addu	v1,a1,a2
9d00a110:	0083182b 	sltu	v1,a0,v1
9d00a114:	14600008 	bnez	v1,9d00a138 <memmove+0x38>
9d00a118:	24c7ffff 	addiu	a3,a2,-1
9d00a11c:	27bdffe8 	addiu	sp,sp,-24
9d00a120:	afbf0014 	sw	ra,20(sp)
9d00a124:	0f4029cf 	jal	9d00a73c <memcpy>
9d00a128:	00402025 	move	a0,v0
9d00a12c:	8fbf0014 	lw	ra,20(sp)
9d00a130:	03e00008 	jr	ra
9d00a134:	27bd0018 	addiu	sp,sp,24
9d00a138:	00001825 	move	v1,zero
9d00a13c:	00063023 	negu	a2,a2
9d00a140:	14c30003 	bne	a2,v1,9d00a150 <memmove+0x50>
9d00a144:	00e32021 	addu	a0,a3,v1
9d00a148:	03e00008 	jr	ra
9d00a14c:	00000000 	nop
9d00a150:	00a44021 	addu	t0,a1,a0
9d00a154:	91080000 	lbu	t0,0(t0)
9d00a158:	00442021 	addu	a0,v0,a0
9d00a15c:	2463ffff 	addiu	v1,v1,-1
9d00a160:	1000fff7 	b	9d00a140 <memmove+0x40>
9d00a164:	a0880000 	sb	t0,0(a0)

Disassembly of section .text._sprintf_cdfFnopuxX:

9d00a168 <_sprintf_cdfFnopuxX>:
9d00a168:	3c02ffff 	lui	v0,0xffff
9d00a16c:	27bdffc8 	addiu	sp,sp,-56
9d00a170:	24420082 	addiu	v0,v0,130
9d00a174:	afa20020 	sw	v0,32(sp)
9d00a178:	3c027fff 	lui	v0,0x7fff
9d00a17c:	3442fffe 	ori	v0,v0,0xfffe
9d00a180:	afa20010 	sw	v0,16(sp)
9d00a184:	3c029d01 	lui	v0,0x9d01
9d00a188:	afa60040 	sw	a2,64(sp)
9d00a18c:	afa40018 	sw	a0,24(sp)
9d00a190:	afa40014 	sw	a0,20(sp)
9d00a194:	27a60040 	addiu	a2,sp,64
9d00a198:	2442a94c 	addiu	v0,v0,-22196
9d00a19c:	27a40010 	addiu	a0,sp,16
9d00a1a0:	afbf0034 	sw	ra,52(sp)
9d00a1a4:	afa70044 	sw	a3,68(sp)
9d00a1a8:	afa20028 	sw	v0,40(sp)
9d00a1ac:	0f400a8f 	jal	9d002a3c <_do_print_cdfFnopuxX>
9d00a1b0:	afa6002c 	sw	a2,44(sp)
9d00a1b4:	8fa30014 	lw	v1,20(sp)
9d00a1b8:	a0600000 	sb	zero,0(v1)
9d00a1bc:	8fbf0034 	lw	ra,52(sp)
9d00a1c0:	03e00008 	jr	ra
9d00a1c4:	27bd0038 	addiu	sp,sp,56

Disassembly of section .text._buffree:

9d00a1c8 <_buffree>:
9d00a1c8:	27bdffe8 	addiu	sp,sp,-24
9d00a1cc:	afb00010 	sw	s0,16(sp)
9d00a1d0:	00808025 	move	s0,a0
9d00a1d4:	8c840008 	lw	a0,8(a0)
9d00a1d8:	1080000f 	beqz	a0,9d00a218 <_buffree+0x50>
9d00a1dc:	afbf0014 	sw	ra,20(sp)
9d00a1e0:	96020010 	lhu	v0,16(s0)
9d00a1e4:	30420010 	andi	v0,v0,0x10
9d00a1e8:	1040000c 	beqz	v0,9d00a21c <_buffree+0x54>
9d00a1ec:	8fbf0014 	lw	ra,20(sp)
9d00a1f0:	0f401d2c 	jal	9d0074b0 <free>
9d00a1f4:	00000000 	nop
9d00a1f8:	2402ffff 	li	v0,-1
9d00a1fc:	ae020004 	sw	v0,4(s0)
9d00a200:	96020010 	lhu	v0,16(s0)
9d00a204:	ae000008 	sw	zero,8(s0)
9d00a208:	ae00000c 	sw	zero,12(s0)
9d00a20c:	3042ffe7 	andi	v0,v0,0xffe7
9d00a210:	ae000000 	sw	zero,0(s0)
9d00a214:	a6020010 	sh	v0,16(s0)
9d00a218:	8fbf0014 	lw	ra,20(sp)
9d00a21c:	8fb00010 	lw	s0,16(sp)
9d00a220:	03e00008 	jr	ra
9d00a224:	27bd0018 	addiu	sp,sp,24

Disassembly of section .text.sitofp:

9d00a228 <__floatsisf>:
9d00a228:	3c018000 10800012 00813024 04810002     ...<....$0......
9d00a238:	00000000 00042023                       ....# ..

9d00a240 <i40>:
9d00a240:	2405009e 	li	a1,158
9d00a244:	70873820 	clz	a3,a0
9d00a248:	00a72823 	subu	a1,a1,a3
9d00a24c:	00e42004 	sllv	a0,a0,a3
9d00a250:	24840080 	addiu	a0,a0,128
9d00a254:	2c880080 	sltiu	t0,a0,128
9d00a258:	00a82821 	addu	a1,a1,t0
9d00a25c:	00044203 	sra	t0,a0,0x8
9d00a260:	31080001 	andi	t0,t0,0x1
9d00a264:	00882023 	subu	a0,a0,t0
9d00a268:	00042040 	sll	a0,a0,0x1
9d00a26c:	00042242 	srl	a0,a0,0x9
9d00a270:	000545c0 	sll	t0,a1,0x17
9d00a274:	00882025 	or	a0,a0,t0

9d00a278 <i39>:
9d00a278:	00861025 	or	v0,a0,a2

9d00a27c <E999>:
9d00a27c:	03e00008 	jr	ra
9d00a280:	00000000 	nop
9d00a284:	00000000 	nop

Disassembly of section .text.strlen:

9d00a288 <strlen>:
9d00a288:	30820003 	andi	v0,a0,0x3
9d00a28c:	10400010 	beqz	v0,9d00a2d0 <strlen+0x48>
9d00a290:	3c07fefe 	lui	a3,0xfefe
9d00a294:	00801025 	move	v0,a0
9d00a298:	80430000 	lb	v1,0(v0)
9d00a29c:	5460fffe 	bnezl	v1,9d00a298 <strlen+0x10>
9d00a2a0:	24420001 	addiu	v0,v0,1
9d00a2a4:	03e00008 	jr	ra
9d00a2a8:	00441023 	subu	v0,v0,a0
9d00a2ac:	8c450000 	lw	a1,0(v0)
9d00a2b0:	00a71821 	addu	v1,a1,a3
9d00a2b4:	00052827 	nor	a1,zero,a1
9d00a2b8:	00651824 	and	v1,v1,a1
9d00a2bc:	00661824 	and	v1,v1,a2
9d00a2c0:	5060fffa 	beqzl	v1,9d00a2ac <strlen+0x24>
9d00a2c4:	24420004 	addiu	v0,v0,4
9d00a2c8:	1000fff4 	b	9d00a29c <strlen+0x14>
9d00a2cc:	80430000 	lb	v1,0(v0)
9d00a2d0:	3c068080 	lui	a2,0x8080
9d00a2d4:	00801025 	move	v0,a0
9d00a2d8:	34e7feff 	ori	a3,a3,0xfeff
9d00a2dc:	1000fff3 	b	9d00a2ac <strlen+0x24>
9d00a2e0:	34c68080 	ori	a2,a2,0x8080

Disassembly of section .text.gsgetc:

9d00a2e4 <gsgetc>:
9d00a2e4:	8c820004 	lw	v0,4(a0)
9d00a2e8:	27bdffe0 	addiu	sp,sp,-32
9d00a2ec:	afb10018 	sw	s1,24(sp)
9d00a2f0:	2411ffff 	li	s1,-1
9d00a2f4:	afb00014 	sw	s0,20(sp)
9d00a2f8:	afbf001c 	sw	ra,28(sp)
9d00a2fc:	10510006 	beq	v0,s1,9d00a318 <gsgetc+0x34>
9d00a300:	00808025 	move	s0,a0
9d00a304:	ac910004 	sw	s1,4(a0)
9d00a308:	8e030010 	lw	v1,16(s0)
9d00a30c:	24630001 	addiu	v1,v1,1
9d00a310:	10000005 	b	9d00a328 <gsgetc+0x44>
9d00a314:	ae030010 	sw	v1,16(s0)
9d00a318:	0f4027b7 	jal	9d009edc <fgetc>
9d00a31c:	8c840000 	lw	a0,0(a0)
9d00a320:	5451fffa 	bnel	v0,s1,9d00a30c <gsgetc+0x28>
9d00a324:	8e030010 	lw	v1,16(s0)
9d00a328:	8fbf001c 	lw	ra,28(sp)
9d00a32c:	8fb10018 	lw	s1,24(sp)
9d00a330:	8fb00014 	lw	s0,20(sp)
9d00a334:	03e00008 	jr	ra
9d00a338:	27bd0020 	addiu	sp,sp,32

Disassembly of section .text.main_entry:

9d00a33c <_main_entry>:
9d00a33c:	3c040000 	lui	a0,0x0
9d00a340:	27bdffe8 	addiu	sp,sp,-24
9d00a344:	24840000 	addiu	a0,a0,0
9d00a348:	10800003 	beqz	a0,9d00a358 <_main_entry+0x1c>
9d00a34c:	afbf0014 	sw	ra,20(sp)
9d00a350:	0080f809 	jalr	a0
9d00a354:	00000000 	nop
9d00a358:	30840000 	andi	a0,a0,0x0
9d00a35c:	30a50000 	andi	a1,a1,0x0
9d00a360:	3c089d00 	lui	t0,0x9d00
9d00a364:	250869b8 	addiu	t0,t0,27064
9d00a368:	0100f809 	jalr	t0
9d00a36c:	00000000 	nop

9d00a370 <__crt0_exit>:
9d00a370:	3c020000 24420000 10400003 00000000     ...<..B$..@.....
9d00a380:	0040f809 00000000 1000fff9 00000000     ..@.............

Disassembly of section .text._bufalloc:

9d00a390 <_bufalloc>:
9d00a390:	27bdffe8 	addiu	sp,sp,-24
9d00a394:	afb00010 	sw	s0,16(sp)
9d00a398:	00808025 	move	s0,a0
9d00a39c:	8c84000c 	lw	a0,12(a0)
9d00a3a0:	1880000d 	blez	a0,9d00a3d8 <_bufalloc+0x48>
9d00a3a4:	afbf0014 	sw	ra,20(sp)
9d00a3a8:	0f400c86 	jal	9d003218 <malloc>
9d00a3ac:	00000000 	nop
9d00a3b0:	10400009 	beqz	v0,9d00a3d8 <_bufalloc+0x48>
9d00a3b4:	ae020008 	sw	v0,8(s0)
9d00a3b8:	96030010 	lhu	v1,16(s0)
9d00a3bc:	34630010 	ori	v1,v1,0x10
9d00a3c0:	a6030010 	sh	v1,16(s0)
9d00a3c4:	8fbf0014 	lw	ra,20(sp)
9d00a3c8:	ae020004 	sw	v0,4(s0)
9d00a3cc:	8fb00010 	lw	s0,16(sp)
9d00a3d0:	03e00008 	jr	ra
9d00a3d4:	27bd0018 	addiu	sp,sp,24
9d00a3d8:	ae00000c 	sw	zero,12(s0)
9d00a3dc:	1000fff9 	b	9d00a3c4 <_bufalloc+0x34>
9d00a3e0:	2402ffff 	li	v0,-1

Disassembly of section .text._mon_write:

9d00a3e4 <_mon_write>:
9d00a3e4:	10800012 	beqz	a0,9d00a430 <_mon_write+0x4c>
9d00a3e8:	00000000 	nop
9d00a3ec:	27bdffe0 	addiu	sp,sp,-32
9d00a3f0:	afb10018 	sw	s1,24(sp)
9d00a3f4:	afb00014 	sw	s0,20(sp)
9d00a3f8:	afbf001c 	sw	ra,28(sp)
9d00a3fc:	00808025 	move	s0,a0
9d00a400:	00858821 	addu	s1,a0,a1
9d00a404:	56110006 	bnel	s0,s1,9d00a420 <_mon_write+0x3c>
9d00a408:	82040000 	lb	a0,0(s0)
9d00a40c:	8fbf001c 	lw	ra,28(sp)
9d00a410:	8fb10018 	lw	s1,24(sp)
9d00a414:	8fb00014 	lw	s0,20(sp)
9d00a418:	03e00008 	jr	ra
9d00a41c:	27bd0020 	addiu	sp,sp,32
9d00a420:	0f402360 	jal	9d008d80 <_mon_putc>
9d00a424:	26100001 	addiu	s0,s0,1
9d00a428:	1000fff6 	b	9d00a404 <_mon_write+0x20>
9d00a42c:	00000000 	nop
9d00a430:	03e00008 	jr	ra
9d00a434:	00000000 	nop

Disassembly of section .text.sbrk:

9d00a438 <sbrk>:
9d00a438:	27bdffe8 	addiu	sp,sp,-24
9d00a43c:	afb00010 	sw	s0,16(sp)
9d00a440:	afbf0014 	sw	ra,20(sp)
9d00a444:	0f4025c4 	jal	9d009710 <_sbrk>
9d00a448:	00808025 	move	s0,a0
9d00a44c:	1a000008 	blez	s0,9d00a470 <sbrk+0x38>
9d00a450:	00401825 	move	v1,v0
9d00a454:	2402ffff 	li	v0,-1
9d00a458:	10620005 	beq	v1,v0,9d00a470 <sbrk+0x38>
9d00a45c:	00602025 	move	a0,v1
9d00a460:	02003025 	move	a2,s0
9d00a464:	0f4029ee 	jal	9d00a7b8 <memset>
9d00a468:	00002825 	move	a1,zero
9d00a46c:	00401825 	move	v1,v0
9d00a470:	8fbf0014 	lw	ra,20(sp)
9d00a474:	00601025 	move	v0,v1
9d00a478:	8fb00010 	lw	s0,16(sp)
9d00a47c:	03e00008 	jr	ra
9d00a480:	27bd0018 	addiu	sp,sp,24

Disassembly of section .text._bootstrap_exception_handler:

9d00a484 <_bootstrap_exception_handler>:
9d00a484:	3c020000 	lui	v0,0x0
9d00a488:	24420000 	addiu	v0,v0,0
9d00a48c:	10400005 	beqz	v0,9d00a4a4 <_bootstrap_exception_handler+0x20>
9d00a490:	3c020000 	lui	v0,0x0
9d00a494:	24420000 	addiu	v0,v0,0
9d00a498:	10400003 	beqz	v0,9d00a4a8 <_bootstrap_exception_handler+0x24>
9d00a49c:	3c029d01 	lui	v0,0x9d01
9d00a4a0:	7000003f 	sdbbp
9d00a4a4:	3c029d01 	lui	v0,0x9d01
9d00a4a8:	2442a5a4 	addiu	v0,v0,-23132
9d00a4ac:	10400005 	beqz	v0,9d00a4c4 <_bootstrap_exception_handler+0x40>
9d00a4b0:	00000000 	nop
9d00a4b4:	27bdffe8 	addiu	sp,sp,-24
9d00a4b8:	afbf0014 	sw	ra,20(sp)
9d00a4bc:	0040f809 	jalr	v0
9d00a4c0:	00000000 	nop
9d00a4c4:	1000ffff 	b	9d00a4c4 <_bootstrap_exception_handler+0x40>
9d00a4c8:	00000000 	nop

Disassembly of section .text._general_exception_handler:

9d00a4cc <_general_exception_handler>:
9d00a4cc:	3c020000 	lui	v0,0x0
9d00a4d0:	24420000 	addiu	v0,v0,0
9d00a4d4:	10400005 	beqz	v0,9d00a4ec <_general_exception_handler+0x20>
9d00a4d8:	3c020000 	lui	v0,0x0
9d00a4dc:	24420000 	addiu	v0,v0,0
9d00a4e0:	10400003 	beqz	v0,9d00a4f0 <_general_exception_handler+0x24>
9d00a4e4:	3c029d01 	lui	v0,0x9d01
9d00a4e8:	7000003f 	sdbbp
9d00a4ec:	3c029d01 	lui	v0,0x9d01
9d00a4f0:	2442a5a4 	addiu	v0,v0,-23132
9d00a4f4:	10400005 	beqz	v0,9d00a50c <_general_exception_handler+0x40>
9d00a4f8:	00000000 	nop
9d00a4fc:	27bdffe8 	addiu	sp,sp,-24
9d00a500:	afbf0014 	sw	ra,20(sp)
9d00a504:	0040f809 	jalr	v0
9d00a508:	00000000 	nop
9d00a50c:	1000ffff 	b	9d00a50c <_general_exception_handler+0x40>
9d00a510:	00000000 	nop

Disassembly of section .vector_default:

9d00a514 <_DefaultInterrupt>:
9d00a514:	3c020000 	lui	v0,0x0
9d00a518:	24420000 	addiu	v0,v0,0
9d00a51c:	10400007 	beqz	v0,9d00a53c <_DefaultInterrupt+0x28>
9d00a520:	3c020000 	lui	v0,0x0
9d00a524:	24420000 	addiu	v0,v0,0
9d00a528:	50400005 	beqzl	v0,9d00a540 <_DefaultInterrupt+0x2c>
9d00a52c:	3c029d01 	lui	v0,0x9d01
9d00a530:	7000003f 	sdbbp
9d00a534:	03e00008 	jr	ra
9d00a538:	00000000 	nop
9d00a53c:	3c029d01 	lui	v0,0x9d01
9d00a540:	2442a5a4 	addiu	v0,v0,-23132
9d00a544:	10400003 	beqz	v0,9d00a554 <_DefaultInterrupt+0x40>
9d00a548:	00000000 	nop
9d00a54c:	0040f809 	jalr	v0
9d00a550:	00000000 	nop
9d00a554:	03e00008 	jr	ra
9d00a558:	00000000 	nop

Disassembly of section .rodata:

9d00a55c <f5pow>:
9d00a55c:	00000000 40140000 00000000 40390000     .......@......9@
9d00a56c:	00000000 40838800 00000000 4117d784     .......@.......A
9d00a57c:	37e08000 4241c379 b5056e17 4493b8b5     ...7y.AB.n.....D
9d00a58c:	e93ff9f5 49384f03 f9301d32 52827748     ..?..O8I2.0.Hw.R
9d00a59c:	7f73bf3c 65154fdd                       <.s..O.e

Disassembly of section .text:

9d00a5a4 <__pic32_software_reset>:
9d00a5a4:	41606000 	di
9d00a5a8:	000000c0 	ehb
9d00a5ac:	3c03aa99 	lui	v1,0xaa99
9d00a5b0:	3c02bf81 	lui	v0,0xbf81
9d00a5b4:	24636655 	addiu	v1,v1,26197
9d00a5b8:	ac40f230 	sw	zero,-3536(v0)
9d00a5bc:	ac43f230 	sw	v1,-3536(v0)
9d00a5c0:	3c035566 	lui	v1,0x5566
9d00a5c4:	346399aa 	ori	v1,v1,0x99aa
9d00a5c8:	ac43f230 	sw	v1,-3536(v0)
9d00a5cc:	3c02bf81 	lui	v0,0xbf81
9d00a5d0:	24030001 	li	v1,1
9d00a5d4:	ac43f618 	sw	v1,-2536(v0)
9d00a5d8:	3c02bf81 	lui	v0,0xbf81
9d00a5dc:	8c42f610 	lw	v0,-2544(v0)
9d00a5e0:	0b40296b 	j	9d00a5ac <__pic32_software_reset+0x8>
9d00a5e4:	00000000 	nop

Disassembly of section .rodata:

9d00a5e8 <zeroData>:
9d00a5e8:	30303030 30303030 30303030 30303030     0000000000000000
9d00a5f8:	30303030 30303030 30303030 30303030     0000000000000000

9d00a608 <spaceData>:
9d00a608:	20202020 20202020 20202020 20202020                     
9d00a618:	20202020 20202020 20202020 20202020                     

Disassembly of section .text._io_exit:

9d00a628 <.text._io_exit>:
9d00a628:	27bdffe8 	addiu	sp,sp,-24
9d00a62c:	afb00010 	sw	s0,16(sp)
9d00a630:	3c10a000 	lui	s0,0xa000
9d00a634:	afbf0014 	sw	ra,20(sp)
9d00a638:	0f402a6f 	jal	9d00a9bc <_weak_pthread_mutex_lock>
9d00a63c:	26040684 	addiu	a0,s0,1668
9d00a640:	3c02a000 	lui	v0,0xa000
9d00a644:	8c420000 	lw	v0,0(v0)
9d00a648:	24030001 	li	v1,1
9d00a64c:	26040684 	addiu	a0,s0,1668
9d00a650:	0f402a73 	jal	9d00a9cc <_weak_pthread_mutex_unlock>
9d00a654:	ac430038 	sw	v1,56(v0)
9d00a658:	8fbf0014 	lw	ra,20(sp)
9d00a65c:	8fb00010 	lw	s0,16(sp)
9d00a660:	03e00008 	jr	ra
9d00a664:	27bd0018 	addiu	sp,sp,24

Disassembly of section .text._weak_pthread_once:

9d00a668 <_weak_pthread_once>:
9d00a668:	8c820000 	lw	v0,0(a0)
9d00a66c:	1440000b 	bnez	v0,9d00a69c <_weak_pthread_once+0x34>
9d00a670:	00000000 	nop
9d00a674:	24020002 	li	v0,2
9d00a678:	27bdffe8 	addiu	sp,sp,-24
9d00a67c:	ac820000 	sw	v0,0(a0)
9d00a680:	afbf0014 	sw	ra,20(sp)
9d00a684:	00a0f809 	jalr	a1
9d00a688:	00000000 	nop
9d00a68c:	8fbf0014 	lw	ra,20(sp)
9d00a690:	00001025 	move	v0,zero
9d00a694:	03e00008 	jr	ra
9d00a698:	27bd0018 	addiu	sp,sp,24
9d00a69c:	03e00008 	jr	ra
9d00a6a0:	00001025 	move	v0,zero

Disassembly of section .text._filbuf_simple:

9d00a6a4 <_filbuf_simple>:
9d00a6a4:	8c820004 	lw	v0,4(a0)
9d00a6a8:	2403ffff 	li	v1,-1
9d00a6ac:	10430003 	beq	v0,v1,9d00a6bc <_filbuf_simple+0x18>
9d00a6b0:	ac800000 	sw	zero,0(a0)
9d00a6b4:	03e00008 	jr	ra
9d00a6b8:	ac830004 	sw	v1,4(a0)
9d00a6bc:	27bdffe8 	addiu	sp,sp,-24
9d00a6c0:	afbf0014 	sw	ra,20(sp)
9d00a6c4:	0f4022c8 	jal	9d008b20 <_mon_getc>
9d00a6c8:	24040001 	li	a0,1
9d00a6cc:	8fbf0014 	lw	ra,20(sp)
9d00a6d0:	03e00008 	jr	ra
9d00a6d4:	27bd0018 	addiu	sp,sp,24

Disassembly of section .text._cleanup:

9d00a6d8 <_cleanup>:
9d00a6d8:	3c02a000 	lui	v0,0xa000
9d00a6dc:	8c4206a8 	lw	v0,1704(v0)
9d00a6e0:	10400008 	beqz	v0,9d00a704 <_cleanup+0x2c>
9d00a6e4:	00000000 	nop
9d00a6e8:	27bdffe8 	addiu	sp,sp,-24
9d00a6ec:	afbf0014 	sw	ra,20(sp)
9d00a6f0:	0040f809 	jalr	v0
9d00a6f4:	00000000 	nop
9d00a6f8:	8fbf0014 	lw	ra,20(sp)
9d00a6fc:	03e00008 	jr	ra
9d00a700:	27bd0018 	addiu	sp,sp,24
9d00a704:	03e00008 	jr	ra
9d00a708:	00000000 	nop

Disassembly of section .text._fsync_simple:

9d00a70c <_fsync_simple>:
9d00a70c:	94830010 	lhu	v1,16(a0)
9d00a710:	00652824 	and	a1,v1,a1
9d00a714:	10a00007 	beqz	a1,9d00a734 <_fsync_simple+0x28>
9d00a718:	24020001 	li	v0,1
9d00a71c:	34630040 	ori	v1,v1,0x40
9d00a720:	3c02a000 	lui	v0,0xa000
9d00a724:	a4830010 	sh	v1,16(a0)
9d00a728:	24030009 	li	v1,9
9d00a72c:	ac430038 	sw	v1,56(v0)
9d00a730:	00001025 	move	v0,zero
9d00a734:	03e00008 	jr	ra
9d00a738:	00000000 	nop

Disassembly of section .text.memcpy:

9d00a73c <memcpy>:
9d00a73c:	00801025 	move	v0,a0
9d00a740:	00001825 	move	v1,zero
9d00a744:	14c30003 	bne	a2,v1,9d00a754 <memcpy+0x18>
9d00a748:	00a32021 	addu	a0,a1,v1
9d00a74c:	03e00008 	jr	ra
9d00a750:	00000000 	nop
9d00a754:	90870000 	lbu	a3,0(a0)
9d00a758:	00432021 	addu	a0,v0,v1
9d00a75c:	24630001 	addiu	v1,v1,1
9d00a760:	1000fff8 	b	9d00a744 <memcpy+0x8>
9d00a764:	a0870000 	sb	a3,0(a0)

Disassembly of section .text._stub_sbd_memlayout:

9d00a768 <_stub_sbd_memlayout>:
9d00a768:	3c04a000 	lui	a0,0xa000
9d00a76c:	24820660 	addiu	v0,a0,1632
9d00a770:	24030001 	li	v1,1
9d00a774:	ac430008 	sw	v1,8(v0)
9d00a778:	3c03a000 	lui	v1,0xa000
9d00a77c:	246306b0 	addiu	v1,v1,1712
9d00a780:	ac830660 	sw	v1,1632(a0)
9d00a784:	3c030000 	lui	v1,0x0
9d00a788:	24630000 	addiu	v1,v1,0
9d00a78c:	03e00008 	jr	ra
9d00a790:	ac430004 	sw	v1,4(v0)

Disassembly of section .text.putchar:

9d00a794 <putchar>:
9d00a794:	3c02a000 	lui	v0,0xa000
9d00a798:	8c420000 	lw	v0,0(v0)
9d00a79c:	27bdffe8 	addiu	sp,sp,-24
9d00a7a0:	afbf0014 	sw	ra,20(sp)
9d00a7a4:	0f402644 	jal	9d009910 <fputc>
9d00a7a8:	8c450004 	lw	a1,4(v0)
9d00a7ac:	8fbf0014 	lw	ra,20(sp)
9d00a7b0:	03e00008 	jr	ra
9d00a7b4:	27bd0018 	addiu	sp,sp,24

Disassembly of section .text.memset:

9d00a7b8 <memset>:
9d00a7b8:	00801025 	move	v0,a0
9d00a7bc:	00863021 	addu	a2,a0,a2
9d00a7c0:	00801825 	move	v1,a0
9d00a7c4:	14660003 	bne	v1,a2,9d00a7d4 <memset+0x1c>
9d00a7c8:	24630001 	addiu	v1,v1,1
9d00a7cc:	03e00008 	jr	ra
9d00a7d0:	00000000 	nop
9d00a7d4:	1000fffb 	b	9d00a7c4 <memset+0xc>
9d00a7d8:	a065ffff 	sb	a1,-1(v1)

Disassembly of section .text.getchar:

9d00a7dc <getchar>:
9d00a7dc:	3c02a000 	lui	v0,0xa000
9d00a7e0:	8c420000 	lw	v0,0(v0)
9d00a7e4:	27bdffe8 	addiu	sp,sp,-24
9d00a7e8:	afbf0014 	sw	ra,20(sp)
9d00a7ec:	0f4027b7 	jal	9d009edc <fgetc>
9d00a7f0:	8c440000 	lw	a0,0(v0)
9d00a7f4:	8fbf0014 	lw	ra,20(sp)
9d00a7f8:	03e00008 	jr	ra
9d00a7fc:	27bd0018 	addiu	sp,sp,24

Disassembly of section .text._vfprintf_cdfFnopuxX:

9d00a800 <_vfprintf_cdfFnopuxX>:
9d00a800:	27bdffe8 	addiu	sp,sp,-24
9d00a804:	afbf0014 	sw	ra,20(sp)
9d00a808:	0f400a8f 	jal	9d002a3c <_do_print_cdfFnopuxX>
9d00a80c:	00000000 	nop
9d00a810:	8fbf0014 	lw	ra,20(sp)
9d00a814:	03e00008 	jr	ra
9d00a818:	27bd0018 	addiu	sp,sp,24

Disassembly of section .text.putc:

9d00a81c <putc>:
9d00a81c:	27bdffe8 	addiu	sp,sp,-24
9d00a820:	afbf0014 	sw	ra,20(sp)
9d00a824:	0f402644 	jal	9d009910 <fputc>
9d00a828:	00000000 	nop
9d00a82c:	8fbf0014 	lw	ra,20(sp)
9d00a830:	03e00008 	jr	ra
9d00a834:	27bd0018 	addiu	sp,sp,24

Disassembly of section .text.vfscanf:

9d00a838 <vfscanf>:
9d00a838:	27bdffe8 	addiu	sp,sp,-24
9d00a83c:	afbf0014 	sw	ra,20(sp)
9d00a840:	0f4007ec 	jal	9d001fb0 <do_scan>
9d00a844:	00000000 	nop
9d00a848:	8fbf0014 	lw	ra,20(sp)
9d00a84c:	03e00008 	jr	ra
9d00a850:	27bd0018 	addiu	sp,sp,24

Disassembly of section .text.strtod:

9d00a854 <strtod>:
9d00a854:	27bdffe8 	addiu	sp,sp,-24
9d00a858:	afbf0014 	sw	ra,20(sp)
9d00a85c:	0f4014a5 	jal	9d005294 <__strtod>
9d00a860:	00000000 	nop
9d00a864:	8fbf0014 	lw	ra,20(sp)
9d00a868:	03e00008 	jr	ra
9d00a86c:	27bd0018 	addiu	sp,sp,24

Disassembly of section .text.strtof:

9d00a870 <strtof>:
9d00a870:	27bdffe8 	addiu	sp,sp,-24
9d00a874:	afbf0014 	sw	ra,20(sp)
9d00a878:	0f4018b9 	jal	9d0062e4 <__strtof>
9d00a87c:	00000000 	nop
9d00a880:	8fbf0014 	lw	ra,20(sp)
9d00a884:	03e00008 	jr	ra
9d00a888:	27bd0018 	addiu	sp,sp,24

Disassembly of section .text.getc:

9d00a88c <getc>:
9d00a88c:	27bdffe8 	addiu	sp,sp,-24
9d00a890:	afbf0014 	sw	ra,20(sp)
9d00a894:	0f4027b7 	jal	9d009edc <fgetc>
9d00a898:	00000000 	nop
9d00a89c:	8fbf0014 	lw	ra,20(sp)
9d00a8a0:	03e00008 	jr	ra
9d00a8a4:	27bd0018 	addiu	sp,sp,24

Disassembly of section .text.negdf2:

9d00a8a8 <__negdf2>:
9d00a8a8:	3c018000 00a12826 00041025 00051825     ...<&(..%...%...

9d00a8b8 <M999>:
9d00a8b8:	03e00008 	jr	ra
9d00a8bc:	00000000 	nop
9d00a8c0:	00000000 	nop

Disassembly of section .text:

9d00a8e0 <_nmi_handler>:
9d00a8e0:	401a6000 	mfc0	k0,c0_status
9d00a8e4:	3c1bffbf 	lui	k1,0xffbf
9d00a8e8:	377bffff 	ori	k1,k1,0xffff
9d00a8ec:	035bd024 	and	k0,k0,k1
9d00a8f0:	409a6000 	mtc0	k0,c0_status
9d00a8f4:	42000018 	eret

Disassembly of section .rodata:

9d00a8f8 <f5pow>:
9d00a8f8:	40a00000 41c80000 441c4000 48bebc20     ...@...A.@.D ..H
9d00a908:	520e1bca 649dc5ae                       ...R...d

Disassembly of section .text._io_exit:

9d00a910 <_io_exit>:
9d00a910:	3c02a000 	lui	v0,0xa000
9d00a914:	8c420000 	lw	v0,0(v0)
9d00a918:	24030001 	li	v1,1
9d00a91c:	03e00008 	jr	ra
9d00a920:	ac430038 	sw	v1,56(v0)

Disassembly of section .rodata:

9d00a924 <_io_funcs>:
9d00a924:	9d00a6a4 9d00956c 9d009f50 9d009e68     ....l...P...h...
9d00a934:	9d00a70c                                ....

Disassembly of section .text._io_exit:

9d00a938 <.text._io_exit>:
9d00a938:	3c02a000 	lui	v0,0xa000
9d00a93c:	8c420000 	lw	v0,0(v0)
9d00a940:	24030001 	li	v1,1
9d00a944:	03e00008 	jr	ra
9d00a948:	ac430038 	sw	v1,56(v0)

Disassembly of section .rodata:

9d00a94c <_io_strfuncs>:
9d00a94c:	9d00a984 9d00a98c 9d00a994 9d00a99c     ................
9d00a95c:	9d00a9a4                                ....

Disassembly of section .text.negsf2:

9d00a960 <__negsf2>:
9d00a960:	3c018000 00811026                       ...<&...

9d00a968 <L999>:
9d00a968:	03e00008 	jr	ra
9d00a96c:	00000000 	nop
9d00a970:	00000000 	nop

Disassembly of section .text._on_reset:

9d00a974 <_on_reset>:
9d00a974:	03e00008 	jr	ra
9d00a978:	00000000 	nop

Disassembly of section .text._on_bootstrap:

9d00a97c <_on_bootstrap>:
9d00a97c:	03e00008 	jr	ra
9d00a980:	00000000 	nop

Disassembly of section .text._filbuf_string:

9d00a984 <_filbuf_string>:
9d00a984:	03e00008 	jr	ra
9d00a988:	2402ffff 	li	v0,-1

Disassembly of section .text._flsbuf_string:

9d00a98c <_flsbuf_string>:
9d00a98c:	03e00008 	jr	ra
9d00a990:	00801025 	move	v0,a0

Disassembly of section .text._fflush_string:

9d00a994 <_fflush_string>:
9d00a994:	03e00008 	jr	ra
9d00a998:	00001025 	move	v0,zero

Disassembly of section .text._fwrite_string:

9d00a99c <_fwrite_string>:
9d00a99c:	03e00008 	jr	ra
9d00a9a0:	00001025 	move	v0,zero

Disassembly of section .text._fsync_string:

9d00a9a4 <_fsync_string>:
9d00a9a4:	03e00008 	jr	ra
9d00a9a8:	24020001 	li	v0,1

Disassembly of section .text._weak_pthread_mutex_init:

9d00a9ac <_weak_pthread_mutex_init>:
9d00a9ac:	03e00008 	jr	ra
9d00a9b0:	00001025 	move	v0,zero

Disassembly of section .text._weak_pthread_mutex_destroy:

9d00a9b4 <_weak_pthread_mutex_destroy>:
9d00a9b4:	03e00008 	jr	ra
9d00a9b8:	00001025 	move	v0,zero

Disassembly of section .text._weak_pthread_mutex_lock:

9d00a9bc <_weak_pthread_mutex_lock>:
9d00a9bc:	03e00008 	jr	ra
9d00a9c0:	00001025 	move	v0,zero

Disassembly of section .text._weak_pthread_mutex_trylock:

9d00a9c4 <_weak_pthread_mutex_trylock>:
9d00a9c4:	03e00008 	jr	ra
9d00a9c8:	00001025 	move	v0,zero

Disassembly of section .text._weak_pthread_mutex_unlock:

9d00a9cc <_weak_pthread_mutex_unlock>:
9d00a9cc:	03e00008 	jr	ra
9d00a9d0:	00001025 	move	v0,zero

Disassembly of section .text._weak_pthread_mutex_setname_np:

9d00a9d4 <_weak_pthread_mutex_setname_np>:
9d00a9d4:	03e00008 	jr	ra
9d00a9d8:	00001025 	move	v0,zero

Disassembly of section .text._weak_pthread_mutexattr_init:

9d00a9dc <_weak_pthread_mutexattr_init>:
9d00a9dc:	03e00008 	jr	ra
9d00a9e0:	00001025 	move	v0,zero

Disassembly of section .text._weak_pthread_mutexattr_destroy:

9d00a9e4 <_weak_pthread_mutexattr_destroy>:
9d00a9e4:	03e00008 	jr	ra
9d00a9e8:	00001025 	move	v0,zero

Disassembly of section .text._weak_pthread_mutexattr_setname_np:

9d00a9ec <_weak_pthread_mutexattr_setname_np>:
9d00a9ec:	03e00008 	jr	ra
9d00a9f0:	00001025 	move	v0,zero

Disassembly of section .text._weak_pthread_mutexattr_settype_np:

9d00a9f4 <_weak_pthread_mutexattr_settype_np>:
9d00a9f4:	03e00008 	jr	ra
9d00a9f8:	00001025 	move	v0,zero

Disassembly of section .text._weak_pthread_sysconf_np:

9d00a9fc <_weak_pthread_sysconf_np>:
9d00a9fc:	03e00008 	jr	ra
9d00aa00:	2402ffff 	li	v0,-1

Disassembly of section .text._weak_pthread_sigdisable_np:

9d00aa04 <_weak_pthread_sigdisable_np>:
9d00aa04:	03e00008 	jr	ra
9d00aa08:	00000000 	nop

Disassembly of section .text._weak_pthread_sigrestore_np:

9d00aa0c <_weak_pthread_sigrestore_np>:
9d00aa0c:	03e00008 	jr	ra
9d00aa10:	00000000 	nop

Disassembly of section .text._weak__pthread_cleanup_push:

9d00aa14 <_weak__pthread_cleanup_push>:
9d00aa14:	03e00008 	jr	ra
9d00aa18:	00000000 	nop

Disassembly of section .text._weak__pthread_cleanup_pop:

9d00aa1c <_weak__pthread_cleanup_pop>:
9d00aa1c:	03e00008 	jr	ra
9d00aa20:	00000000 	nop

Disassembly of section .text._weak__pthread_cleanup_push_defer:

9d00aa24 <_weak__pthread_cleanup_push_defer>:
9d00aa24:	03e00008 	jr	ra
9d00aa28:	00000000 	nop

Disassembly of section .text._weak__pthread_cleanup_pop_restore:

9d00aa2c <_weak__pthread_cleanup_pop_restore>:
9d00aa2c:	03e00008 	jr	ra
9d00aa30:	00000000 	nop

Disassembly of section .text._weak_pthread_key_create:

9d00aa34 <_weak_pthread_key_create>:
9d00aa34:	03e00008 	jr	ra
9d00aa38:	2402ffff 	li	v0,-1

Disassembly of section .text._weak_pthread_setspecific:

9d00aa3c <_weak_pthread_setspecific>:
9d00aa3c:	03e00008 	jr	ra
9d00aa40:	2402ffff 	li	v0,-1

Disassembly of section .text._weak_pthread_getspecific:

9d00aa44 <_weak_pthread_getspecific>:
9d00aa44:	03e00008 	jr	ra
9d00aa48:	00001025 	move	v0,zero

Disassembly of section .text._weak__libc_private_storage:

9d00aa4c <_weak__libc_private_storage>:
9d00aa4c:	03e00008 	jr	ra
9d00aa50:	00a01025 	move	v0,a1

Disassembly of section .text.getpagesize:

9d00aa54 <getpagesize>:
9d00aa54:	03e00008 	jr	ra
9d00aa58:	24020080 	li	v0,128

Disassembly of section .text._exit:

9d00aa5c <_exit>:
9d00aa5c:	1000ffff 	b	9d00aa5c <_exit>
9d00aa60:	00000000 	nop

Disassembly of section .text.isatty:

9d00aa64 <isatty>:
9d00aa64:	03e00008 	jr	ra
9d00aa68:	00001025 	move	v0,zero
