
out.elf:     file format elf32-tradlittlemips


Disassembly of section .config_BFC02FF0:

bfc02ff0 <__config_BFC02FF0>:
bfc02ff0:	ff ff fe fa                                         ....

Disassembly of section .config_BFC02FF4:

bfc02ff4 <__config_BFC02FF4>:
bfc02ff4:	d9 79 f8 ff                                         .y..

Disassembly of section .config_BFC02FF8:

bfc02ff8 <__config_BFC02FF8>:
bfc02ff8:	db ce 6c ff                                         ..l.

Disassembly of section .config_BFC02FFC:

bfc02ffc <__config_BFC02FFC>:
bfc02ffc:	ff ff ff 7e                                         ...~

Disassembly of section .reset:

bd001970 <_reset>:
bd001970:	0f40065e 	jal	bd001978 <_startup>
bd001974:	00000000 	nop

bd001978 <_startup>:
bd001978:	401a6000 	mfc0	k0,c0_status
bd00197c:	7f5a04c0 	ext	k0,k0,0x13,0x1
bd001980:	13400005 	beqz	k0,bd001998 <_no_nmi>
bd001984:	00000000 	nop
bd001988:	3c1a9d01 	lui	k0,0x9d01
bd00198c:	275a9d60 	addiu	k0,k0,-25248
bd001990:	03400008 	jr	k0
bd001994:	00000000 	nop

bd001998 <_no_nmi>:
bd001998:	3c1da002 	lui	sp,0xa002
bd00199c:	27bdfff0 	addiu	sp,sp,-16
bd0019a0:	3c1ca000 	lui	gp,0xa000
bd0019a4:	279c7ff0 	addiu	gp,gp,32752
bd0019a8:	40096002 	mfc0	t1,c0_srsctl
bd0019ac:	01205820 	add	t3,t1,zero
bd0019b0:	7d2a1e80 	ext	t2,t1,0x1a,0x4
bd0019b4:	7d494984 	ins	t1,t2,0x6,0x4
bd0019b8:	40896002 	mtc0	t1,c0_srsctl
bd0019bc:	000000c0 	ehb
bd0019c0:	41dce000 	wrpgpr	gp,gp
bd0019c4:	408b6002 	mtc0	t3,c0_srsctl
bd0019c8:	000000c0 	ehb
bd0019cc:	3c089d01 	lui	t0,0x9d01
bd0019d0:	25089df4 	addiu	t0,t0,-25100
bd0019d4:	0100f809 	jalr	t0
bd0019d8:	00000000 	nop

bd0019dc <_start_bss_init>:
bd0019dc:	3c08a000 	lui	t0,0xa000
bd0019e0:	25080008 	addiu	t0,t0,8
bd0019e4:	3c09a000 	lui	t1,0xa000
bd0019e8:	252900f8 	addiu	t1,t1,248
bd0019ec:	10000003 	b	bd0019fc <_bss_check>
bd0019f0:	00000000 	nop

bd0019f4 <_bss_init>:
bd0019f4:	ad000000 	sw	zero,0(t0)
bd0019f8:	25080004 	addiu	t0,t0,4

bd0019fc <_bss_check>:
bd0019fc:	0109082b 	sltu	at,t0,t1
bd001a00:	1420fffc 	bnez	at,bd0019f4 <_bss_init>
bd001a04:	00000000 	nop
bd001a08:	3c089d01 	lui	t0,0x9d01
bd001a0c:	250891f4 	addiu	t0,t0,-28172
bd001a10:	0100f809 	jalr	t0
bd001a14:	00000000 	nop
bd001a18:	3c090000 	lui	t1,0x0
bd001a1c:	25290000 	addiu	t1,t1,0
bd001a20:	11200010 	beqz	t1,bd001a64 <_ramfunc_done>
bd001a24:	00000000 	nop
bd001a28:	3c090002 	lui	t1,0x2
bd001a2c:	25290000 	addiu	t1,t1,0
bd001a30:	3c0abf88 	lui	t2,0xbf88
bd001a34:	254a2010 	addiu	t2,t2,8208
bd001a38:	ad490000 	sw	t1,0(t2)
bd001a3c:	3c090002 	lui	t1,0x2
bd001a40:	25290000 	addiu	t1,t1,0
bd001a44:	3c0abf88 	lui	t2,0xbf88
bd001a48:	254a2020 	addiu	t2,t2,8224
bd001a4c:	ad490000 	sw	t1,0(t2)
bd001a50:	3c090002 	lui	t1,0x2
bd001a54:	25290000 	addiu	t1,t1,0
bd001a58:	3c0abf88 	lui	t2,0xbf88
bd001a5c:	254a2030 	addiu	t2,t2,8240
bd001a60:	ad490000 	sw	t1,0(t2)

bd001a64 <_ramfunc_done>:
bd001a64:	40804800 	mtc0	zero,c0_count
bd001a68:	240affff 	li	t2,-1
bd001a6c:	408a5800 	mtc0	t2,c0_compare
bd001a70:	3c080040 	lui	t0,0x40
bd001a74:	400a6000 	mfc0	t2,c0_status
bd001a78:	010a5025 	or	t2,t0,t2
bd001a7c:	408a6000 	mtc0	t2,c0_status
bd001a80:	3c099d00 	lui	t1,0x9d00
bd001a84:	25290000 	addiu	t1,t1,0
bd001a88:	000000c0 	ehb
bd001a8c:	40897801 	mtc0	t1,c0_ebase
bd001a90:	3c090000 	lui	t1,0x0
bd001a94:	25290001 	addiu	t1,t1,1
bd001a98:	240a0000 	li	t2,0
bd001a9c:	7d2a4944 	ins	t2,t1,0x5,0x5
bd001aa0:	408a6001 	mtc0	t2,c0_intctl
bd001aa4:	3c090080 	lui	t1,0x80
bd001aa8:	40896800 	mtc0	t1,c0_cause
bd001aac:	40088000 	mfc0	t0,c0_config
bd001ab0:	7d090580 	ext	t1,t0,0x16,0x1
bd001ab4:	00094c40 	sll	t1,t1,0x11
bd001ab8:	40086000 	mfc0	t0,c0_status
bd001abc:	3c010058 	lui	at,0x58
bd001ac0:	01014024 	and	t0,t0,at
bd001ac4:	01284025 	or	t0,t1,t0
bd001ac8:	40886000 	mtc0	t0,c0_status
bd001acc:	000000c0 	ehb
bd001ad0:	3c089d01 	lui	t0,0x9d01
bd001ad4:	25089dfc 	addiu	t0,t0,-25092
bd001ad8:	0100f809 	jalr	t0
bd001adc:	00000000 	nop
bd001ae0:	40086000 	mfc0	t0,c0_status
bd001ae4:	3c01ffbf 	lui	at,0xffbf
bd001ae8:	3421ffff 	ori	at,at,0xffff
bd001aec:	01014024 	and	t0,t0,at
bd001af0:	40886000 	mtc0	t0,c0_status
bd001af4:	30840000 	andi	a0,a0,0x0
bd001af8:	30a50000 	andi	a1,a1,0x0
bd001afc:	3c089d01 	lui	t0,0x9d01
bd001b00:	250897e0 	addiu	t0,t0,-26656
bd001b04:	01000008 	jr	t0
bd001b08:	00000000 	nop

Disassembly of section .bev_excpt:

bd001cf0 <_bev_exception>:
bd001cf0:	3c1a9d01 	lui	k0,0x9d01
bd001cf4:	275a9928 	addiu	k0,k0,-26328
bd001cf8:	03400008 	jr	k0
bd001cfc:	00000000 	nop

Disassembly of section .app_excpt:

9d000180 <_gen_exception>:
9d000180:	3c1a9d01 	lui	k0,0x9d01
9d000184:	275a8b20 	addiu	k0,k0,-29920
9d000188:	03400008 	jr	k0
9d00018c:	00000000 	nop

Disassembly of section .vector_0:

9d000200 <__vector_dispatch_0>:
9d000200:	0b40266e 	j	9d0099b8 <_DefaultInterrupt>
9d000204:	00000000 	nop

Disassembly of section .vector_1:

9d000220 <__vector_dispatch_1>:
9d000220:	0b40266e 	j	9d0099b8 <_DefaultInterrupt>
9d000224:	00000000 	nop

Disassembly of section .vector_2:

9d000240 <__vector_dispatch_2>:
9d000240:	0b40266e 	j	9d0099b8 <_DefaultInterrupt>
9d000244:	00000000 	nop

Disassembly of section .vector_3:

9d000260 <__vector_dispatch_3>:
9d000260:	0b40266e 	j	9d0099b8 <_DefaultInterrupt>
9d000264:	00000000 	nop

Disassembly of section .vector_4:

9d000280 <__vector_dispatch_4>:
9d000280:	0b40266e 	j	9d0099b8 <_DefaultInterrupt>
9d000284:	00000000 	nop

Disassembly of section .vector_5:

9d0002a0 <__vector_dispatch_5>:
9d0002a0:	0b40266e 	j	9d0099b8 <_DefaultInterrupt>
9d0002a4:	00000000 	nop

Disassembly of section .vector_6:

9d0002c0 <__vector_dispatch_6>:
9d0002c0:	0b40266e 	j	9d0099b8 <_DefaultInterrupt>
9d0002c4:	00000000 	nop

Disassembly of section .vector_7:

9d0002e0 <__vector_dispatch_7>:
9d0002e0:	0b40266e 	j	9d0099b8 <_DefaultInterrupt>
9d0002e4:	00000000 	nop

Disassembly of section .vector_8:

9d000300 <__vector_dispatch_8>:
9d000300:	0b40266e 	j	9d0099b8 <_DefaultInterrupt>
9d000304:	00000000 	nop

Disassembly of section .vector_9:

9d000320 <__vector_dispatch_9>:
9d000320:	0b40266e 	j	9d0099b8 <_DefaultInterrupt>
9d000324:	00000000 	nop

Disassembly of section .vector_10:

9d000340 <__vector_dispatch_10>:
9d000340:	0b40266e 	j	9d0099b8 <_DefaultInterrupt>
9d000344:	00000000 	nop

Disassembly of section .vector_11:

9d000360 <__vector_dispatch_11>:
9d000360:	0b40266e 	j	9d0099b8 <_DefaultInterrupt>
9d000364:	00000000 	nop

Disassembly of section .vector_12:

9d000380 <__vector_dispatch_12>:
9d000380:	0b40204f 	j	9d00813c <CurrentControl>
9d000384:	00000000 	nop

Disassembly of section .vector_13:

9d0003a0 <__vector_dispatch_13>:
9d0003a0:	0b40266e 	j	9d0099b8 <_DefaultInterrupt>
9d0003a4:	00000000 	nop

Disassembly of section .vector_14:

9d0003c0 <__vector_dispatch_14>:
9d0003c0:	0b40266e 	j	9d0099b8 <_DefaultInterrupt>
9d0003c4:	00000000 	nop

Disassembly of section .vector_15:

9d0003e0 <__vector_dispatch_15>:
9d0003e0:	0b40266e 	j	9d0099b8 <_DefaultInterrupt>
9d0003e4:	00000000 	nop

Disassembly of section .vector_16:

9d000400 <__vector_dispatch_16>:
9d000400:	0b40249e 	j	9d009278 <PositionControl>
9d000404:	00000000 	nop

Disassembly of section .vector_17:

9d000420 <__vector_dispatch_17>:
9d000420:	0b40266e 	j	9d0099b8 <_DefaultInterrupt>
9d000424:	00000000 	nop

Disassembly of section .vector_18:

9d000440 <__vector_dispatch_18>:
9d000440:	0b40266e 	j	9d0099b8 <_DefaultInterrupt>
9d000444:	00000000 	nop

Disassembly of section .vector_19:

9d000460 <__vector_dispatch_19>:
9d000460:	0b40266e 	j	9d0099b8 <_DefaultInterrupt>
9d000464:	00000000 	nop

Disassembly of section .vector_20:

9d000480 <__vector_dispatch_20>:
9d000480:	0b40266e 	j	9d0099b8 <_DefaultInterrupt>
9d000484:	00000000 	nop

Disassembly of section .vector_21:

9d0004a0 <__vector_dispatch_21>:
9d0004a0:	0b40266e 	j	9d0099b8 <_DefaultInterrupt>
9d0004a4:	00000000 	nop

Disassembly of section .vector_22:

9d0004c0 <__vector_dispatch_22>:
9d0004c0:	0b40266e 	j	9d0099b8 <_DefaultInterrupt>
9d0004c4:	00000000 	nop

Disassembly of section .vector_23:

9d0004e0 <__vector_dispatch_23>:
9d0004e0:	0b40266e 	j	9d0099b8 <_DefaultInterrupt>
9d0004e4:	00000000 	nop

Disassembly of section .vector_24:

9d000500 <__vector_dispatch_24>:
9d000500:	0b40266e 	j	9d0099b8 <_DefaultInterrupt>
9d000504:	00000000 	nop

Disassembly of section .vector_25:

9d000520 <__vector_dispatch_25>:
9d000520:	0b40266e 	j	9d0099b8 <_DefaultInterrupt>
9d000524:	00000000 	nop

Disassembly of section .vector_26:

9d000540 <__vector_dispatch_26>:
9d000540:	0b40266e 	j	9d0099b8 <_DefaultInterrupt>
9d000544:	00000000 	nop

Disassembly of section .vector_27:

9d000560 <__vector_dispatch_27>:
9d000560:	0b40266e 	j	9d0099b8 <_DefaultInterrupt>
9d000564:	00000000 	nop

Disassembly of section .vector_28:

9d000580 <__vector_dispatch_28>:
9d000580:	0b40266e 	j	9d0099b8 <_DefaultInterrupt>
9d000584:	00000000 	nop

Disassembly of section .vector_29:

9d0005a0 <__vector_dispatch_29>:
9d0005a0:	0b40266e 	j	9d0099b8 <_DefaultInterrupt>
9d0005a4:	00000000 	nop

Disassembly of section .vector_30:

9d0005c0 <__vector_dispatch_30>:
9d0005c0:	0b40266e 	j	9d0099b8 <_DefaultInterrupt>
9d0005c4:	00000000 	nop

Disassembly of section .vector_31:

9d0005e0 <__vector_dispatch_31>:
9d0005e0:	0b40266e 	j	9d0099b8 <_DefaultInterrupt>
9d0005e4:	00000000 	nop

Disassembly of section .vector_32:

9d000600 <__vector_dispatch_32>:
9d000600:	0b4018d9 	j	9d006364 <U2ISR>
9d000604:	00000000 	nop

Disassembly of section .vector_33:

9d000620 <__vector_dispatch_33>:
9d000620:	0b40266e 	j	9d0099b8 <_DefaultInterrupt>
9d000624:	00000000 	nop

Disassembly of section .vector_34:

9d000640 <__vector_dispatch_34>:
9d000640:	0b40266e 	j	9d0099b8 <_DefaultInterrupt>
9d000644:	00000000 	nop

Disassembly of section .vector_35:

9d000660 <__vector_dispatch_35>:
9d000660:	0b40266e 	j	9d0099b8 <_DefaultInterrupt>
9d000664:	00000000 	nop

Disassembly of section .vector_36:

9d000680 <__vector_dispatch_36>:
9d000680:	0b40266e 	j	9d0099b8 <_DefaultInterrupt>
9d000684:	00000000 	nop

Disassembly of section .vector_37:

9d0006a0 <__vector_dispatch_37>:
9d0006a0:	0b40266e 	j	9d0099b8 <_DefaultInterrupt>
9d0006a4:	00000000 	nop

Disassembly of section .vector_38:

9d0006c0 <__vector_dispatch_38>:
9d0006c0:	0b40266e 	j	9d0099b8 <_DefaultInterrupt>
9d0006c4:	00000000 	nop

Disassembly of section .vector_39:

9d0006e0 <__vector_dispatch_39>:
9d0006e0:	0b40266e 	j	9d0099b8 <_DefaultInterrupt>
9d0006e4:	00000000 	nop

Disassembly of section .vector_40:

9d000700 <__vector_dispatch_40>:
9d000700:	0b40266e 	j	9d0099b8 <_DefaultInterrupt>
9d000704:	00000000 	nop

Disassembly of section .vector_41:

9d000720 <__vector_dispatch_41>:
9d000720:	0b40266e 	j	9d0099b8 <_DefaultInterrupt>
9d000724:	00000000 	nop

Disassembly of section .vector_42:

9d000740 <__vector_dispatch_42>:
9d000740:	0b40266e 	j	9d0099b8 <_DefaultInterrupt>
9d000744:	00000000 	nop

Disassembly of section .vector_43:

9d000760 <__vector_dispatch_43>:
9d000760:	0b40266e 	j	9d0099b8 <_DefaultInterrupt>
9d000764:	00000000 	nop

Disassembly of section .vector_44:

9d000780 <__vector_dispatch_44>:
9d000780:	0b40266e 	j	9d0099b8 <_DefaultInterrupt>
9d000784:	00000000 	nop

Disassembly of section .vector_45:

9d0007a0 <__vector_dispatch_45>:
9d0007a0:	0b40266e 	j	9d0099b8 <_DefaultInterrupt>
9d0007a4:	00000000 	nop

Disassembly of section .vector_46:

9d0007c0 <__vector_dispatch_46>:
9d0007c0:	0b40266e 	j	9d0099b8 <_DefaultInterrupt>
9d0007c4:	00000000 	nop

Disassembly of section .vector_47:

9d0007e0 <__vector_dispatch_47>:
9d0007e0:	0b40266e 	j	9d0099b8 <_DefaultInterrupt>
9d0007e4:	00000000 	nop

Disassembly of section .vector_48:

9d000800 <__vector_dispatch_48>:
9d000800:	0b40266e 	j	9d0099b8 <_DefaultInterrupt>
9d000804:	00000000 	nop

Disassembly of section .vector_49:

9d000820 <__vector_dispatch_49>:
9d000820:	0b40266e 	j	9d0099b8 <_DefaultInterrupt>
9d000824:	00000000 	nop

Disassembly of section .vector_50:

9d000840 <__vector_dispatch_50>:
9d000840:	0b40266e 	j	9d0099b8 <_DefaultInterrupt>
9d000844:	00000000 	nop

Disassembly of section .vector_51:

9d000860 <__vector_dispatch_51>:
9d000860:	0b40266e 	j	9d0099b8 <_DefaultInterrupt>
9d000864:	00000000 	nop

Disassembly of section .rodata:

9d001e00 <.rodata>:
9d001e00:	00006425 	0x6425
9d001e04:	0a0d6425 	j	98359094 <_bmxdudba_address+0x98339094>
9d001e08:	0c000000 	jal	90000000 <_bmxdudba_address+0x8ffe0000>
9d001e0c:	7465530a 	jalx	91954c28 <_bmxdudba_address+0x91934c28>
9d001e10:	4d575020 	madd.s	$f0,$f10,$f10,$f23
9d001e14:	312d2820 	andi	t5,t1,0x2820
9d001e18:	74203030 	jalx	9080c0c0 <_bmxdudba_address+0x907ec0c0>
9d001e1c:	3031206f 	andi	s1,at,0x206f
9d001e20:	203a2930 	addi	k0,at,10544
9d001e24:	0c000000 	jal	90000000 <_bmxdudba_address+0x8ffe0000>
9d001e28:	57500a0d 	bnel	k0,s0,9d004660 <L33+0x20>
9d001e2c:	6573204d 	0x6573204d
9d001e30:	73612074 	0x73612074
9d001e34:	6425203a 	0x6425203a
9d001e38:	000a0d20 	0xa0d20
9d001e3c:	746f4d0a 	jalx	91bd3428 <_bmxdudba_address+0x91bb3428>
9d001e40:	7320726f 	0x7320726f
9d001e44:	74207465 	jalx	9081d194 <_bmxdudba_address+0x907fd194>
9d001e48:	4449206f 	0x4449206f
9d001e4c:	6d20454c 	0x6d20454c
9d001e50:	2e65646f 	sltiu	a1,s3,25711
9d001e54:	000a0a0d 	break	0xa,0x28
9d001e58:	7275430a 	0x7275430a
9d001e5c:	746e6572 	jalx	91b995c8 <_bmxdudba_address+0x91b795c8>
9d001e60:	646f6d20 	0x646f6d20
9d001e64:	666f2065 	0x666f2065
9d001e68:	6f727020 	0x6f727020
9d001e6c:	6d617267 	0x6d617267
9d001e70:	6425203a 	0x6425203a
9d001e74:	000a0d20 	0xa0d20
9d001e78:	6975470a 	0x6975470a
9d001e7c:	74206564 	jalx	90819590 <_bmxdudba_address+0x907f9590>
9d001e80:	7270206f 	0x7270206f
9d001e84:	6172676f 	0x6172676f
9d001e88:	6f6d206d 	0x6f6d206d
9d001e8c:	3a736564 	xori	s3,s3,0x6564
9d001e90:	490a0d20 	bc2fl	$cc2,9d005314 <L12>
9d001e94:	20454c44 	addi	a1,v0,19524
9d001e98:	65646f4d 	0x65646f4d
9d001e9c:	6425203a 	0x6425203a
9d001ea0:	500a0d20 	beql	zero,t2,9d005324 <L11+0x4>
9d001ea4:	4d204d57 	0x4d204d57
9d001ea8:	3a65646f 	xori	a1,s3,0x646f
9d001eac:	20642520 	addi	a0,v1,9504
9d001eb0:	54490a0d 	bnel	v0,t1,9d0046e8 <L36+0x4>
9d001eb4:	20545345 	addi	s4,v0,21317
9d001eb8:	65646f4d 	0x65646f4d
9d001ebc:	6425203a 	0x6425203a
9d001ec0:	480a0d20 	0x480a0d20
9d001ec4:	20444c4f 	addi	a0,v0,19535
9d001ec8:	65646f4d 	0x65646f4d
9d001ecc:	6425203a 	0x6425203a
9d001ed0:	540a0d20 	bnel	zero,t2,9d005354 <i8+0xc>
9d001ed4:	4b434152 	c2	0x1434152
9d001ed8:	646f4d20 	0x646f4d20
9d001edc:	25203a65 	addiu	zero,t1,14949
9d001ee0:	0a0d2064 	j	98348190 <_bmxdudba_address+0x98328190>
9d001ee4:	0c00000a 	jal	90000028 <_bmxdudba_address+0x8ffe0028>
9d001ee8:	00006425 	0x6425
9d001eec:	6c756e28 	0x6c756e28
9d001ef0:	0000296c 	0x296c
9d001ef4:	33323130 	andi	s2,t9,0x3130
9d001ef8:	37363534 	ori	s6,t9,0x3534
9d001efc:	42413938 	c0	0x413938
9d001f00:	46454443 	c1	0x454443
9d001f04:	64636261 	0x64636261
9d001f08:	00006665 	0x6665
9d001f0c:	33323130 	andi	s2,t9,0x3130
9d001f10:	37363534 	ori	s6,t9,0x3534
9d001f14:	00000000 	nop
9d001f18:	33323130 	andi	s2,t9,0x3130
9d001f1c:	37363534 	ori	s6,t9,0x3534
9d001f20:	00003938 	0x3938

Disassembly of section ._debug_exception:

bfc00480 <__DbgExecReturn>:
bfc00480:	409bf800 	mtc0	k1,c0_desave
bfc00484:	000000c0 	ehb
bfc00488:	3c1b9d01 	lui	k1,0x9d01
bfc0048c:	277b9a48 	addiu	k1,k1,-26040
bfc00490:	13600002 	beqz	k1,bfc0049c <__DbgExecReturn+0x1c>
bfc00494:	00000000 	nop
bfc00498:	409bc000 	mtc0	k1,c0_depc
bfc0049c:	401bf800 	mfc0	k1,c0_desave
bfc004a0:	000000c0 	ehb
bfc004a4:	4200001f 	deret
bfc004a8:	00000000 	nop

Disassembly of section .text.do_scan:

9d001f24 <do_scan>:
9d001f24:	8c820018 	lw	v0,24(a0)
9d001f28:	27bdfef0 	addiu	sp,sp,-272
9d001f2c:	afb100ec 	sw	s1,236(sp)
9d001f30:	8c420010 	lw	v0,16(v0)
9d001f34:	afb000e8 	sw	s0,232(sp)
9d001f38:	afbf010c 	sw	ra,268(sp)
9d001f3c:	afbe0108 	sw	s8,264(sp)
9d001f40:	afb70104 	sw	s7,260(sp)
9d001f44:	afb60100 	sw	s6,256(sp)
9d001f48:	afb500fc 	sw	s5,252(sp)
9d001f4c:	afb400f8 	sw	s4,248(sp)
9d001f50:	afb300f4 	sw	s3,244(sp)
9d001f54:	afb200f0 	sw	s2,240(sp)
9d001f58:	00a08825 	move	s1,a1
9d001f5c:	24050002 	li	a1,2
9d001f60:	afa40110 	sw	a0,272(sp)
9d001f64:	0040f809 	jalr	v0
9d001f68:	00c08025 	move	s0,a2
9d001f6c:	1440000e 	bnez	v0,9d001fa8 <do_scan+0x84>
9d001f70:	8fa20110 	lw	v0,272(sp)
9d001f74:	2402ffff 	li	v0,-1
9d001f78:	8fbf010c 	lw	ra,268(sp)
9d001f7c:	8fbe0108 	lw	s8,264(sp)
9d001f80:	8fb70104 	lw	s7,260(sp)
9d001f84:	8fb60100 	lw	s6,256(sp)
9d001f88:	8fb500fc 	lw	s5,252(sp)
9d001f8c:	8fb400f8 	lw	s4,248(sp)
9d001f90:	8fb300f4 	lw	s3,244(sp)
9d001f94:	8fb200f0 	lw	s2,240(sp)
9d001f98:	8fb100ec 	lw	s1,236(sp)
9d001f9c:	8fb000e8 	lw	s0,232(sp)
9d001fa0:	03e00008 	jr	ra
9d001fa4:	27bd0110 	addiu	sp,sp,272
9d001fa8:	3c169d00 	lui	s6,0x9d00
9d001fac:	3c139d01 	lui	s3,0x9d01
9d001fb0:	afa200b4 	sw	v0,180(sp)
9d001fb4:	2402ffff 	li	v0,-1
9d001fb8:	afa200b8 	sw	v0,184(sp)
9d001fbc:	26c22134 	addiu	v0,s6,8500
9d001fc0:	afb100bc 	sw	s1,188(sp)
9d001fc4:	afb000c0 	sw	s0,192(sp)
9d001fc8:	afa000c8 	sw	zero,200(sp)
9d001fcc:	afa000cc 	sw	zero,204(sp)
9d001fd0:	afa000c4 	sw	zero,196(sp)
9d001fd4:	0000a825 	move	s5,zero
9d001fd8:	2673864d 	addiu	s3,s3,-31155
9d001fdc:	afa200e0 	sw	v0,224(sp)
9d001fe0:	8fa200bc 	lw	v0,188(sp)
9d001fe4:	24440001 	addiu	a0,v0,1
9d001fe8:	afa400bc 	sw	a0,188(sp)
9d001fec:	80500000 	lb	s0,0(v0)
9d001ff0:	12000004 	beqz	s0,9d002004 <do_scan+0xe0>
9d001ff4:	8fa400b8 	lw	a0,184(sp)
9d001ff8:	12a00013 	beqz	s5,9d002048 <do_scan+0x124>
9d001ffc:	24040025 	li	a0,37
9d002000:	8fa400b8 	lw	a0,184(sp)
9d002004:	2402ffff 	li	v0,-1
9d002008:	10820007 	beq	a0,v0,9d002028 <do_scan+0x104>
9d00200c:	8fa20110 	lw	v0,272(sp)
9d002010:	94420010 	lhu	v0,16(v0)
9d002014:	30420080 	andi	v0,v0,0x80
9d002018:	14400004 	bnez	v0,9d00202c <do_scan+0x108>
9d00201c:	2402ffff 	li	v0,-1
9d002020:	0f40228f 	jal	9d008a3c <ungetc>
9d002024:	8fa500b4 	lw	a1,180(sp)
9d002028:	2402ffff 	li	v0,-1
9d00202c:	16a2ffd2 	bne	s5,v0,9d001f78 <do_scan+0x54>
9d002030:	8fa200cc 	lw	v0,204(sp)
9d002034:	8fa200c8 	lw	v0,200(sp)
9d002038:	1040ffce 	beqz	v0,9d001f74 <do_scan+0x50>
9d00203c:	8fa200cc 	lw	v0,204(sp)
9d002040:	1000ffce 	b	9d001f7c <do_scan+0x58>
9d002044:	8fbf010c 	lw	ra,268(sp)
9d002048:	56040237 	bnel	s0,a0,9d002928 <__jend_do_scan_80+0x720>
9d00204c:	02131021 	addu	v0,s0,s3
9d002050:	24440002 	addiu	a0,v0,2
9d002054:	afa400bc 	sw	a0,188(sp)
9d002058:	80540001 	lb	s4,1(v0)
9d00205c:	1690000d 	bne	s4,s0,9d002094 <do_scan+0x170>
9d002060:	2404002a 	li	a0,42
9d002064:	0f4025e2 	jal	9d009788 <gsgetc>
9d002068:	27a400b4 	addiu	a0,sp,180
9d00206c:	2403ffff 	li	v1,-1
9d002070:	14430004 	bne	v0,v1,9d002084 <do_scan+0x160>
9d002074:	2416ffff 	li	s6,-1
9d002078:	02c0a825 	move	s5,s6
9d00207c:	1000ffd9 	b	9d001fe4 <do_scan+0xc0>
9d002080:	8fa200bc 	lw	v0,188(sp)
9d002084:	54540238 	bnel	v0,s4,9d002968 <__jend_do_scan_80+0x760>
9d002088:	afa200b8 	sw	v0,184(sp)
9d00208c:	1000fffa 	b	9d002078 <do_scan+0x154>
9d002090:	0000b025 	move	s6,zero
9d002094:	16840005 	bne	s4,a0,9d0020ac <do_scan+0x188>
9d002098:	00008025 	move	s0,zero
9d00209c:	24440003 	addiu	a0,v0,3
9d0020a0:	afa400bc 	sw	a0,188(sp)
9d0020a4:	80540002 	lb	s4,2(v0)
9d0020a8:	24100001 	li	s0,1
9d0020ac:	02931021 	addu	v0,s4,s3
9d0020b0:	90420000 	lbu	v0,0(v0)
9d0020b4:	30420004 	andi	v0,v0,0x4
9d0020b8:	10400053 	beqz	v0,9d002208 <__jend_do_scan_80>
9d0020bc:	3c117fff 	lui	s1,0x7fff
9d0020c0:	8fa400bc 	lw	a0,188(sp)
9d0020c4:	2406000a 	li	a2,10
9d0020c8:	27a500bc 	addiu	a1,sp,188
9d0020cc:	2484ffff 	addiu	a0,a0,-1
9d0020d0:	0f401e99 	jal	9d007a64 <strtoul>
9d0020d4:	afa400bc 	sw	a0,188(sp)
9d0020d8:	00408825 	move	s1,v0
9d0020dc:	8fa200bc 	lw	v0,188(sp)
9d0020e0:	24440001 	addiu	a0,v0,1
9d0020e4:	afa400bc 	sw	a0,188(sp)
9d0020e8:	80540000 	lb	s4,0(v0)
9d0020ec:	24040068 	li	a0,104
9d0020f0:	1284004d 	beq	s4,a0,9d002228 <__jend_do_scan_80+0x20>
9d0020f4:	2a820069 	slti	v0,s4,105
9d0020f8:	50400045 	beqzl	v0,9d002210 <__jend_do_scan_80+0x8>
9d0020fc:	2404006c 	li	a0,108
9d002100:	2402004c 	li	v0,76
9d002104:	5282005e 	beql	s4,v0,9d002280 <__jend_do_scan_80+0x78>
9d002108:	36100400 	ori	s0,s0,0x400
9d00210c:	2694ffbc 	addiu	s4,s4,-68
9d002110:	2e820035 	sltiu	v0,s4,53
9d002114:	1040ffd8 	beqz	v0,9d002078 <do_scan+0x154>
9d002118:	24160001 	li	s6,1
9d00211c:	8fa200e0 	lw	v0,224(sp)
9d002120:	0014a080 	sll	s4,s4,0x2
9d002124:	0054a021 	addu	s4,v0,s4
9d002128:	8e820000 	lw	v0,0(s4)
9d00212c:	00400008 	jr	v0
9d002130:	00000000 	nop

9d002134 <__jump_do_scan_80>:
9d002134:	9d002378 9d0025ec 9d0025ec 9d0025ec     x#...%...%...%..
9d002144:	9d002500 9d002500 9d002500 9d002500     .%...%...%...%..
9d002154:	9d002500 9d002500 9d002500 9d002388     .%...%...%...#..
9d002164:	9d002500 9d002500 9d002500 9d002500     .%...%...%...%..
9d002174:	9d002500 9d002394 9d002500 9d002500     .%...#...%...%..
9d002184:	9d00239c 9d002500 9d002500 9d00285c     .#...%...%..\(..
9d002194:	9d002500 9d002500 9d002500 9d002500     .%...%...%...%..
9d0021a4:	9d002500 9d002500 9d002500 9d002878     .%...%...%..x(..
9d0021b4:	9d00237c 9d0025ec 9d0025ec 9d0025ec     |#...%...%...%..
9d0021c4:	9d002500 9d002294 9d002500 9d002500     .%..."...%...%..
9d0021d4:	9d002500 9d002500 9d0028a4 9d00238c     .%...%...(...#..
9d0021e4:	9d00239c 9d002500 9d002500 9d002824     .#...%...%..$(..
9d0021f4:	9d002500 9d002380 9d002500 9d002500     .%...#...%...%..
9d002204:	9d00239c                                .#..

9d002208 <__jend_do_scan_80>:
9d002208:	1000ffb8 	b	9d0020ec <do_scan+0x1c8>
9d00220c:	3631ffff 	ori	s1,s1,0xffff
9d002210:	12840010 	beq	s4,a0,9d002254 <__jend_do_scan_80+0x4c>
9d002214:	24020071 	li	v0,113
9d002218:	5682ffbd 	bnel	s4,v0,9d002110 <do_scan+0x1ec>
9d00221c:	2694ffbc 	addiu	s4,s4,-68
9d002220:	10000017 	b	9d002280 <__jend_do_scan_80+0x78>
9d002224:	36100800 	ori	s0,s0,0x800
9d002228:	8fa200bc 	lw	v0,188(sp)
9d00222c:	24450001 	addiu	a1,v0,1
9d002230:	afa500bc 	sw	a1,188(sp)
9d002234:	80540000 	lb	s4,0(v0)
9d002238:	5684ffb4 	bnel	s4,a0,9d00210c <do_scan+0x1e8>
9d00223c:	36100100 	ori	s0,s0,0x100
9d002240:	24440002 	addiu	a0,v0,2
9d002244:	afa400bc 	sw	a0,188(sp)
9d002248:	80540001 	lb	s4,1(v0)
9d00224c:	1000ffaf 	b	9d00210c <do_scan+0x1e8>
9d002250:	36100080 	ori	s0,s0,0x80
9d002254:	8fa200bc 	lw	v0,188(sp)
9d002258:	24450001 	addiu	a1,v0,1
9d00225c:	afa500bc 	sw	a1,188(sp)
9d002260:	80540000 	lb	s4,0(v0)
9d002264:	5684ffa9 	bnel	s4,a0,9d00210c <do_scan+0x1e8>
9d002268:	36100200 	ori	s0,s0,0x200
9d00226c:	24440002 	addiu	a0,v0,2
9d002270:	afa400bc 	sw	a0,188(sp)
9d002274:	80540001 	lb	s4,1(v0)
9d002278:	1000ffa4 	b	9d00210c <do_scan+0x1e8>
9d00227c:	36100800 	ori	s0,s0,0x800
9d002280:	8fa200bc 	lw	v0,188(sp)
9d002284:	24440001 	addiu	a0,v0,1
9d002288:	afa400bc 	sw	a0,188(sp)
9d00228c:	1000ff9f 	b	9d00210c <do_scan+0x1e8>
9d002290:	80540000 	lb	s4,0(v0)
9d002294:	36101000 	ori	s0,s0,0x1000
9d002298:	0f4024bc 	jal	9d0092f0 <_eat_white>
9d00229c:	27a400b4 	addiu	a0,sp,180
9d0022a0:	1440ff75 	bnez	v0,9d002078 <do_scan+0x154>
9d0022a4:	0040b025 	move	s6,v0
9d0022a8:	27a20018 	addiu	v0,sp,24
9d0022ac:	122001b2 	beqz	s1,9d002978 <__jend_do_scan_80+0x770>
9d0022b0:	afa200d0 	sw	v0,208(sp)
9d0022b4:	0f4025e2 	jal	9d009788 <gsgetc>
9d0022b8:	27a400b4 	addiu	a0,sp,180
9d0022bc:	0040b025 	move	s6,v0
9d0022c0:	2402ffff 	li	v0,-1
9d0022c4:	12c201b8 	beq	s6,v0,9d0029a8 <__jend_do_scan_80+0x7a0>
9d0022c8:	2402002b 	li	v0,43
9d0022cc:	12c20004 	beq	s6,v0,9d0022e0 <__jend_do_scan_80+0xd8>
9d0022d0:	2634ffff 	addiu	s4,s1,-1
9d0022d4:	2402002d 	li	v0,45
9d0022d8:	16c2000d 	bne	s6,v0,9d002310 <__jend_do_scan_80+0x108>
9d0022dc:	00000000 	nop
9d0022e0:	8fa200d0 	lw	v0,208(sp)
9d0022e4:	24440001 	addiu	a0,v0,1
9d0022e8:	afa400d0 	sw	a0,208(sp)
9d0022ec:	128001a2 	beqz	s4,9d002978 <__jend_do_scan_80+0x770>
9d0022f0:	a0560000 	sb	s6,0(v0)
9d0022f4:	0f4025e2 	jal	9d009788 <gsgetc>
9d0022f8:	27a400b4 	addiu	a0,sp,180
9d0022fc:	0040b025 	move	s6,v0
9d002300:	2402ffff 	li	v0,-1
9d002304:	12c2019d 	beq	s6,v0,9d00297c <__jend_do_scan_80+0x774>
9d002308:	00000000 	nop
9d00230c:	2634fffe 	addiu	s4,s1,-2
9d002310:	16a0002e 	bnez	s5,9d0023cc <__jend_do_scan_80+0x1c4>
9d002314:	8fa200d0 	lw	v0,208(sp)
9d002318:	24030030 	li	v1,48
9d00231c:	16c3007e 	bne	s6,v1,9d002518 <__jend_do_scan_80+0x310>
9d002320:	24430001 	addiu	v1,v0,1
9d002324:	afa300d0 	sw	v1,208(sp)
9d002328:	a0560000 	sb	s6,0(v0)
9d00232c:	12800077 	beqz	s4,9d00250c <__jend_do_scan_80+0x304>
9d002330:	2416ffff 	li	s6,-1
9d002334:	0f4025e2 	jal	9d009788 <gsgetc>
9d002338:	27a400b4 	addiu	a0,sp,180
9d00233c:	2415ffff 	li	s5,-1
9d002340:	10550072 	beq	v0,s5,9d00250c <__jend_do_scan_80+0x304>
9d002344:	0040b025 	move	s6,v0
9d002348:	24040058 	li	a0,88
9d00234c:	7c022944 	ins	v0,zero,0x5,0x1
9d002350:	1444006d 	bne	v0,a0,9d002508 <__jend_do_scan_80+0x300>
9d002354:	2697ffff 	addiu	s7,s4,-1
9d002358:	16e00012 	bnez	s7,9d0023a4 <__jend_do_scan_80+0x19c>
9d00235c:	00000000 	nop
9d002360:	2416ffff 	li	s6,-1
9d002364:	0000a025 	move	s4,zero
9d002368:	24150010 	li	s5,16
9d00236c:	3c1e9d00 	lui	s8,0x9d00
9d002370:	1000018b 	b	9d0029a0 <__jend_do_scan_80+0x798>
9d002374:	27de1ef4 	addiu	s8,s8,7924
9d002378:	36100200 	ori	s0,s0,0x200
9d00237c:	36101000 	ori	s0,s0,0x1000
9d002380:	1000ffc5 	b	9d002298 <__jend_do_scan_80+0x90>
9d002384:	2415000a 	li	s5,10
9d002388:	36100200 	ori	s0,s0,0x200
9d00238c:	1000ffc2 	b	9d002298 <__jend_do_scan_80+0x90>
9d002390:	24150008 	li	s5,8
9d002394:	1000fffa 	b	9d002380 <__jend_do_scan_80+0x178>
9d002398:	36100200 	ori	s0,s0,0x200
9d00239c:	1000ffbe 	b	9d002298 <__jend_do_scan_80+0x90>
9d0023a0:	24150010 	li	s5,16
9d0023a4:	0f4025e2 	jal	9d009788 <gsgetc>
9d0023a8:	27a400b4 	addiu	a0,sp,180
9d0023ac:	3c1e9d00 	lui	s8,0x9d00
9d0023b0:	0040b025 	move	s6,v0
9d0023b4:	27de1ef4 	addiu	s8,s8,7924
9d0023b8:	14550002 	bne	v0,s5,9d0023c4 <__jend_do_scan_80+0x1bc>
9d0023bc:	2694fffe 	addiu	s4,s4,-2
9d0023c0:	02e0a025 	move	s4,s7
9d0023c4:	10000176 	b	9d0029a0 <__jend_do_scan_80+0x798>
9d0023c8:	24150010 	li	s5,16
9d0023cc:	24040010 	li	a0,16
9d0023d0:	56a4016f 	bnel	s5,a0,9d002990 <__jend_do_scan_80+0x788>
9d0023d4:	24020008 	li	v0,8
9d0023d8:	3c179d00 	lui	s7,0x9d00
9d0023dc:	26f71ef4 	addiu	s7,s7,7924
9d0023e0:	24040030 	li	a0,48
9d0023e4:	16c4016e 	bne	s6,a0,9d0029a0 <__jend_do_scan_80+0x798>
9d0023e8:	02e0f025 	move	s8,s7
9d0023ec:	24440001 	addiu	a0,v0,1
9d0023f0:	afa400d0 	sw	a0,208(sp)
9d0023f4:	1280ffda 	beqz	s4,9d002360 <__jend_do_scan_80+0x158>
9d0023f8:	a0560000 	sb	s6,0(v0)
9d0023fc:	0f4025e2 	jal	9d009788 <gsgetc>
9d002400:	27a400b4 	addiu	a0,sp,180
9d002404:	2405ffff 	li	a1,-1
9d002408:	10450165 	beq	v0,a1,9d0029a0 <__jend_do_scan_80+0x798>
9d00240c:	0040b025 	move	s6,v0
9d002410:	24040058 	li	a0,88
9d002414:	7c022944 	ins	v0,zero,0x5,0x1
9d002418:	14440009 	bne	v0,a0,9d002440 <__jend_do_scan_80+0x238>
9d00241c:	269effff 	addiu	s8,s4,-1
9d002420:	13c0ffd0 	beqz	s8,9d002364 <__jend_do_scan_80+0x15c>
9d002424:	2416ffff 	li	s6,-1
9d002428:	0f4025e2 	jal	9d009788 <gsgetc>
9d00242c:	27a400b4 	addiu	a0,sp,180
9d002430:	2405ffff 	li	a1,-1
9d002434:	0040b025 	move	s6,v0
9d002438:	14450002 	bne	v0,a1,9d002444 <__jend_do_scan_80+0x23c>
9d00243c:	2694fffe 	addiu	s4,s4,-2
9d002440:	03c0a025 	move	s4,s8
9d002444:	10000156 	b	9d0029a0 <__jend_do_scan_80+0x798>
9d002448:	02e0f025 	move	s8,s7
9d00244c:	24c20001 	addiu	v0,a2,1
9d002450:	afa200d0 	sw	v0,208(sp)
9d002454:	12800034 	beqz	s4,9d002528 <__jend_do_scan_80+0x320>
9d002458:	a0d60000 	sb	s6,0(a2)
9d00245c:	0f4025e2 	jal	9d009788 <gsgetc>
9d002460:	27a400b4 	addiu	a0,sp,180
9d002464:	10570002 	beq	v0,s7,9d002470 <__jend_do_scan_80+0x268>
9d002468:	0040b025 	move	s6,v0
9d00246c:	2694ffff 	addiu	s4,s4,-1
9d002470:	8fa600d0 	lw	a2,208(sp)
9d002474:	12d70006 	beq	s6,s7,9d002490 <__jend_do_scan_80+0x288>
9d002478:	afa600e4 	sw	a2,228(sp)
9d00247c:	02c02825 	move	a1,s6
9d002480:	0f402435 	jal	9d0090d4 <strchr>
9d002484:	03c02025 	move	a0,s8
9d002488:	1440fff0 	bnez	v0,9d00244c <__jend_do_scan_80+0x244>
9d00248c:	8fa600e4 	lw	a2,228(sp)
9d002490:	8fa200d0 	lw	v0,208(sp)
9d002494:	a0400000 	sb	zero,0(v0)
9d002498:	2402ffff 	li	v0,-1
9d00249c:	12c20005 	beq	s6,v0,9d0024b4 <__jend_do_scan_80+0x2ac>
9d0024a0:	8fa200c4 	lw	v0,196(sp)
9d0024a4:	26940001 	addiu	s4,s4,1
9d0024a8:	afb600b8 	sw	s6,184(sp)
9d0024ac:	2442ffff 	addiu	v0,v0,-1
9d0024b0:	afa200c4 	sw	v0,196(sp)
9d0024b4:	32170800 	andi	s7,s0,0x800
9d0024b8:	321e1000 	andi	s8,s0,0x1000
9d0024bc:	02a03025 	move	a2,s5
9d0024c0:	27a500d0 	addiu	a1,sp,208
9d0024c4:	12e0001e 	beqz	s7,9d002540 <__jend_do_scan_80+0x338>
9d0024c8:	27a40018 	addiu	a0,sp,24
9d0024cc:	13c00018 	beqz	s8,9d002530 <__jend_do_scan_80+0x328>
9d0024d0:	00000000 	nop
9d0024d4:	0f401982 	jal	9d006608 <strtoll>
9d0024d8:	00000000 	nop
9d0024dc:	afa200d8 	sw	v0,216(sp)
9d0024e0:	afa300dc 	sw	v1,220(sp)
9d0024e4:	8fa200c8 	lw	v0,200(sp)
9d0024e8:	24420001 	addiu	v0,v0,1
9d0024ec:	1634001e 	bne	s1,s4,9d002568 <__jend_do_scan_80+0x360>
9d0024f0:	afa200c8 	sw	v0,200(sp)
9d0024f4:	2402ffff 	li	v0,-1
9d0024f8:	52c2fee0 	beql	s6,v0,9d00207c <do_scan+0x158>
9d0024fc:	02c0a825 	move	s5,s6
9d002500:	1000fedd 	b	9d002078 <do_scan+0x154>
9d002504:	24160001 	li	s6,1
9d002508:	02e0a025 	move	s4,s7
9d00250c:	10000122 	b	9d002998 <__jend_do_scan_80+0x790>
9d002510:	24150008 	li	s5,8
9d002514:	2416ffff 	li	s6,-1
9d002518:	2415000a 	li	s5,10
9d00251c:	3c1e9d00 	lui	s8,0x9d00
9d002520:	1000011f 	b	9d0029a0 <__jend_do_scan_80+0x798>
9d002524:	27de1f18 	addiu	s8,s8,7960
9d002528:	1000ffd9 	b	9d002490 <__jend_do_scan_80+0x288>
9d00252c:	2416ffff 	li	s6,-1
9d002530:	0f401b69 	jal	9d006da4 <strtoull>
9d002534:	00000000 	nop
9d002538:	1000ffe9 	b	9d0024e0 <__jend_do_scan_80+0x2d8>
9d00253c:	afa200d8 	sw	v0,216(sp)
9d002540:	13c00005 	beqz	s8,9d002558 <__jend_do_scan_80+0x350>
9d002544:	00000000 	nop
9d002548:	0f401e23 	jal	9d00788c <strtol>
9d00254c:	00000000 	nop
9d002550:	1000ffe4 	b	9d0024e4 <__jend_do_scan_80+0x2dc>
9d002554:	00409025 	move	s2,v0
9d002558:	0f401e99 	jal	9d007a64 <strtoul>
9d00255c:	00000000 	nop
9d002560:	1000ffe0 	b	9d0024e4 <__jend_do_scan_80+0x2dc>
9d002564:	00409025 	move	s2,v0
9d002568:	32160001 	andi	s6,s0,0x1
9d00256c:	56c0fec2 	bnezl	s6,9d002078 <do_scan+0x154>
9d002570:	0000b025 	move	s6,zero
9d002574:	8fa200c0 	lw	v0,192(sp)
9d002578:	12e0000b 	beqz	s7,9d0025a8 <__jend_do_scan_80+0x3a0>
9d00257c:	24430004 	addiu	v1,v0,4
9d002580:	afa300c0 	sw	v1,192(sp)
9d002584:	8c420000 	lw	v0,0(v0)
9d002588:	8fa400d8 	lw	a0,216(sp)
9d00258c:	8fa500dc 	lw	a1,220(sp)
9d002590:	ac440000 	sw	a0,0(v0)
9d002594:	ac450004 	sw	a1,4(v0)
9d002598:	8fa200cc 	lw	v0,204(sp)
9d00259c:	24420001 	addiu	v0,v0,1
9d0025a0:	1000feb5 	b	9d002078 <do_scan+0x154>
9d0025a4:	afa200cc 	sw	v0,204(sp)
9d0025a8:	32040200 	andi	a0,s0,0x200
9d0025ac:	10800005 	beqz	a0,9d0025c4 <__jend_do_scan_80+0x3bc>
9d0025b0:	32040100 	andi	a0,s0,0x100
9d0025b4:	afa300c0 	sw	v1,192(sp)
9d0025b8:	8c420000 	lw	v0,0(v0)
9d0025bc:	1000fff6 	b	9d002598 <__jend_do_scan_80+0x390>
9d0025c0:	ac520000 	sw	s2,0(v0)
9d0025c4:	10800004 	beqz	a0,9d0025d8 <__jend_do_scan_80+0x3d0>
9d0025c8:	afa300c0 	sw	v1,192(sp)
9d0025cc:	8c420000 	lw	v0,0(v0)
9d0025d0:	1000fff1 	b	9d002598 <__jend_do_scan_80+0x390>
9d0025d4:	a4520000 	sh	s2,0(v0)
9d0025d8:	32100080 	andi	s0,s0,0x80
9d0025dc:	1200fff7 	beqz	s0,9d0025bc <__jend_do_scan_80+0x3b4>
9d0025e0:	8c420000 	lw	v0,0(v0)
9d0025e4:	1000ffec 	b	9d002598 <__jend_do_scan_80+0x390>
9d0025e8:	a0520000 	sb	s2,0(v0)
9d0025ec:	27b700b4 	addiu	s7,sp,180
9d0025f0:	0f4024bc 	jal	9d0092f0 <_eat_white>
9d0025f4:	02e02025 	move	a0,s7
9d0025f8:	1440fe9f 	bnez	v0,9d002078 <do_scan+0x154>
9d0025fc:	0040b025 	move	s6,v0
9d002600:	27a20110 	addiu	v0,sp,272
9d002604:	afa200b0 	sw	v0,176(sp)
9d002608:	27a20018 	addiu	v0,sp,24
9d00260c:	afa200a0 	sw	v0,160(sp)
9d002610:	24020080 	li	v0,128
9d002614:	afb1009c 	sw	s1,156(sp)
9d002618:	afb70098 	sw	s7,152(sp)
9d00261c:	afa000a4 	sw	zero,164(sp)
9d002620:	afa200a8 	sw	v0,168(sp)
9d002624:	12200070 	beqz	s1,9d0027e8 <__jend_do_scan_80+0x5e0>
9d002628:	afa000ac 	sw	zero,172(sp)
9d00262c:	0f4025e2 	jal	9d009788 <gsgetc>
9d002630:	02e02025 	move	a0,s7
9d002634:	0040b825 	move	s7,v0
9d002638:	2402ffff 	li	v0,-1
9d00263c:	12e2006a 	beq	s7,v0,9d0027e8 <__jend_do_scan_80+0x5e0>
9d002640:	8fa2009c 	lw	v0,156(sp)
9d002644:	2442ffff 	addiu	v0,v0,-1
9d002648:	afa2009c 	sw	v0,156(sp)
9d00264c:	2402002b 	li	v0,43
9d002650:	12e20003 	beq	s7,v0,9d002660 <__jend_do_scan_80+0x458>
9d002654:	2402002d 	li	v0,45
9d002658:	16e20006 	bne	s7,v0,9d002674 <__jend_do_scan_80+0x46c>
9d00265c:	00008825 	move	s1,zero
9d002660:	02e02025 	move	a0,s7
9d002664:	0f402334 	jal	9d008cd0 <putget.2903>
9d002668:	27af0098 	addiu	t7,sp,152
9d00266c:	0040b825 	move	s7,v0
9d002670:	24110001 	li	s1,1
9d002674:	02771021 	addu	v0,s3,s7
9d002678:	90420000 	lbu	v0,0(v0)
9d00267c:	30420004 	andi	v0,v0,0x4
9d002680:	14400055 	bnez	v0,9d0027d8 <__jend_do_scan_80+0x5d0>
9d002684:	02e02025 	move	a0,s7
9d002688:	2402002e 	li	v0,46
9d00268c:	16e2000c 	bne	s7,v0,9d0026c0 <__jend_do_scan_80+0x4b8>
9d002690:	8fa200ac 	lw	v0,172(sp)
9d002694:	27af0098 	addiu	t7,sp,152
9d002698:	2404002e 	li	a0,46
9d00269c:	0f402334 	jal	9d008cd0 <putget.2903>
9d0026a0:	00000000 	nop
9d0026a4:	0040b825 	move	s7,v0
9d0026a8:	02621021 	addu	v0,s3,v0
9d0026ac:	90420000 	lbu	v0,0(v0)
9d0026b0:	30420004 	andi	v0,v0,0x4
9d0026b4:	1440004f 	bnez	v0,9d0027f4 <__jend_do_scan_80+0x5ec>
9d0026b8:	27af0098 	addiu	t7,sp,152
9d0026bc:	8fa200ac 	lw	v0,172(sp)
9d0026c0:	00511023 	subu	v0,v0,s1
9d0026c4:	18400016 	blez	v0,9d002720 <__jend_do_scan_80+0x518>
9d0026c8:	02e01025 	move	v0,s7
9d0026cc:	24030045 	li	v1,69
9d0026d0:	7c022944 	ins	v0,zero,0x5,0x1
9d0026d4:	14430013 	bne	v0,v1,9d002724 <__jend_do_scan_80+0x51c>
9d0026d8:	27af0098 	addiu	t7,sp,152
9d0026dc:	02e02025 	move	a0,s7
9d0026e0:	0f402334 	jal	9d008cd0 <putget.2903>
9d0026e4:	27af0098 	addiu	t7,sp,152
9d0026e8:	0040b825 	move	s7,v0
9d0026ec:	2442ffd5 	addiu	v0,v0,-43
9d0026f0:	7c020844 	ins	v0,zero,0x1,0x1
9d0026f4:	14400006 	bnez	v0,9d002710 <__jend_do_scan_80+0x508>
9d0026f8:	02771021 	addu	v0,s3,s7
9d0026fc:	02e02025 	move	a0,s7
9d002700:	0f402334 	jal	9d008cd0 <putget.2903>
9d002704:	27af0098 	addiu	t7,sp,152
9d002708:	0040b825 	move	s7,v0
9d00270c:	02771021 	addu	v0,s3,s7
9d002710:	90420000 	lbu	v0,0(v0)
9d002714:	30420004 	andi	v0,v0,0x4
9d002718:	1440fff9 	bnez	v0,9d002700 <__jend_do_scan_80+0x4f8>
9d00271c:	02e02025 	move	a0,s7
9d002720:	27af0098 	addiu	t7,sp,152
9d002724:	0f402334 	jal	9d008cd0 <putget.2903>
9d002728:	00002025 	move	a0,zero
9d00272c:	2402ffff 	li	v0,-1
9d002730:	12e20008 	beq	s7,v0,9d002754 <__jend_do_scan_80+0x54c>
9d002734:	8fa2009c 	lw	v0,156(sp)
9d002738:	24420001 	addiu	v0,v0,1
9d00273c:	afa2009c 	sw	v0,156(sp)
9d002740:	8fa20098 	lw	v0,152(sp)
9d002744:	8c430010 	lw	v1,16(v0)
9d002748:	ac570004 	sw	s7,4(v0)
9d00274c:	2463ffff 	addiu	v1,v1,-1
9d002750:	ac430010 	sw	v1,16(v0)
9d002754:	8fa200ac 	lw	v0,172(sp)
9d002758:	00518823 	subu	s1,v0,s1
9d00275c:	1a20002f 	blez	s1,9d00281c <__jend_do_scan_80+0x614>
9d002760:	8fa20098 	lw	v0,152(sp)
9d002764:	8c430014 	lw	v1,20(v0)
9d002768:	24630001 	addiu	v1,v1,1
9d00276c:	ac430014 	sw	v1,20(v0)
9d002770:	32030001 	andi	v1,s0,0x1
9d002774:	14600012 	bnez	v1,9d0027c0 <__jend_do_scan_80+0x5b8>
9d002778:	8fa400a4 	lw	a0,164(sp)
9d00277c:	8c43000c 	lw	v1,12(v0)
9d002780:	32060400 	andi	a2,s0,0x400
9d002784:	8fa400a0 	lw	a0,160(sp)
9d002788:	10c0001c 	beqz	a2,9d0027fc <__jend_do_scan_80+0x5f4>
9d00278c:	24650004 	addiu	a1,v1,4
9d002790:	ac45000c 	sw	a1,12(v0)
9d002794:	8c700000 	lw	s0,0(v1)
9d002798:	0f402736 	jal	9d009cd8 <strtod>
9d00279c:	00002825 	move	a1,zero
9d0027a0:	ae020000 	sw	v0,0(s0)
9d0027a4:	ae030004 	sw	v1,4(s0)
9d0027a8:	8fa30098 	lw	v1,152(sp)
9d0027ac:	0000b025 	move	s6,zero
9d0027b0:	8c620018 	lw	v0,24(v1)
9d0027b4:	24420001 	addiu	v0,v0,1
9d0027b8:	ac620018 	sw	v0,24(v1)
9d0027bc:	8fa400a4 	lw	a0,164(sp)
9d0027c0:	1080fe2e 	beqz	a0,9d00207c <do_scan+0x158>
9d0027c4:	02c0a825 	move	s5,s6
9d0027c8:	0f401acf 	jal	9d006b3c <free>
9d0027cc:	00000000 	nop
9d0027d0:	1000fe04 	b	9d001fe4 <do_scan+0xc0>
9d0027d4:	8fa200bc 	lw	v0,188(sp)
9d0027d8:	0f402334 	jal	9d008cd0 <putget.2903>
9d0027dc:	27af0098 	addiu	t7,sp,152
9d0027e0:	1000ffa4 	b	9d002674 <__jend_do_scan_80+0x46c>
9d0027e4:	0040b825 	move	s7,v0
9d0027e8:	00008825 	move	s1,zero
9d0027ec:	1000ffa1 	b	9d002674 <__jend_do_scan_80+0x46c>
9d0027f0:	2417ffff 	li	s7,-1
9d0027f4:	1000ffa9 	b	9d00269c <__jend_do_scan_80+0x494>
9d0027f8:	02e02025 	move	a0,s7
9d0027fc:	32100200 	andi	s0,s0,0x200
9d002800:	1600ffe4 	bnez	s0,9d002794 <__jend_do_scan_80+0x58c>
9d002804:	ac45000c 	sw	a1,12(v0)
9d002808:	8c700000 	lw	s0,0(v1)
9d00280c:	0f40273d 	jal	9d009cf4 <strtof>
9d002810:	00002825 	move	a1,zero
9d002814:	1000ffe4 	b	9d0027a8 <__jend_do_scan_80+0x5a0>
9d002818:	ae020000 	sw	v0,0(s0)
9d00281c:	1000ffe7 	b	9d0027bc <__jend_do_scan_80+0x5b4>
9d002820:	24160001 	li	s6,1
9d002824:	27b700b4 	addiu	s7,sp,180
9d002828:	0f4024bc 	jal	9d0092f0 <_eat_white>
9d00282c:	02e02025 	move	a0,s7
9d002830:	1440fe11 	bnez	v0,9d002078 <do_scan+0x154>
9d002834:	0040b025 	move	s6,v0
9d002838:	afb70010 	sw	s7,16(sp)
9d00283c:	02203825 	move	a3,s1
9d002840:	02003025 	move	a2,s0
9d002844:	24050001 	li	a1,1
9d002848:	24040001 	li	a0,1
9d00284c:	0f401d19 	jal	9d007464 <_strtostr>
9d002850:	00000000 	nop
9d002854:	1000fe08 	b	9d002078 <do_scan+0x154>
9d002858:	0040b025 	move	s6,v0
9d00285c:	27a200b4 	addiu	v0,sp,180
9d002860:	afa20010 	sw	v0,16(sp)
9d002864:	02203825 	move	a3,s1
9d002868:	02003025 	move	a2,s0
9d00286c:	24050001 	li	a1,1
9d002870:	1000fff6 	b	9d00284c <__jend_do_scan_80+0x644>
9d002874:	24040002 	li	a0,2
9d002878:	3c027fff 	lui	v0,0x7fff
9d00287c:	3442ffff 	ori	v0,v0,0xffff
9d002880:	52220001 	beql	s1,v0,9d002888 <__jend_do_scan_80+0x680>
9d002884:	24110001 	li	s1,1
9d002888:	27a200b4 	addiu	v0,sp,180
9d00288c:	afa20010 	sw	v0,16(sp)
9d002890:	02203825 	move	a3,s1
9d002894:	02003025 	move	a2,s0
9d002898:	00002825 	move	a1,zero
9d00289c:	1000ffeb 	b	9d00284c <__jend_do_scan_80+0x644>
9d0028a0:	00002025 	move	a0,zero
9d0028a4:	32160001 	andi	s6,s0,0x1
9d0028a8:	56c0fdf3 	bnezl	s6,9d002078 <do_scan+0x154>
9d0028ac:	0000b025 	move	s6,zero
9d0028b0:	8fa300c0 	lw	v1,192(sp)
9d0028b4:	32050800 	andi	a1,s0,0x800
9d0028b8:	8fa200c4 	lw	v0,196(sp)
9d0028bc:	10a00007 	beqz	a1,9d0028dc <__jend_do_scan_80+0x6d4>
9d0028c0:	24640004 	addiu	a0,v1,4
9d0028c4:	afa400c0 	sw	a0,192(sp)
9d0028c8:	8c630000 	lw	v1,0(v1)
9d0028cc:	ac620000 	sw	v0,0(v1)
9d0028d0:	000217c3 	sra	v0,v0,0x1f
9d0028d4:	1000fde8 	b	9d002078 <do_scan+0x154>
9d0028d8:	ac620004 	sw	v0,4(v1)
9d0028dc:	32160200 	andi	s6,s0,0x200
9d0028e0:	12c00005 	beqz	s6,9d0028f8 <__jend_do_scan_80+0x6f0>
9d0028e4:	32050100 	andi	a1,s0,0x100
9d0028e8:	afa400c0 	sw	a0,192(sp)
9d0028ec:	8c630000 	lw	v1,0(v1)
9d0028f0:	1000fde6 	b	9d00208c <do_scan+0x168>
9d0028f4:	ac620000 	sw	v0,0(v1)
9d0028f8:	10a00004 	beqz	a1,9d00290c <__jend_do_scan_80+0x704>
9d0028fc:	afa400c0 	sw	a0,192(sp)
9d002900:	8c630000 	lw	v1,0(v1)
9d002904:	1000fddc 	b	9d002078 <do_scan+0x154>
9d002908:	a4620000 	sh	v0,0(v1)
9d00290c:	32160080 	andi	s6,s0,0x80
9d002910:	12c00003 	beqz	s6,9d002920 <__jend_do_scan_80+0x718>
9d002914:	8c630000 	lw	v1,0(v1)
9d002918:	1000fddc 	b	9d00208c <do_scan+0x168>
9d00291c:	a0620000 	sb	v0,0(v1)
9d002920:	1000fdd5 	b	9d002078 <do_scan+0x154>
9d002924:	ac620000 	sw	v0,0(v1)
9d002928:	80420000 	lb	v0,0(v0)
9d00292c:	30420088 	andi	v0,v0,0x88
9d002930:	10400005 	beqz	v0,9d002948 <__jend_do_scan_80+0x740>
9d002934:	27a400b4 	addiu	a0,sp,180
9d002938:	0f4024bc 	jal	9d0092f0 <_eat_white>
9d00293c:	00000000 	nop
9d002940:	1000fdcd 	b	9d002078 <do_scan+0x154>
9d002944:	0040b025 	move	s6,v0
9d002948:	0f4025e2 	jal	9d009788 <gsgetc>
9d00294c:	00000000 	nop
9d002950:	2403ffff 	li	v1,-1
9d002954:	1043fdc8 	beq	v0,v1,9d002078 <do_scan+0x154>
9d002958:	2416ffff 	li	s6,-1
9d00295c:	5202fdc6 	beql	s0,v0,9d002078 <do_scan+0x154>
9d002960:	0000b025 	move	s6,zero
9d002964:	afa200b8 	sw	v0,184(sp)
9d002968:	8fa200c4 	lw	v0,196(sp)
9d00296c:	2442ffff 	addiu	v0,v0,-1
9d002970:	1000fee3 	b	9d002500 <__jend_do_scan_80+0x2f8>
9d002974:	afa200c4 	sw	v0,196(sp)
9d002978:	0000a025 	move	s4,zero
9d00297c:	12a0fee5 	beqz	s5,9d002514 <__jend_do_scan_80+0x30c>
9d002980:	24020010 	li	v0,16
9d002984:	12a2fe79 	beq	s5,v0,9d00236c <__jend_do_scan_80+0x164>
9d002988:	2416ffff 	li	s6,-1
9d00298c:	24020008 	li	v0,8
9d002990:	56a2fee3 	bnel	s5,v0,9d002520 <__jend_do_scan_80+0x318>
9d002994:	3c1e9d00 	lui	s8,0x9d00
9d002998:	3c1e9d00 	lui	s8,0x9d00
9d00299c:	27de1f0c 	addiu	s8,s8,7948
9d0029a0:	1000feb3 	b	9d002470 <__jend_do_scan_80+0x268>
9d0029a4:	2417ffff 	li	s7,-1
9d0029a8:	1000fff4 	b	9d00297c <__jend_do_scan_80+0x774>
9d0029ac:	0220a025 	move	s4,s1

Disassembly of section .text._do_print_cdnopuxX:

9d0029b0 <_do_print_cdnopuxX>:
9d0029b0:	8c820018 	lw	v0,24(a0)
9d0029b4:	27bdff60 	addiu	sp,sp,-160
9d0029b8:	afb60090 	sw	s6,144(sp)
9d0029bc:	8c420010 	lw	v0,16(v0)
9d0029c0:	afb30084 	sw	s3,132(sp)
9d0029c4:	afb20080 	sw	s2,128(sp)
9d0029c8:	afbf009c 	sw	ra,156(sp)
9d0029cc:	afbe0098 	sw	s8,152(sp)
9d0029d0:	afb70094 	sw	s7,148(sp)
9d0029d4:	afb5008c 	sw	s5,140(sp)
9d0029d8:	afb40088 	sw	s4,136(sp)
9d0029dc:	afb1007c 	sw	s1,124(sp)
9d0029e0:	afb00078 	sw	s0,120(sp)
9d0029e4:	00a0b025 	move	s6,a1
9d0029e8:	24050001 	li	a1,1
9d0029ec:	00809025 	move	s2,a0
9d0029f0:	0040f809 	jalr	v0
9d0029f4:	00c09825 	move	s3,a2
9d0029f8:	104001b8 	beqz	v0,9d0030dc <_do_print_cdnopuxX+0x72c>
9d0029fc:	3c159d00 	lui	s5,0x9d00
9d002a00:	26a21eec 	addiu	v0,s5,7916
9d002a04:	00008025 	move	s0,zero
9d002a08:	afa20060 	sw	v0,96(sp)
9d002a0c:	82c40000 	lb	a0,0(s6)
9d002a10:	108001ae 	beqz	a0,9d0030cc <_do_print_cdnopuxX+0x71c>
9d002a14:	26d10001 	addiu	s1,s6,1
9d002a18:	24020025 	li	v0,37
9d002a1c:	50820006 	beql	a0,v0,9d002a38 <_do_print_cdnopuxX+0x88>
9d002a20:	82c70001 	lb	a3,1(s6)
9d002a24:	0f4023e7 	jal	9d008f9c <fputc>
9d002a28:	02402825 	move	a1,s2
9d002a2c:	26100001 	addiu	s0,s0,1
9d002a30:	1000fff6 	b	9d002a0c <_do_print_cdnopuxX+0x5c>
9d002a34:	0220b025 	move	s6,s1
9d002a38:	10e4000b 	beq	a3,a0,9d002a68 <_do_print_cdnopuxX+0xb8>
9d002a3c:	00004025 	move	t0,zero
9d002a40:	2403002d 	li	v1,45
9d002a44:	24040020 	li	a0,32
9d002a48:	24050023 	li	a1,35
9d002a4c:	24060030 	li	a2,48
9d002a50:	14e3000a 	bne	a3,v1,9d002a7c <_do_print_cdnopuxX+0xcc>
9d002a54:	26220001 	addiu	v0,s1,1
9d002a58:	35080008 	ori	t0,t0,0x8
9d002a5c:	00408825 	move	s1,v0
9d002a60:	1000fffb 	b	9d002a50 <_do_print_cdnopuxX+0xa0>
9d002a64:	80470000 	lb	a3,0(v0)
9d002a68:	02402825 	move	a1,s2
9d002a6c:	0f4023e7 	jal	9d008f9c <fputc>
9d002a70:	24040025 	li	a0,37
9d002a74:	1000ffed 	b	9d002a2c <_do_print_cdnopuxX+0x7c>
9d002a78:	26d10002 	addiu	s1,s6,2
9d002a7c:	2409002b 	li	t1,43
9d002a80:	14e90003 	bne	a3,t1,9d002a90 <_do_print_cdnopuxX+0xe0>
9d002a84:	00000000 	nop
9d002a88:	1000fff4 	b	9d002a5c <_do_print_cdnopuxX+0xac>
9d002a8c:	35080002 	ori	t0,t0,0x2
9d002a90:	14e40003 	bne	a3,a0,9d002aa0 <_do_print_cdnopuxX+0xf0>
9d002a94:	00000000 	nop
9d002a98:	1000fff0 	b	9d002a5c <_do_print_cdnopuxX+0xac>
9d002a9c:	35080001 	ori	t0,t0,0x1
9d002aa0:	14e50003 	bne	a3,a1,9d002ab0 <_do_print_cdnopuxX+0x100>
9d002aa4:	00000000 	nop
9d002aa8:	1000ffec 	b	9d002a5c <_do_print_cdnopuxX+0xac>
9d002aac:	35080800 	ori	t0,t0,0x800
9d002ab0:	54e60003 	bnel	a3,a2,9d002ac0 <_do_print_cdnopuxX+0x110>
9d002ab4:	2403002a 	li	v1,42
9d002ab8:	1000ffe8 	b	9d002a5c <_do_print_cdnopuxX+0xac>
9d002abc:	35080004 	ori	t0,t0,0x4
9d002ac0:	14e30025 	bne	a3,v1,9d002b58 <_do_print_cdnopuxX+0x1a8>
9d002ac4:	0000a825 	move	s5,zero
9d002ac8:	8e750000 	lw	s5,0(s3)
9d002acc:	26630004 	addiu	v1,s3,4
9d002ad0:	06a00023 	bltz	s5,9d002b60 <_do_print_cdnopuxX+0x1b0>
9d002ad4:	82270001 	lb	a3,1(s1)
9d002ad8:	2404002e 	li	a0,46
9d002adc:	14e40028 	bne	a3,a0,9d002b80 <_do_print_cdnopuxX+0x1d0>
9d002ae0:	2414ffff 	li	s4,-1
9d002ae4:	80470001 	lb	a3,1(v0)
9d002ae8:	2404002a 	li	a0,42
9d002aec:	50e4001f 	beql	a3,a0,9d002b6c <_do_print_cdnopuxX+0x1bc>
9d002af0:	8c640000 	lw	a0,0(v1)
9d002af4:	24420001 	addiu	v0,v0,1
9d002af8:	0000a025 	move	s4,zero
9d002afc:	240a000a 	li	t2,10
9d002b00:	24e4ffd0 	addiu	a0,a3,-48
9d002b04:	2c84000a 	sltiu	a0,a0,10
9d002b08:	1080001d 	beqz	a0,9d002b80 <_do_print_cdnopuxX+0x1d0>
9d002b0c:	24460001 	addiu	a2,v0,1
9d002b10:	728a2002 	mul	a0,s4,t2
9d002b14:	00874821 	addu	t1,a0,a3
9d002b18:	2534ffd0 	addiu	s4,t1,-48
9d002b1c:	80470001 	lb	a3,1(v0)
9d002b20:	1000fff7 	b	9d002b00 <_do_print_cdnopuxX+0x150>
9d002b24:	00c01025 	move	v0,a2
9d002b28:	72a41002 	mul	v0,s5,a0
9d002b2c:	00475821 	addu	t3,v0,a3
9d002b30:	2575ffd0 	addiu	s5,t3,-48
9d002b34:	82270001 	lb	a3,1(s1)
9d002b38:	00608825 	move	s1,v1
9d002b3c:	24e2ffd0 	addiu	v0,a3,-48
9d002b40:	2c42000a 	sltiu	v0,v0,10
9d002b44:	1440fff8 	bnez	v0,9d002b28 <_do_print_cdnopuxX+0x178>
9d002b48:	26230001 	addiu	v1,s1,1
9d002b4c:	02601825 	move	v1,s3
9d002b50:	1000ffe1 	b	9d002ad8 <_do_print_cdnopuxX+0x128>
9d002b54:	02201025 	move	v0,s1
9d002b58:	1000fff8 	b	9d002b3c <_do_print_cdnopuxX+0x18c>
9d002b5c:	2404000a 	li	a0,10
9d002b60:	35080008 	ori	t0,t0,0x8
9d002b64:	1000ffdc 	b	9d002ad8 <_do_print_cdnopuxX+0x128>
9d002b68:	0015a823 	negu	s5,s5
9d002b6c:	80470002 	lb	a3,2(v0)
9d002b70:	24630004 	addiu	v1,v1,4
9d002b74:	28850000 	slti	a1,a0,0
9d002b78:	0085a00a 	movz	s4,a0,a1
9d002b7c:	24420002 	addiu	v0,v0,2
9d002b80:	24050068 	li	a1,104
9d002b84:	14e50020 	bne	a3,a1,9d002c08 <_do_print_cdnopuxX+0x258>
9d002b88:	24440001 	addiu	a0,v0,1
9d002b8c:	80450001 	lb	a1,1(v0)
9d002b90:	54a70003 	bnel	a1,a3,9d002ba0 <_do_print_cdnopuxX+0x1f0>
9d002b94:	35080040 	ori	t0,t0,0x40
9d002b98:	35080001 	ori	t0,t0,0x1
9d002b9c:	00801025 	move	v0,a0
9d002ba0:	80470001 	lb	a3,1(v0)
9d002ba4:	24420001 	addiu	v0,v0,1
9d002ba8:	24510001 	addiu	s1,v0,1
9d002bac:	31020002 	andi	v0,t0,0x2
9d002bb0:	54400001 	bnezl	v0,9d002bb8 <_do_print_cdnopuxX+0x208>
9d002bb4:	3108fffe 	andi	t0,t0,0xfffe
9d002bb8:	31020008 	andi	v0,t0,0x8
9d002bbc:	54400001 	bnezl	v0,9d002bc4 <_do_print_cdnopuxX+0x214>
9d002bc0:	3108fffb 	andi	t0,t0,0xfffb
9d002bc4:	24020064 	li	v0,100
9d002bc8:	10e20032 	beq	a3,v0,9d002c94 <_do_print_cdnopuxX+0x2e4>
9d002bcc:	28e20065 	slti	v0,a3,101
9d002bd0:	10400024 	beqz	v0,9d002c64 <_do_print_cdnopuxX+0x2b4>
9d002bd4:	24020070 	li	v0,112
9d002bd8:	24020050 	li	v0,80
9d002bdc:	10e20092 	beq	a3,v0,9d002e28 <_do_print_cdnopuxX+0x478>
9d002be0:	28e20051 	slti	v0,a3,81
9d002be4:	10400016 	beqz	v0,9d002c40 <_do_print_cdnopuxX+0x290>
9d002be8:	24020058 	li	v0,88
9d002bec:	24020044 	li	v0,68
9d002bf0:	10e20041 	beq	a3,v0,9d002cf8 <_do_print_cdnopuxX+0x348>
9d002bf4:	2402004f 	li	v0,79
9d002bf8:	50e20041 	beql	a3,v0,9d002d00 <_do_print_cdnopuxX+0x350>
9d002bfc:	35080010 	ori	t0,t0,0x10
9d002c00:	100000ff 	b	9d003000 <_do_print_cdnopuxX+0x650>
9d002c04:	00001025 	move	v0,zero
9d002c08:	2405006c 	li	a1,108
9d002c0c:	14e50006 	bne	a3,a1,9d002c28 <_do_print_cdnopuxX+0x278>
9d002c10:	24050071 	li	a1,113
9d002c14:	80450001 	lb	a1,1(v0)
9d002c18:	54a7ffe1 	bnel	a1,a3,9d002ba0 <_do_print_cdnopuxX+0x1f0>
9d002c1c:	35080010 	ori	t0,t0,0x10
9d002c20:	1000ffde 	b	9d002b9c <_do_print_cdnopuxX+0x1ec>
9d002c24:	35088000 	ori	t0,t0,0x8000
9d002c28:	14e5ffe0 	bne	a3,a1,9d002bac <_do_print_cdnopuxX+0x1fc>
9d002c2c:	24510001 	addiu	s1,v0,1
9d002c30:	80470001 	lb	a3,1(v0)
9d002c34:	35088000 	ori	t0,t0,0x8000
9d002c38:	1000ffdb 	b	9d002ba8 <_do_print_cdnopuxX+0x1f8>
9d002c3c:	00801025 	move	v0,a0
9d002c40:	10e20076 	beq	a3,v0,9d002e1c <_do_print_cdnopuxX+0x46c>
9d002c44:	24020063 	li	v0,99
9d002c48:	10e200f9 	beq	a3,v0,9d003030 <_do_print_cdnopuxX+0x680>
9d002c4c:	24020055 	li	v0,85
9d002c50:	14e200eb 	bne	a3,v0,9d003000 <_do_print_cdnopuxX+0x650>
9d002c54:	00001025 	move	v0,zero
9d002c58:	35080010 	ori	t0,t0,0x10
9d002c5c:	1000000f 	b	9d002c9c <_do_print_cdnopuxX+0x2ec>
9d002c60:	3108f7ff 	andi	t0,t0,0xf7ff
9d002c64:	10e20071 	beq	a3,v0,9d002e2c <_do_print_cdnopuxX+0x47c>
9d002c68:	28e20071 	slti	v0,a3,113
9d002c6c:	1040000d 	beqz	v0,9d002ca4 <_do_print_cdnopuxX+0x2f4>
9d002c70:	24020075 	li	v0,117
9d002c74:	2402006e 	li	v0,110
9d002c78:	10e200ff 	beq	a3,v0,9d003078 <_do_print_cdnopuxX+0x6c8>
9d002c7c:	28e2006f 	slti	v0,a3,111
9d002c80:	10400020 	beqz	v0,9d002d04 <_do_print_cdnopuxX+0x354>
9d002c84:	24170008 	li	s7,8
9d002c88:	24020069 	li	v0,105
9d002c8c:	14e200dc 	bne	a3,v0,9d003000 <_do_print_cdnopuxX+0x650>
9d002c90:	00001025 	move	v0,zero
9d002c94:	3108f7ff 	andi	t0,t0,0xf7ff
9d002c98:	350800c0 	ori	t0,t0,0xc0
9d002c9c:	10000019 	b	9d002d04 <_do_print_cdnopuxX+0x354>
9d002ca0:	2417000a 	li	s7,10
9d002ca4:	10e2ffed 	beq	a3,v0,9d002c5c <_do_print_cdnopuxX+0x2ac>
9d002ca8:	24020078 	li	v0,120
9d002cac:	10e2005c 	beq	a3,v0,9d002e20 <_do_print_cdnopuxX+0x470>
9d002cb0:	24020073 	li	v0,115
9d002cb4:	14e200d2 	bne	a3,v0,9d003000 <_do_print_cdnopuxX+0x650>
9d002cb8:	00001025 	move	v0,zero
9d002cbc:	8fa20060 	lw	v0,96(sp)
9d002cc0:	8c760000 	lw	s6,0(v1)
9d002cc4:	0056b00a 	movz	s6,v0,s6
9d002cc8:	2402ffff 	li	v0,-1
9d002ccc:	128200e0 	beq	s4,v0,9d003050 <_do_print_cdnopuxX+0x6a0>
9d002cd0:	24730004 	addiu	s3,v1,4
9d002cd4:	02d44821 	addu	t1,s6,s4
9d002cd8:	02c01025 	move	v0,s6
9d002cdc:	504900e2 	beql	v0,t1,9d003068 <_do_print_cdnopuxX+0x6b8>
9d002ce0:	afa80010 	sw	t0,16(sp)
9d002ce4:	80430000 	lb	v1,0(v0)
9d002ce8:	506000df 	beqzl	v1,9d003068 <_do_print_cdnopuxX+0x6b8>
9d002cec:	afa80010 	sw	t0,16(sp)
9d002cf0:	1000fffa 	b	9d002cdc <_do_print_cdnopuxX+0x32c>
9d002cf4:	24420001 	addiu	v0,v0,1
9d002cf8:	1000ffe6 	b	9d002c94 <_do_print_cdnopuxX+0x2e4>
9d002cfc:	35080010 	ori	t0,t0,0x10
9d002d00:	24170008 	li	s7,8
9d002d04:	2402ffff 	li	v0,-1
9d002d08:	52820002 	beql	s4,v0,9d002d14 <_do_print_cdnopuxX+0x364>
9d002d0c:	24140001 	li	s4,1
9d002d10:	3108fffb 	andi	t0,t0,0xfffb
9d002d14:	310d00c0 	andi	t5,t0,0xc0
9d002d18:	11a0004f 	beqz	t5,9d002e58 <_do_print_cdnopuxX+0x4a8>
9d002d1c:	7c081620 	seh	v0,t0
9d002d20:	04410044 	bgez	v0,9d002e34 <_do_print_cdnopuxX+0x484>
9d002d24:	31020010 	andi	v0,t0,0x10
9d002d28:	24630007 	addiu	v1,v1,7
9d002d2c:	7c031004 	ins	v1,zero,0x0,0x3
9d002d30:	8c780000 	lw	t8,0(v1)
9d002d34:	8c790004 	lw	t9,4(v1)
9d002d38:	24730008 	addiu	s3,v1,8
9d002d3c:	07210007 	bgez	t9,9d002d5c <_do_print_cdnopuxX+0x3ac>
9d002d40:	0000f025 	move	s8,zero
9d002d44:	00181023 	negu	v0,t8
9d002d48:	0002202b 	sltu	a0,zero,v0
9d002d4c:	0019c823 	negu	t9,t9
9d002d50:	0040c025 	move	t8,v0
9d002d54:	0324c823 	subu	t9,t9,a0
9d002d58:	241e0001 	li	s8,1
9d002d5c:	1320004a 	beqz	t9,9d002e88 <_do_print_cdnopuxX+0x4d8>
9d002d60:	310e0020 	andi	t6,t0,0x20
9d002d64:	24160037 	li	s6,55
9d002d68:	24020057 	li	v0,87
9d002d6c:	02ce100b 	movn	v0,s6,t6
9d002d70:	afa2005c 	sw	v0,92(sp)
9d002d74:	001717c3 	sra	v0,s7,0x1f
9d002d78:	27b60057 	addiu	s6,sp,87
9d002d7c:	afa20058 	sw	v0,88(sp)
9d002d80:	03191025 	or	v0,t8,t9
9d002d84:	10400047 	beqz	v0,9d002ea4 <_do_print_cdnopuxX+0x4f4>
9d002d88:	8fa70058 	lw	a3,88(sp)
9d002d8c:	03002025 	move	a0,t8
9d002d90:	03202825 	move	a1,t9
9d002d94:	02e03025 	move	a2,s7
9d002d98:	afae0074 	sw	t6,116(sp)
9d002d9c:	afad0070 	sw	t5,112(sp)
9d002da0:	afa8006c 	sw	t0,108(sp)
9d002da4:	afb80068 	sw	t8,104(sp)
9d002da8:	0f401522 	jal	9d005488 <__umoddi3>
9d002dac:	afb90064 	sw	t9,100(sp)
9d002db0:	8fa3005c 	lw	v1,92(sp)
9d002db4:	2844000a 	slti	a0,v0,10
9d002db8:	8fb90064 	lw	t9,100(sp)
9d002dbc:	00431821 	addu	v1,v0,v1
9d002dc0:	8fb80068 	lw	t8,104(sp)
9d002dc4:	8fa8006c 	lw	t0,108(sp)
9d002dc8:	8fad0070 	lw	t5,112(sp)
9d002dcc:	10800002 	beqz	a0,9d002dd8 <_do_print_cdnopuxX+0x428>
9d002dd0:	8fae0074 	lw	t6,116(sp)
9d002dd4:	24430030 	addiu	v1,v0,48
9d002dd8:	8fa70058 	lw	a3,88(sp)
9d002ddc:	26d6ffff 	addiu	s6,s6,-1
9d002de0:	03002025 	move	a0,t8
9d002de4:	03202825 	move	a1,t9
9d002de8:	a2c30001 	sb	v1,1(s6)
9d002dec:	02e03025 	move	a2,s7
9d002df0:	afae006c 	sw	t6,108(sp)
9d002df4:	afad0068 	sw	t5,104(sp)
9d002df8:	0f401620 	jal	9d005880 <__udivdi3>
9d002dfc:	afa80064 	sw	t0,100(sp)
9d002e00:	0040c025 	move	t8,v0
9d002e04:	0060c825 	move	t9,v1
9d002e08:	2694ffff 	addiu	s4,s4,-1
9d002e0c:	8fae006c 	lw	t6,108(sp)
9d002e10:	8fad0068 	lw	t5,104(sp)
9d002e14:	1000ffda 	b	9d002d80 <_do_print_cdnopuxX+0x3d0>
9d002e18:	8fa80064 	lw	t0,100(sp)
9d002e1c:	35080020 	ori	t0,t0,0x20
9d002e20:	1000ffb8 	b	9d002d04 <_do_print_cdnopuxX+0x354>
9d002e24:	24170010 	li	s7,16
9d002e28:	35080020 	ori	t0,t0,0x20
9d002e2c:	1000fffc 	b	9d002e20 <_do_print_cdnopuxX+0x470>
9d002e30:	35080810 	ori	t0,t0,0x810
9d002e34:	10400004 	beqz	v0,9d002e48 <_do_print_cdnopuxX+0x498>
9d002e38:	24730004 	addiu	s3,v1,4
9d002e3c:	8c780000 	lw	t8,0(v1)
9d002e40:	1000ffbe 	b	9d002d3c <_do_print_cdnopuxX+0x38c>
9d002e44:	0018cfc3 	sra	t9,t8,0x1f
9d002e48:	8c620000 	lw	v0,0(v1)
9d002e4c:	0040c025 	move	t8,v0
9d002e50:	1000ffba 	b	9d002d3c <_do_print_cdnopuxX+0x38c>
9d002e54:	0002cfc3 	sra	t9,v0,0x1f
9d002e58:	04430008 	bgezl	v0,9d002e7c <_do_print_cdnopuxX+0x4cc>
9d002e5c:	24730004 	addiu	s3,v1,4
9d002e60:	24630007 	addiu	v1,v1,7
9d002e64:	7c031004 	ins	v1,zero,0x0,0x3
9d002e68:	8c780000 	lw	t8,0(v1)
9d002e6c:	8c790004 	lw	t9,4(v1)
9d002e70:	24730008 	addiu	s3,v1,8
9d002e74:	1000ffb9 	b	9d002d5c <_do_print_cdnopuxX+0x3ac>
9d002e78:	0000f025 	move	s8,zero
9d002e7c:	8c780000 	lw	t8,0(v1)
9d002e80:	1000fffc 	b	9d002e74 <_do_print_cdnopuxX+0x4c4>
9d002e84:	0000c825 	move	t9,zero
9d002e88:	24030037 	li	v1,55
9d002e8c:	24040057 	li	a0,87
9d002e90:	03001025 	move	v0,t8
9d002e94:	008e180a 	movz	v1,a0,t6
9d002e98:	27b60057 	addiu	s6,sp,87
9d002e9c:	14400004 	bnez	v0,9d002eb0 <_do_print_cdnopuxX+0x500>
9d002ea0:	00000000 	nop
9d002ea4:	02c01025 	move	v0,s6
9d002ea8:	1000000d 	b	9d002ee0 <_do_print_cdnopuxX+0x530>
9d002eac:	24040030 	li	a0,48
9d002eb0:	0057001b 	divu	zero,v0,s7
9d002eb4:	02e001f4 	teq	s7,zero,0x7
9d002eb8:	00002010 	mfhi	a0
9d002ebc:	2c86000a 	sltiu	a2,a0,10
9d002ec0:	00832821 	addu	a1,a0,v1
9d002ec4:	10c00002 	beqz	a2,9d002ed0 <_do_print_cdnopuxX+0x520>
9d002ec8:	00001012 	mflo	v0
9d002ecc:	24850030 	addiu	a1,a0,48
9d002ed0:	26d6ffff 	addiu	s6,s6,-1
9d002ed4:	a2c50001 	sb	a1,1(s6)
9d002ed8:	1000fff0 	b	9d002e9c <_do_print_cdnopuxX+0x4ec>
9d002edc:	2694ffff 	addiu	s4,s4,-1
9d002ee0:	2442ffff 	addiu	v0,v0,-1
9d002ee4:	02821821 	addu	v1,s4,v0
9d002ee8:	00761823 	subu	v1,v1,s6
9d002eec:	0463fffc 	bgezl	v1,9d002ee0 <_do_print_cdnopuxX+0x530>
9d002ef0:	a0440001 	sb	a0,1(v0)
9d002ef4:	2a850000 	slti	a1,s4,0
9d002ef8:	0005a00b 	movn	s4,zero,a1
9d002efc:	31020004 	andi	v0,t0,0x4
9d002f00:	02d42823 	subu	a1,s6,s4
9d002f04:	10400022 	beqz	v0,9d002f90 <_do_print_cdnopuxX+0x5e0>
9d002f08:	31060800 	andi	a2,t0,0x800
9d002f0c:	27a20057 	addiu	v0,sp,87
9d002f10:	00451023 	subu	v0,v0,a1
9d002f14:	10c00008 	beqz	a2,9d002f38 <_do_print_cdnopuxX+0x588>
9d002f18:	02a21023 	subu	v0,s5,v0
9d002f1c:	24030008 	li	v1,8
9d002f20:	16e3000f 	bne	s7,v1,9d002f60 <_do_print_cdnopuxX+0x5b0>
9d002f24:	24030010 	li	v1,16
9d002f28:	80a40001 	lb	a0,1(a1)
9d002f2c:	24030030 	li	v1,48
9d002f30:	54830001 	bnel	a0,v1,9d002f38 <_do_print_cdnopuxX+0x588>
9d002f34:	2442ffff 	addiu	v0,v0,-1
9d002f38:	11a00007 	beqz	t5,9d002f58 <_do_print_cdnopuxX+0x5a8>
9d002f3c:	00a01825 	move	v1,a1
9d002f40:	57c00005 	bnezl	s8,9d002f58 <_do_print_cdnopuxX+0x5a8>
9d002f44:	2442ffff 	addiu	v0,v0,-1
9d002f48:	31030003 	andi	v1,t0,0x3
9d002f4c:	10600002 	beqz	v1,9d002f58 <_do_print_cdnopuxX+0x5a8>
9d002f50:	00a01825 	move	v1,a1
9d002f54:	2442ffff 	addiu	v0,v0,-1
9d002f58:	10000005 	b	9d002f70 <_do_print_cdnopuxX+0x5c0>
9d002f5c:	24070030 	li	a3,48
9d002f60:	52e3fff5 	beql	s7,v1,9d002f38 <_do_print_cdnopuxX+0x588>
9d002f64:	2442fffe 	addiu	v0,v0,-2
9d002f68:	1000fff3 	b	9d002f38 <_do_print_cdnopuxX+0x588>
9d002f6c:	00000000 	nop
9d002f70:	2463ffff 	addiu	v1,v1,-1
9d002f74:	00652023 	subu	a0,v1,a1
9d002f78:	00822021 	addu	a0,a0,v0
9d002f7c:	0483fffc 	bgezl	a0,9d002f70 <_do_print_cdnopuxX+0x5c0>
9d002f80:	a0670001 	sb	a3,1(v1)
9d002f84:	28430000 	slti	v1,v0,0
9d002f88:	0003100b 	movn	v0,zero,v1
9d002f8c:	00a22823 	subu	a1,a1,v0
9d002f90:	10c00009 	beqz	a2,9d002fb8 <_do_print_cdnopuxX+0x608>
9d002f94:	24020008 	li	v0,8
9d002f98:	16e2001c 	bne	s7,v0,9d00300c <_do_print_cdnopuxX+0x65c>
9d002f9c:	24020010 	li	v0,16
9d002fa0:	80a30001 	lb	v1,1(a1)
9d002fa4:	24020030 	li	v0,48
9d002fa8:	10620003 	beq	v1,v0,9d002fb8 <_do_print_cdnopuxX+0x608>
9d002fac:	00000000 	nop
9d002fb0:	a0a20000 	sb	v0,0(a1)
9d002fb4:	24a5ffff 	addiu	a1,a1,-1
9d002fb8:	51a0000a 	beqzl	t5,9d002fe4 <_do_print_cdnopuxX+0x634>
9d002fbc:	24a50001 	addiu	a1,a1,1
9d002fc0:	17c00005 	bnez	s8,9d002fd8 <_do_print_cdnopuxX+0x628>
9d002fc4:	2402002d 	li	v0,45
9d002fc8:	31020002 	andi	v0,t0,0x2
9d002fcc:	50400005 	beqzl	v0,9d002fe4 <_do_print_cdnopuxX+0x634>
9d002fd0:	24a50001 	addiu	a1,a1,1
9d002fd4:	2402002b 	li	v0,43
9d002fd8:	a0a20000 	sb	v0,0(a1)
9d002fdc:	24a5ffff 	addiu	a1,a1,-1
9d002fe0:	24a50001 	addiu	a1,a1,1
9d002fe4:	27a60058 	addiu	a2,sp,88
9d002fe8:	afa80010 	sw	t0,16(sp)
9d002fec:	02a03825 	move	a3,s5
9d002ff0:	00c53023 	subu	a2,a2,a1
9d002ff4:	0f402255 	jal	9d008954 <_outcnvrt>
9d002ff8:	02402025 	move	a0,s2
9d002ffc:	02601825 	move	v1,s3
9d003000:	02028021 	addu	s0,s0,v0
9d003004:	1000fe8a 	b	9d002a30 <_do_print_cdnopuxX+0x80>
9d003008:	00609825 	move	s3,v1
9d00300c:	16e2ffea 	bne	s7,v0,9d002fb8 <_do_print_cdnopuxX+0x608>
9d003010:	24030058 	li	v1,88
9d003014:	24020078 	li	v0,120
9d003018:	006e100b 	movn	v0,v1,t6
9d00301c:	a0a20000 	sb	v0,0(a1)
9d003020:	24020030 	li	v0,48
9d003024:	a0a2ffff 	sb	v0,-1(a1)
9d003028:	1000ffe3 	b	9d002fb8 <_do_print_cdnopuxX+0x608>
9d00302c:	24a5fffe 	addiu	a1,a1,-2
9d003030:	8c620000 	lw	v0,0(v1)
9d003034:	24730004 	addiu	s3,v1,4
9d003038:	afa80010 	sw	t0,16(sp)
9d00303c:	a3a20018 	sb	v0,24(sp)
9d003040:	02a03825 	move	a3,s5
9d003044:	24060001 	li	a2,1
9d003048:	1000ffea 	b	9d002ff4 <_do_print_cdnopuxX+0x644>
9d00304c:	27a50018 	addiu	a1,sp,24
9d003050:	02c02025 	move	a0,s6
9d003054:	0f4025cb 	jal	9d00972c <strlen>
9d003058:	afa80058 	sw	t0,88(sp)
9d00305c:	8fa80058 	lw	t0,88(sp)
9d003060:	02c21021 	addu	v0,s6,v0
9d003064:	afa80010 	sw	t0,16(sp)
9d003068:	02a03825 	move	a3,s5
9d00306c:	00563023 	subu	a2,v0,s6
9d003070:	1000ffe0 	b	9d002ff4 <_do_print_cdnopuxX+0x644>
9d003074:	02c02825 	move	a1,s6
9d003078:	7c082620 	seh	a0,t0
9d00307c:	8c620000 	lw	v0,0(v1)
9d003080:	04810005 	bgez	a0,9d003098 <_do_print_cdnopuxX+0x6e8>
9d003084:	24630004 	addiu	v1,v1,4
9d003088:	001027c3 	sra	a0,s0,0x1f
9d00308c:	ac500000 	sw	s0,0(v0)
9d003090:	1000fedb 	b	9d002c00 <_do_print_cdnopuxX+0x250>
9d003094:	ac440004 	sw	a0,4(v0)
9d003098:	31040010 	andi	a0,t0,0x10
9d00309c:	10800003 	beqz	a0,9d0030ac <_do_print_cdnopuxX+0x6fc>
9d0030a0:	31040040 	andi	a0,t0,0x40
9d0030a4:	1000fed6 	b	9d002c00 <_do_print_cdnopuxX+0x250>
9d0030a8:	ac500000 	sw	s0,0(v0)
9d0030ac:	50800003 	beqzl	a0,9d0030bc <_do_print_cdnopuxX+0x70c>
9d0030b0:	31080001 	andi	t0,t0,0x1
9d0030b4:	1000fed2 	b	9d002c00 <_do_print_cdnopuxX+0x250>
9d0030b8:	a4500000 	sh	s0,0(v0)
9d0030bc:	5100fed0 	beqzl	t0,9d002c00 <_do_print_cdnopuxX+0x250>
9d0030c0:	ac500000 	sw	s0,0(v0)
9d0030c4:	1000fece 	b	9d002c00 <_do_print_cdnopuxX+0x250>
9d0030c8:	a0500000 	sb	s0,0(v0)
9d0030cc:	96420010 	lhu	v0,16(s2)
9d0030d0:	30420040 	andi	v0,v0,0x40
9d0030d4:	10400003 	beqz	v0,9d0030e4 <_do_print_cdnopuxX+0x734>
9d0030d8:	8fbf009c 	lw	ra,156(sp)
9d0030dc:	2410ffff 	li	s0,-1
9d0030e0:	8fbf009c 	lw	ra,156(sp)
9d0030e4:	02001025 	move	v0,s0
9d0030e8:	8fbe0098 	lw	s8,152(sp)
9d0030ec:	8fb70094 	lw	s7,148(sp)
9d0030f0:	8fb60090 	lw	s6,144(sp)
9d0030f4:	8fb5008c 	lw	s5,140(sp)
9d0030f8:	8fb40088 	lw	s4,136(sp)
9d0030fc:	8fb30084 	lw	s3,132(sp)
9d003100:	8fb20080 	lw	s2,128(sp)
9d003104:	8fb1007c 	lw	s1,124(sp)
9d003108:	8fb00078 	lw	s0,120(sp)
9d00310c:	03e00008 	jr	ra
9d003110:	27bd00a0 	addiu	sp,sp,160

Disassembly of section .text.malloc:

9d003114 <malloc>:
9d003114:	27bdffc0 	addiu	sp,sp,-64
9d003118:	afb00018 	sw	s0,24(sp)
9d00311c:	2490000b 	addiu	s0,a0,11
9d003120:	2e020017 	sltiu	v0,s0,23
9d003124:	afbf003c 	sw	ra,60(sp)
9d003128:	afbe0038 	sw	s8,56(sp)
9d00312c:	afb70034 	sw	s7,52(sp)
9d003130:	afb60030 	sw	s6,48(sp)
9d003134:	afb5002c 	sw	s5,44(sp)
9d003138:	afb40028 	sw	s4,40(sp)
9d00313c:	afb30024 	sw	s3,36(sp)
9d003140:	afb20020 	sw	s2,32(sp)
9d003144:	144001a2 	bnez	v0,9d0037d0 <malloc+0x6bc>
9d003148:	afb1001c 	sw	s1,28(sp)
9d00314c:	7c101004 	ins	s0,zero,0x0,0x3
9d003150:	06000003 	bltz	s0,9d003160 <malloc+0x4c>
9d003154:	0204202b 	sltu	a0,s0,a0
9d003158:	10800011 	beqz	a0,9d0031a0 <malloc+0x8c>
9d00315c:	2e0201f8 	sltiu	v0,s0,504
9d003160:	3c02a000 	lui	v0,0xa000
9d003164:	2403000c 	li	v1,12
9d003168:	ac430088 	sw	v1,136(v0)
9d00316c:	00001025 	move	v0,zero
9d003170:	8fbf003c 	lw	ra,60(sp)
9d003174:	8fbe0038 	lw	s8,56(sp)
9d003178:	8fb70034 	lw	s7,52(sp)
9d00317c:	8fb60030 	lw	s6,48(sp)
9d003180:	8fb5002c 	lw	s5,44(sp)
9d003184:	8fb40028 	lw	s4,40(sp)
9d003188:	8fb30024 	lw	s3,36(sp)
9d00318c:	8fb20020 	lw	s2,32(sp)
9d003190:	8fb1001c 	lw	s1,28(sp)
9d003194:	8fb00018 	lw	s0,24(sp)
9d003198:	03e00008 	jr	ra
9d00319c:	27bd0040 	addiu	sp,sp,64
9d0031a0:	10400018 	beqz	v0,9d003204 <malloc+0xf0>
9d0031a4:	00101242 	srl	v0,s0,0x9
9d0031a8:	3c02a000 	lui	v0,0xa000
9d0031ac:	24420100 	addiu	v0,v0,256
9d0031b0:	26040008 	addiu	a0,s0,8
9d0031b4:	00442021 	addu	a0,v0,a0
9d0031b8:	8c820004 	lw	v0,4(a0)
9d0031bc:	2485fff8 	addiu	a1,a0,-8
9d0031c0:	14450004 	bne	v0,a1,9d0031d4 <malloc+0xc0>
9d0031c4:	001018c2 	srl	v1,s0,0x3
9d0031c8:	8c82000c 	lw	v0,12(a0)
9d0031cc:	10820026 	beq	a0,v0,9d003268 <malloc+0x154>
9d0031d0:	24630002 	addiu	v1,v1,2
9d0031d4:	8c430004 	lw	v1,4(v0)
9d0031d8:	8c44000c 	lw	a0,12(v0)
9d0031dc:	8c450008 	lw	a1,8(v0)
9d0031e0:	7c030804 	ins	v1,zero,0x0,0x2
9d0031e4:	00431821 	addu	v1,v0,v1
9d0031e8:	aca4000c 	sw	a0,12(a1)
9d0031ec:	ac850008 	sw	a1,8(a0)
9d0031f0:	8c640004 	lw	a0,4(v1)
9d0031f4:	34840001 	ori	a0,a0,0x1
9d0031f8:	ac640004 	sw	a0,4(v1)
9d0031fc:	1000ffdc 	b	9d003170 <malloc+0x5c>
9d003200:	24420008 	addiu	v0,v0,8
9d003204:	10400006 	beqz	v0,9d003220 <malloc+0x10c>
9d003208:	2403003f 	li	v1,63
9d00320c:	2c430005 	sltiu	v1,v0,5
9d003210:	1060002e 	beqz	v1,9d0032cc <malloc+0x1b8>
9d003214:	2c430015 	sltiu	v1,v0,21
9d003218:	00101982 	srl	v1,s0,0x6
9d00321c:	24630038 	addiu	v1,v1,56
9d003220:	24620001 	addiu	v0,v1,1
9d003224:	000220c0 	sll	a0,v0,0x3
9d003228:	3c02a000 	lui	v0,0xa000
9d00322c:	24420100 	addiu	v0,v0,256
9d003230:	00441021 	addu	v0,v0,a0
9d003234:	2447fff8 	addiu	a3,v0,-8
9d003238:	8c420004 	lw	v0,4(v0)
9d00323c:	2408fffc 	li	t0,-4
9d003240:	50470009 	beql	v0,a3,9d003268 <malloc+0x154>
9d003244:	24630001 	addiu	v1,v1,1
9d003248:	8c440004 	lw	a0,4(v0)
9d00324c:	01042024 	and	a0,t0,a0
9d003250:	00903023 	subu	a2,a0,s0
9d003254:	28c50010 	slti	a1,a2,16
9d003258:	14a0002f 	bnez	a1,9d003318 <malloc+0x204>
9d00325c:	00000000 	nop
9d003260:	2463ffff 	addiu	v1,v1,-1
9d003264:	24630001 	addiu	v1,v1,1
9d003268:	3c11a000 	lui	s1,0xa000
9d00326c:	26310100 	addiu	s1,s1,256
9d003270:	8e220010 	lw	v0,16(s1)
9d003274:	3c06a000 	lui	a2,0xa000
9d003278:	24c60108 	addiu	a2,a2,264
9d00327c:	50460049 	beql	v0,a2,9d0033a4 <malloc+0x290>
9d003280:	00031083 	sra	v0,v1,0x2
9d003284:	8c440004 	lw	a0,4(v0)
9d003288:	7c040804 	ins	a0,zero,0x0,0x2
9d00328c:	00902823 	subu	a1,a0,s0
9d003290:	28a70010 	slti	a3,a1,16
9d003294:	54e00029 	bnezl	a3,9d00333c <malloc+0x228>
9d003298:	ae260014 	sw	a2,20(s1)
9d00329c:	00501821 	addu	v1,v0,s0
9d0032a0:	36100001 	ori	s0,s0,0x1
9d0032a4:	ac500004 	sw	s0,4(v0)
9d0032a8:	00442021 	addu	a0,v0,a0
9d0032ac:	ae230014 	sw	v1,20(s1)
9d0032b0:	ae230010 	sw	v1,16(s1)
9d0032b4:	ac66000c 	sw	a2,12(v1)
9d0032b8:	ac660008 	sw	a2,8(v1)
9d0032bc:	34a60001 	ori	a2,a1,0x1
9d0032c0:	ac660004 	sw	a2,4(v1)
9d0032c4:	1000ffcd 	b	9d0031fc <malloc+0xe8>
9d0032c8:	ac850000 	sw	a1,0(a0)
9d0032cc:	50600003 	beqzl	v1,9d0032dc <malloc+0x1c8>
9d0032d0:	2c430055 	sltiu	v1,v0,85
9d0032d4:	1000ffd2 	b	9d003220 <malloc+0x10c>
9d0032d8:	2443005b 	addiu	v1,v0,91
9d0032dc:	50600004 	beqzl	v1,9d0032f0 <malloc+0x1dc>
9d0032e0:	2c430155 	sltiu	v1,v0,341
9d0032e4:	00101b02 	srl	v1,s0,0xc
9d0032e8:	1000ffcd 	b	9d003220 <malloc+0x10c>
9d0032ec:	2463006e 	addiu	v1,v1,110
9d0032f0:	10600004 	beqz	v1,9d003304 <malloc+0x1f0>
9d0032f4:	2c420555 	sltiu	v0,v0,1365
9d0032f8:	00101bc2 	srl	v1,s0,0xf
9d0032fc:	1000ffc8 	b	9d003220 <malloc+0x10c>
9d003300:	24630077 	addiu	v1,v1,119
9d003304:	1040ffc6 	beqz	v0,9d003220 <malloc+0x10c>
9d003308:	2403007e 	li	v1,126
9d00330c:	00101c82 	srl	v1,s0,0x12
9d003310:	1000ffc3 	b	9d003220 <malloc+0x10c>
9d003314:	2463007c 	addiu	v1,v1,124
9d003318:	04c00006 	bltz	a2,9d003334 <malloc+0x220>
9d00331c:	8c45000c 	lw	a1,12(v0)
9d003320:	8c430008 	lw	v1,8(v0)
9d003324:	ac65000c 	sw	a1,12(v1)
9d003328:	aca30008 	sw	v1,8(a1)
9d00332c:	1000ffb0 	b	9d0031f0 <malloc+0xdc>
9d003330:	00441821 	addu	v1,v0,a0
9d003334:	1000ffc2 	b	9d003240 <malloc+0x12c>
9d003338:	00a01025 	move	v0,a1
9d00333c:	04a00006 	bltz	a1,9d003358 <malloc+0x244>
9d003340:	ae260010 	sw	a2,16(s1)
9d003344:	00442021 	addu	a0,v0,a0
9d003348:	8c830004 	lw	v1,4(a0)
9d00334c:	34630001 	ori	v1,v1,0x1
9d003350:	1000ffaa 	b	9d0031fc <malloc+0xe8>
9d003354:	ac830004 	sw	v1,4(a0)
9d003358:	2c850200 	sltiu	a1,a0,512
9d00335c:	10a00079 	beqz	a1,9d003544 <malloc+0x430>
9d003360:	8e290004 	lw	t1,4(s1)
9d003364:	000420c2 	srl	a0,a0,0x3
9d003368:	00043883 	sra	a3,a0,0x2
9d00336c:	24050001 	li	a1,1
9d003370:	24840001 	addiu	a0,a0,1
9d003374:	00e52804 	sllv	a1,a1,a3
9d003378:	000420c0 	sll	a0,a0,0x3
9d00337c:	02242021 	addu	a0,s1,a0
9d003380:	00a92825 	or	a1,a1,t1
9d003384:	ae250004 	sw	a1,4(s1)
9d003388:	8c850000 	lw	a1,0(a0)
9d00338c:	2487fff8 	addiu	a3,a0,-8
9d003390:	ac47000c 	sw	a3,12(v0)
9d003394:	ac450008 	sw	a1,8(v0)
9d003398:	ac820000 	sw	v0,0(a0)
9d00339c:	aca2000c 	sw	v0,12(a1)
9d0033a0:	00031083 	sra	v0,v1,0x2
9d0033a4:	240b0001 	li	t3,1
9d0033a8:	004b5804 	sllv	t3,t3,v0
9d0033ac:	8e220004 	lw	v0,4(s1)
9d0033b0:	004b202b 	sltu	a0,v0,t3
9d0033b4:	54800024 	bnezl	a0,9d003448 <malloc+0x334>
9d0033b8:	8e340008 	lw	s4,8(s1)
9d0033bc:	004b2024 	and	a0,v0,t3
9d0033c0:	14800007 	bnez	a0,9d0033e0 <malloc+0x2cc>
9d0033c4:	240cfffc 	li	t4,-4
9d0033c8:	7c030804 	ins	v1,zero,0x0,0x2
9d0033cc:	000b5840 	sll	t3,t3,0x1
9d0033d0:	004b2024 	and	a0,v0,t3
9d0033d4:	1080fffd 	beqz	a0,9d0033cc <malloc+0x2b8>
9d0033d8:	24630004 	addiu	v1,v1,4
9d0033dc:	240cfffc 	li	t4,-4
9d0033e0:	000328c0 	sll	a1,v1,0x3
9d0033e4:	02252821 	addu	a1,s1,a1
9d0033e8:	00a04825 	move	t1,a1
9d0033ec:	00604025 	move	t0,v1
9d0033f0:	8d22000c 	lw	v0,12(t1)
9d0033f4:	54490086 	bnel	v0,t1,9d003610 <malloc+0x4fc>
9d0033f8:	8c440004 	lw	a0,4(v0)
9d0033fc:	25080001 	addiu	t0,t0,1
9d003400:	31020003 	andi	v0,t0,0x3
9d003404:	1440fffa 	bnez	v0,9d0033f0 <malloc+0x2dc>
9d003408:	25290008 	addiu	t1,t1,8
9d00340c:	30620003 	andi	v0,v1,0x3
9d003410:	5440009d 	bnezl	v0,9d003688 <malloc+0x574>
9d003414:	24a5fff8 	addiu	a1,a1,-8
9d003418:	8e230004 	lw	v1,4(s1)
9d00341c:	000b1027 	nor	v0,zero,t3
9d003420:	00621024 	and	v0,v1,v0
9d003424:	ae220004 	sw	v0,4(s1)
9d003428:	8e220004 	lw	v0,4(s1)
9d00342c:	000b5840 	sll	t3,t3,0x1
9d003430:	004b182b 	sltu	v1,v0,t3
9d003434:	54600004 	bnezl	v1,9d003448 <malloc+0x334>
9d003438:	8e340008 	lw	s4,8(s1)
9d00343c:	15600098 	bnez	t3,9d0036a0 <malloc+0x58c>
9d003440:	01001825 	move	v1,t0
9d003444:	8e340008 	lw	s4,8(s1)
9d003448:	8e820004 	lw	v0,4(s4)
9d00344c:	7c020804 	ins	v0,zero,0x0,0x2
9d003450:	0040a825 	move	s5,v0
9d003454:	0050102b 	sltu	v0,v0,s0
9d003458:	14400004 	bnez	v0,9d00346c <malloc+0x358>
9d00345c:	02b01823 	subu	v1,s5,s0
9d003460:	28620010 	slti	v0,v1,16
9d003464:	504000c1 	beqzl	v0,9d00376c <malloc+0x658>
9d003468:	8e220008 	lw	v0,8(s1)
9d00346c:	3c02a000 	lui	v0,0xa000
9d003470:	8c420694 	lw	v0,1684(v0)
9d003474:	0295f021 	addu	s8,s4,s5
9d003478:	24420010 	addiu	v0,v0,16
9d00347c:	0f4027b5 	jal	9d009ed4 <getpagesize>
9d003480:	0050b821 	addu	s7,v0,s0
9d003484:	3c04a000 	lui	a0,0xa000
9d003488:	8c8500f8 	lw	a1,248(a0)
9d00348c:	00409025 	move	s2,v0
9d003490:	2402ffff 	li	v0,-1
9d003494:	10a20005 	beq	a1,v0,9d0034ac <malloc+0x398>
9d003498:	00801825 	move	v1,a0
9d00349c:	26e2ffff 	addiu	v0,s7,-1
9d0034a0:	00521021 	addu	v0,v0,s2
9d0034a4:	0012b823 	negu	s7,s2
9d0034a8:	02e2b824 	and	s7,s7,v0
9d0034ac:	02e02025 	move	a0,s7
9d0034b0:	0f402637 	jal	9d0098dc <sbrk>
9d0034b4:	afa30010 	sw	v1,16(sp)
9d0034b8:	0040b025 	move	s6,v0
9d0034bc:	2402ffff 	li	v0,-1
9d0034c0:	52c200a0 	beql	s6,v0,9d003744 <malloc+0x630>
9d0034c4:	8e220008 	lw	v0,8(s1)
9d0034c8:	02de102b 	sltu	v0,s6,s8
9d0034cc:	10400003 	beqz	v0,9d0034dc <malloc+0x3c8>
9d0034d0:	8fa30010 	lw	v1,16(sp)
9d0034d4:	5691009b 	bnel	s4,s1,9d003744 <malloc+0x630>
9d0034d8:	8e220008 	lw	v0,8(s1)
9d0034dc:	3c13a000 	lui	s3,0xa000
9d0034e0:	8e650664 	lw	a1,1636(s3)
9d0034e4:	2644ffff 	addiu	a0,s2,-1
9d0034e8:	02e52821 	addu	a1,s7,a1
9d0034ec:	17d60071 	bne	s8,s6,9d0036b4 <malloc+0x5a0>
9d0034f0:	ae650664 	sw	a1,1636(s3)
9d0034f4:	03c41024 	and	v0,s8,a0
9d0034f8:	1440006f 	bnez	v0,9d0036b8 <malloc+0x5a4>
9d0034fc:	8c6600f8 	lw	a2,248(v1)
9d003500:	8e230008 	lw	v1,8(s1)
9d003504:	02b71021 	addu	v0,s5,s7
9d003508:	34420001 	ori	v0,v0,0x1
9d00350c:	ac620004 	sw	v0,4(v1)
9d003510:	3c04a000 	lui	a0,0xa000
9d003514:	8e620664 	lw	v0,1636(s3)
9d003518:	8c830690 	lw	v1,1680(a0)
9d00351c:	0062182b 	sltu	v1,v1,v0
9d003520:	54600001 	bnezl	v1,9d003528 <malloc+0x414>
9d003524:	ac820690 	sw	v0,1680(a0)
9d003528:	3c04a000 	lui	a0,0xa000
9d00352c:	8c83068c 	lw	v1,1676(a0)
9d003530:	0062182b 	sltu	v1,v1,v0
9d003534:	54600082 	bnezl	v1,9d003740 <malloc+0x62c>
9d003538:	ac82068c 	sw	v0,1676(a0)
9d00353c:	10000081 	b	9d003744 <malloc+0x630>
9d003540:	8e220008 	lw	v0,8(s1)
9d003544:	00042a42 	srl	a1,a0,0x9
9d003548:	2ca70005 	sltiu	a3,a1,5
9d00354c:	10e00014 	beqz	a3,9d0035a0 <malloc+0x48c>
9d003550:	2ca70015 	sltiu	a3,a1,21
9d003554:	00042982 	srl	a1,a0,0x6
9d003558:	24a50038 	addiu	a1,a1,56
9d00355c:	24a70001 	addiu	a3,a1,1
9d003560:	000738c0 	sll	a3,a3,0x3
9d003564:	02273821 	addu	a3,s1,a3
9d003568:	24e8fff8 	addiu	t0,a3,-8
9d00356c:	8ce70000 	lw	a3,0(a3)
9d003570:	15070020 	bne	t0,a3,9d0035f4 <malloc+0x4e0>
9d003574:	240afffc 	li	t2,-4
9d003578:	00052883 	sra	a1,a1,0x2
9d00357c:	24040001 	li	a0,1
9d003580:	00a42804 	sllv	a1,a0,a1
9d003584:	00a92825 	or	a1,a1,t1
9d003588:	ae250004 	sw	a1,4(s1)
9d00358c:	ac48000c 	sw	t0,12(v0)
9d003590:	ac470008 	sw	a3,8(v0)
9d003594:	ad020008 	sw	v0,8(t0)
9d003598:	1000ff81 	b	9d0033a0 <malloc+0x28c>
9d00359c:	ace2000c 	sw	v0,12(a3)
9d0035a0:	10e00003 	beqz	a3,9d0035b0 <malloc+0x49c>
9d0035a4:	2ca70055 	sltiu	a3,a1,85
9d0035a8:	1000ffec 	b	9d00355c <malloc+0x448>
9d0035ac:	24a5005b 	addiu	a1,a1,91
9d0035b0:	10e00004 	beqz	a3,9d0035c4 <malloc+0x4b0>
9d0035b4:	2ca70155 	sltiu	a3,a1,341
9d0035b8:	00042b02 	srl	a1,a0,0xc
9d0035bc:	1000ffe7 	b	9d00355c <malloc+0x448>
9d0035c0:	24a5006e 	addiu	a1,a1,110
9d0035c4:	10e00004 	beqz	a3,9d0035d8 <malloc+0x4c4>
9d0035c8:	2ca70555 	sltiu	a3,a1,1365
9d0035cc:	00042bc2 	srl	a1,a0,0xf
9d0035d0:	1000ffe2 	b	9d00355c <malloc+0x448>
9d0035d4:	24a50077 	addiu	a1,a1,119
9d0035d8:	10e0ffe0 	beqz	a3,9d00355c <malloc+0x448>
9d0035dc:	2405007e 	li	a1,126
9d0035e0:	00042c82 	srl	a1,a0,0x12
9d0035e4:	1000ffdd 	b	9d00355c <malloc+0x448>
9d0035e8:	24a5007c 	addiu	a1,a1,124
9d0035ec:	5107ffe7 	beql	t0,a3,9d00358c <malloc+0x478>
9d0035f0:	8ce8000c 	lw	t0,12(a3)
9d0035f4:	8ce50004 	lw	a1,4(a3)
9d0035f8:	01452824 	and	a1,t2,a1
9d0035fc:	0085282b 	sltu	a1,a0,a1
9d003600:	54a0fffa 	bnezl	a1,9d0035ec <malloc+0x4d8>
9d003604:	8ce70008 	lw	a3,8(a3)
9d003608:	1000ffe0 	b	9d00358c <malloc+0x478>
9d00360c:	8ce8000c 	lw	t0,12(a3)
9d003610:	01842024 	and	a0,t4,a0
9d003614:	00905023 	subu	t2,a0,s0
9d003618:	294d0010 	slti	t5,t2,16
9d00361c:	15a00010 	bnez	t5,9d003660 <malloc+0x54c>
9d003620:	8c47000c 	lw	a3,12(v0)
9d003624:	8c450008 	lw	a1,8(v0)
9d003628:	00501821 	addu	v1,v0,s0
9d00362c:	36100001 	ori	s0,s0,0x1
9d003630:	ac500004 	sw	s0,4(v0)
9d003634:	00442021 	addu	a0,v0,a0
9d003638:	aca7000c 	sw	a3,12(a1)
9d00363c:	ace50008 	sw	a1,8(a3)
9d003640:	35450001 	ori	a1,t2,0x1
9d003644:	ae230014 	sw	v1,20(s1)
9d003648:	ae230010 	sw	v1,16(s1)
9d00364c:	ac66000c 	sw	a2,12(v1)
9d003650:	ac660008 	sw	a2,8(v1)
9d003654:	ac650004 	sw	a1,4(v1)
9d003658:	1000fee8 	b	9d0031fc <malloc+0xe8>
9d00365c:	ac8a0000 	sw	t2,0(a0)
9d003660:	0542ff64 	bltzl	t2,9d0033f4 <malloc+0x2e0>
9d003664:	00e01025 	move	v0,a3
9d003668:	00442021 	addu	a0,v0,a0
9d00366c:	8c830004 	lw	v1,4(a0)
9d003670:	34630001 	ori	v1,v1,0x1
9d003674:	ac830004 	sw	v1,4(a0)
9d003678:	8c430008 	lw	v1,8(v0)
9d00367c:	ac67000c 	sw	a3,12(v1)
9d003680:	1000fede 	b	9d0031fc <malloc+0xe8>
9d003684:	ace30008 	sw	v1,8(a3)
9d003688:	8ca20008 	lw	v0,8(a1)
9d00368c:	1045ff5f 	beq	v0,a1,9d00340c <malloc+0x2f8>
9d003690:	2463ffff 	addiu	v1,v1,-1
9d003694:	1000ff65 	b	9d00342c <malloc+0x318>
9d003698:	8e220004 	lw	v0,4(s1)
9d00369c:	000b5840 	sll	t3,t3,0x1
9d0036a0:	004b2024 	and	a0,v0,t3
9d0036a4:	5080fffd 	beqzl	a0,9d00369c <malloc+0x588>
9d0036a8:	24630004 	addiu	v1,v1,4
9d0036ac:	1000ff4d 	b	9d0033e4 <malloc+0x2d0>
9d0036b0:	000328c0 	sll	a1,v1,0x3
9d0036b4:	8c6600f8 	lw	a2,248(v1)
9d0036b8:	2402ffff 	li	v0,-1
9d0036bc:	54c20032 	bnel	a2,v0,9d003788 <malloc+0x674>
9d0036c0:	02de1823 	subu	v1,s6,s8
9d0036c4:	ac7600f8 	sw	s6,248(v1)
9d0036c8:	32c30007 	andi	v1,s6,0x7
9d0036cc:	10600005 	beqz	v1,9d0036e4 <malloc+0x5d0>
9d0036d0:	02d71021 	addu	v0,s6,s7
9d0036d4:	24020008 	li	v0,8
9d0036d8:	00431823 	subu	v1,v0,v1
9d0036dc:	02c3b021 	addu	s6,s6,v1
9d0036e0:	02d71021 	addu	v0,s6,s7
9d0036e4:	02439021 	addu	s2,s2,v1
9d0036e8:	00441024 	and	v0,v0,a0
9d0036ec:	02429023 	subu	s2,s2,v0
9d0036f0:	0f402637 	jal	9d0098dc <sbrk>
9d0036f4:	02402025 	move	a0,s2
9d0036f8:	2403ffff 	li	v1,-1
9d0036fc:	14430003 	bne	v0,v1,9d00370c <malloc+0x5f8>
9d003700:	8e630664 	lw	v1,1636(s3)
9d003704:	02c01025 	move	v0,s6
9d003708:	00009025 	move	s2,zero
9d00370c:	00561023 	subu	v0,v0,s6
9d003710:	ae360008 	sw	s6,8(s1)
9d003714:	00721821 	addu	v1,v1,s2
9d003718:	00529021 	addu	s2,v0,s2
9d00371c:	36520001 	ori	s2,s2,0x1
9d003720:	ae630664 	sw	v1,1636(s3)
9d003724:	1291ff7a 	beq	s4,s1,9d003510 <malloc+0x3fc>
9d003728:	aed20004 	sw	s2,4(s6)
9d00372c:	2ea20010 	sltiu	v0,s5,16
9d003730:	50400018 	beqzl	v0,9d003794 <malloc+0x680>
9d003734:	26a2fff4 	addiu	v0,s5,-12
9d003738:	24020001 	li	v0,1
9d00373c:	aec20004 	sw	v0,4(s6)
9d003740:	8e220008 	lw	v0,8(s1)
9d003744:	8c420004 	lw	v0,4(v0)
9d003748:	7c020804 	ins	v0,zero,0x0,0x2
9d00374c:	0050202b 	sltu	a0,v0,s0
9d003750:	00501823 	subu	v1,v0,s0
9d003754:	1480fe86 	bnez	a0,9d003170 <malloc+0x5c>
9d003758:	00001025 	move	v0,zero
9d00375c:	28640010 	slti	a0,v1,16
9d003760:	1480fe84 	bnez	a0,9d003174 <malloc+0x60>
9d003764:	8fbf003c 	lw	ra,60(sp)
9d003768:	8e220008 	lw	v0,8(s1)
9d00376c:	36040001 	ori	a0,s0,0x1
9d003770:	34630001 	ori	v1,v1,0x1
9d003774:	00508021 	addu	s0,v0,s0
9d003778:	ac440004 	sw	a0,4(v0)
9d00377c:	ae300008 	sw	s0,8(s1)
9d003780:	1000fe9e 	b	9d0031fc <malloc+0xe8>
9d003784:	ae030004 	sw	v1,4(s0)
9d003788:	00651821 	addu	v1,v1,a1
9d00378c:	1000ffce 	b	9d0036c8 <malloc+0x5b4>
9d003790:	ae630664 	sw	v1,1636(s3)
9d003794:	7c021004 	ins	v0,zero,0x0,0x3
9d003798:	02821821 	addu	v1,s4,v0
9d00379c:	24040005 	li	a0,5
9d0037a0:	ac640004 	sw	a0,4(v1)
9d0037a4:	ac640008 	sw	a0,8(v1)
9d0037a8:	8e830004 	lw	v1,4(s4)
9d0037ac:	30630001 	andi	v1,v1,0x1
9d0037b0:	00621825 	or	v1,v1,v0
9d0037b4:	2c420010 	sltiu	v0,v0,16
9d0037b8:	1440ff55 	bnez	v0,9d003510 <malloc+0x3fc>
9d0037bc:	ae830004 	sw	v1,4(s4)
9d0037c0:	0f401acf 	jal	9d006b3c <free>
9d0037c4:	26840008 	addiu	a0,s4,8
9d0037c8:	1000ff52 	b	9d003514 <malloc+0x400>
9d0037cc:	3c04a000 	lui	a0,0xa000
9d0037d0:	2c840011 	sltiu	a0,a0,17
9d0037d4:	1480fe74 	bnez	a0,9d0031a8 <malloc+0x94>
9d0037d8:	24100010 	li	s0,16
9d0037dc:	1000fe61 	b	9d003164 <malloc+0x50>
9d0037e0:	3c02a000 	lui	v0,0xa000

Disassembly of section .dinit:

9d0037e4 <.dinit>:
9d0037e4:	a0000008 	sb	zero,8(zero)
9d0037e8:	0000003c 	0x3c
9d0037ec:	00000000 	nop
9d0037f0:	a0000044 	sb	zero,68(zero)
9d0037f4:	0000000c 	syscall
9d0037f8:	00000000 	nop
9d0037fc:	a0000094 	sb	zero,148(zero)
9d003800:	00000064 	0x64
9d003804:	00000000 	nop
9d003808:	a0000050 	sb	zero,80(zero)
9d00380c:	00000024 	and	zero,zero,zero
9d003810:	00000000 	nop
9d003814:	a0000074 	sb	zero,116(zero)
9d003818:	00000014 	0x14
9d00381c:	00000000 	nop
9d003820:	a0000508 	sb	zero,1288(zero)
9d003824:	000000d4 	0xd4
9d003828:	00000001 	movf	zero,zero,$fcc0
9d00382c:	a000056c 	sb	zero,1388(zero)
9d003830:	a0000588 	sb	zero,1416(zero)
9d003834:	a00005a4 	sb	zero,1444(zero)
9d003838:	a0000568 	sb	zero,1384(zero)
9d00383c:	a00005dc 	sb	zero,1500(zero)
9d003840:	00000001 	movf	zero,zero,$fcc0
	...
9d003890:	ffffffff 	sdc3	$31,-1(ra)
9d003894:	ffffffff 	sdc3	$31,-1(ra)
9d003898:	00000000 	nop
9d00389c:	00000040 	ssnop
9d0038a0:	00001009 	jalr	v0,zero
9d0038a4:	00000000 	nop
9d0038a8:	9d009da4 	0x9d009da4
9d0038ac:	ffffffff 	sdc3	$31,-1(ra)
	...
9d0038bc:	00011002 	srl	v0,at,0x0
9d0038c0:	00000000 	nop
9d0038c4:	9d009da4 	0x9d009da4
9d0038c8:	ffffffff 	sdc3	$31,-1(ra)
	...
9d0038d8:	00020002 	srl	zero,v0,0x0
9d0038dc:	00000000 	nop
9d0038e0:	9d009da4 	0x9d009da4
9d0038e4:	fffffffd 	sdc3	$31,-3(ra)
	...
9d003900:	a00005dc 	sb	zero,1500(zero)
9d003904:	00000088 	0x88
9d003908:	00000000 	nop
9d00390c:	a0000000 	sb	zero,0(zero)
9d003910:	00000004 	sllv	zero,zero,zero
9d003914:	00000001 	movf	zero,zero,$fcc0
9d003918:	a0000508 	sb	zero,1288(zero)
9d00391c:	a00006dc 	sb	zero,1756(zero)
9d003920:	00000004 	sllv	zero,zero,zero
9d003924:	00000000 	nop
9d003928:	a00000f8 	sb	zero,248(zero)
9d00392c:	00000410 	0x410
9d003930:	00000001 	movf	zero,zero,$fcc0
9d003934:	ffffffff 	sdc3	$31,-1(ra)
9d003938:	00002000 	sll	a0,zero,0x0
	...
9d003944:	a0000100 	sb	zero,256(zero)
9d003948:	a0000100 	sb	zero,256(zero)
9d00394c:	a0000108 	sb	zero,264(zero)
9d003950:	a0000108 	sb	zero,264(zero)
9d003954:	a0000110 	sb	zero,272(zero)
9d003958:	a0000110 	sb	zero,272(zero)
9d00395c:	a0000118 	sb	zero,280(zero)
9d003960:	a0000118 	sb	zero,280(zero)
9d003964:	a0000120 	sb	zero,288(zero)
9d003968:	a0000120 	sb	zero,288(zero)
9d00396c:	a0000128 	sb	zero,296(zero)
9d003970:	a0000128 	sb	zero,296(zero)
9d003974:	a0000130 	sb	zero,304(zero)
9d003978:	a0000130 	sb	zero,304(zero)
9d00397c:	a0000138 	sb	zero,312(zero)
9d003980:	a0000138 	sb	zero,312(zero)
9d003984:	a0000140 	sb	zero,320(zero)
9d003988:	a0000140 	sb	zero,320(zero)
9d00398c:	a0000148 	sb	zero,328(zero)
9d003990:	a0000148 	sb	zero,328(zero)
9d003994:	a0000150 	sb	zero,336(zero)
9d003998:	a0000150 	sb	zero,336(zero)
9d00399c:	a0000158 	sb	zero,344(zero)
9d0039a0:	a0000158 	sb	zero,344(zero)
9d0039a4:	a0000160 	sb	zero,352(zero)
9d0039a8:	a0000160 	sb	zero,352(zero)
9d0039ac:	a0000168 	sb	zero,360(zero)
9d0039b0:	a0000168 	sb	zero,360(zero)
9d0039b4:	a0000170 	sb	zero,368(zero)
9d0039b8:	a0000170 	sb	zero,368(zero)
9d0039bc:	a0000178 	sb	zero,376(zero)
9d0039c0:	a0000178 	sb	zero,376(zero)
9d0039c4:	a0000180 	sb	zero,384(zero)
9d0039c8:	a0000180 	sb	zero,384(zero)
9d0039cc:	a0000188 	sb	zero,392(zero)
9d0039d0:	a0000188 	sb	zero,392(zero)
9d0039d4:	a0000190 	sb	zero,400(zero)
9d0039d8:	a0000190 	sb	zero,400(zero)
9d0039dc:	a0000198 	sb	zero,408(zero)
9d0039e0:	a0000198 	sb	zero,408(zero)
9d0039e4:	a00001a0 	sb	zero,416(zero)
9d0039e8:	a00001a0 	sb	zero,416(zero)
9d0039ec:	a00001a8 	sb	zero,424(zero)
9d0039f0:	a00001a8 	sb	zero,424(zero)
9d0039f4:	a00001b0 	sb	zero,432(zero)
9d0039f8:	a00001b0 	sb	zero,432(zero)
9d0039fc:	a00001b8 	sb	zero,440(zero)
9d003a00:	a00001b8 	sb	zero,440(zero)
9d003a04:	a00001c0 	sb	zero,448(zero)
9d003a08:	a00001c0 	sb	zero,448(zero)
9d003a0c:	a00001c8 	sb	zero,456(zero)
9d003a10:	a00001c8 	sb	zero,456(zero)
9d003a14:	a00001d0 	sb	zero,464(zero)
9d003a18:	a00001d0 	sb	zero,464(zero)
9d003a1c:	a00001d8 	sb	zero,472(zero)
9d003a20:	a00001d8 	sb	zero,472(zero)
9d003a24:	a00001e0 	sb	zero,480(zero)
9d003a28:	a00001e0 	sb	zero,480(zero)
9d003a2c:	a00001e8 	sb	zero,488(zero)
9d003a30:	a00001e8 	sb	zero,488(zero)
9d003a34:	a00001f0 	sb	zero,496(zero)
9d003a38:	a00001f0 	sb	zero,496(zero)
9d003a3c:	a00001f8 	sb	zero,504(zero)
9d003a40:	a00001f8 	sb	zero,504(zero)
9d003a44:	a0000200 	sb	zero,512(zero)
9d003a48:	a0000200 	sb	zero,512(zero)
9d003a4c:	a0000208 	sb	zero,520(zero)
9d003a50:	a0000208 	sb	zero,520(zero)
9d003a54:	a0000210 	sb	zero,528(zero)
9d003a58:	a0000210 	sb	zero,528(zero)
9d003a5c:	a0000218 	sb	zero,536(zero)
9d003a60:	a0000218 	sb	zero,536(zero)
9d003a64:	a0000220 	sb	zero,544(zero)
9d003a68:	a0000220 	sb	zero,544(zero)
9d003a6c:	a0000228 	sb	zero,552(zero)
9d003a70:	a0000228 	sb	zero,552(zero)
9d003a74:	a0000230 	sb	zero,560(zero)
9d003a78:	a0000230 	sb	zero,560(zero)
9d003a7c:	a0000238 	sb	zero,568(zero)
9d003a80:	a0000238 	sb	zero,568(zero)
9d003a84:	a0000240 	sb	zero,576(zero)
9d003a88:	a0000240 	sb	zero,576(zero)
9d003a8c:	a0000248 	sb	zero,584(zero)
9d003a90:	a0000248 	sb	zero,584(zero)
9d003a94:	a0000250 	sb	zero,592(zero)
9d003a98:	a0000250 	sb	zero,592(zero)
9d003a9c:	a0000258 	sb	zero,600(zero)
9d003aa0:	a0000258 	sb	zero,600(zero)
9d003aa4:	a0000260 	sb	zero,608(zero)
9d003aa8:	a0000260 	sb	zero,608(zero)
9d003aac:	a0000268 	sb	zero,616(zero)
9d003ab0:	a0000268 	sb	zero,616(zero)
9d003ab4:	a0000270 	sb	zero,624(zero)
9d003ab8:	a0000270 	sb	zero,624(zero)
9d003abc:	a0000278 	sb	zero,632(zero)
9d003ac0:	a0000278 	sb	zero,632(zero)
9d003ac4:	a0000280 	sb	zero,640(zero)
9d003ac8:	a0000280 	sb	zero,640(zero)
9d003acc:	a0000288 	sb	zero,648(zero)
9d003ad0:	a0000288 	sb	zero,648(zero)
9d003ad4:	a0000290 	sb	zero,656(zero)
9d003ad8:	a0000290 	sb	zero,656(zero)
9d003adc:	a0000298 	sb	zero,664(zero)
9d003ae0:	a0000298 	sb	zero,664(zero)
9d003ae4:	a00002a0 	sb	zero,672(zero)
9d003ae8:	a00002a0 	sb	zero,672(zero)
9d003aec:	a00002a8 	sb	zero,680(zero)
9d003af0:	a00002a8 	sb	zero,680(zero)
9d003af4:	a00002b0 	sb	zero,688(zero)
9d003af8:	a00002b0 	sb	zero,688(zero)
9d003afc:	a00002b8 	sb	zero,696(zero)
9d003b00:	a00002b8 	sb	zero,696(zero)
9d003b04:	a00002c0 	sb	zero,704(zero)
9d003b08:	a00002c0 	sb	zero,704(zero)
9d003b0c:	a00002c8 	sb	zero,712(zero)
9d003b10:	a00002c8 	sb	zero,712(zero)
9d003b14:	a00002d0 	sb	zero,720(zero)
9d003b18:	a00002d0 	sb	zero,720(zero)
9d003b1c:	a00002d8 	sb	zero,728(zero)
9d003b20:	a00002d8 	sb	zero,728(zero)
9d003b24:	a00002e0 	sb	zero,736(zero)
9d003b28:	a00002e0 	sb	zero,736(zero)
9d003b2c:	a00002e8 	sb	zero,744(zero)
9d003b30:	a00002e8 	sb	zero,744(zero)
9d003b34:	a00002f0 	sb	zero,752(zero)
9d003b38:	a00002f0 	sb	zero,752(zero)
9d003b3c:	a00002f8 	sb	zero,760(zero)
9d003b40:	a00002f8 	sb	zero,760(zero)
9d003b44:	a0000300 	sb	zero,768(zero)
9d003b48:	a0000300 	sb	zero,768(zero)
9d003b4c:	a0000308 	sb	zero,776(zero)
9d003b50:	a0000308 	sb	zero,776(zero)
9d003b54:	a0000310 	sb	zero,784(zero)
9d003b58:	a0000310 	sb	zero,784(zero)
9d003b5c:	a0000318 	sb	zero,792(zero)
9d003b60:	a0000318 	sb	zero,792(zero)
9d003b64:	a0000320 	sb	zero,800(zero)
9d003b68:	a0000320 	sb	zero,800(zero)
9d003b6c:	a0000328 	sb	zero,808(zero)
9d003b70:	a0000328 	sb	zero,808(zero)
9d003b74:	a0000330 	sb	zero,816(zero)
9d003b78:	a0000330 	sb	zero,816(zero)
9d003b7c:	a0000338 	sb	zero,824(zero)
9d003b80:	a0000338 	sb	zero,824(zero)
9d003b84:	a0000340 	sb	zero,832(zero)
9d003b88:	a0000340 	sb	zero,832(zero)
9d003b8c:	a0000348 	sb	zero,840(zero)
9d003b90:	a0000348 	sb	zero,840(zero)
9d003b94:	a0000350 	sb	zero,848(zero)
9d003b98:	a0000350 	sb	zero,848(zero)
9d003b9c:	a0000358 	sb	zero,856(zero)
9d003ba0:	a0000358 	sb	zero,856(zero)
9d003ba4:	a0000360 	sb	zero,864(zero)
9d003ba8:	a0000360 	sb	zero,864(zero)
9d003bac:	a0000368 	sb	zero,872(zero)
9d003bb0:	a0000368 	sb	zero,872(zero)
9d003bb4:	a0000370 	sb	zero,880(zero)
9d003bb8:	a0000370 	sb	zero,880(zero)
9d003bbc:	a0000378 	sb	zero,888(zero)
9d003bc0:	a0000378 	sb	zero,888(zero)
9d003bc4:	a0000380 	sb	zero,896(zero)
9d003bc8:	a0000380 	sb	zero,896(zero)
9d003bcc:	a0000388 	sb	zero,904(zero)
9d003bd0:	a0000388 	sb	zero,904(zero)
9d003bd4:	a0000390 	sb	zero,912(zero)
9d003bd8:	a0000390 	sb	zero,912(zero)
9d003bdc:	a0000398 	sb	zero,920(zero)
9d003be0:	a0000398 	sb	zero,920(zero)
9d003be4:	a00003a0 	sb	zero,928(zero)
9d003be8:	a00003a0 	sb	zero,928(zero)
9d003bec:	a00003a8 	sb	zero,936(zero)
9d003bf0:	a00003a8 	sb	zero,936(zero)
9d003bf4:	a00003b0 	sb	zero,944(zero)
9d003bf8:	a00003b0 	sb	zero,944(zero)
9d003bfc:	a00003b8 	sb	zero,952(zero)
9d003c00:	a00003b8 	sb	zero,952(zero)
9d003c04:	a00003c0 	sb	zero,960(zero)
9d003c08:	a00003c0 	sb	zero,960(zero)
9d003c0c:	a00003c8 	sb	zero,968(zero)
9d003c10:	a00003c8 	sb	zero,968(zero)
9d003c14:	a00003d0 	sb	zero,976(zero)
9d003c18:	a00003d0 	sb	zero,976(zero)
9d003c1c:	a00003d8 	sb	zero,984(zero)
9d003c20:	a00003d8 	sb	zero,984(zero)
9d003c24:	a00003e0 	sb	zero,992(zero)
9d003c28:	a00003e0 	sb	zero,992(zero)
9d003c2c:	a00003e8 	sb	zero,1000(zero)
9d003c30:	a00003e8 	sb	zero,1000(zero)
9d003c34:	a00003f0 	sb	zero,1008(zero)
9d003c38:	a00003f0 	sb	zero,1008(zero)
9d003c3c:	a00003f8 	sb	zero,1016(zero)
9d003c40:	a00003f8 	sb	zero,1016(zero)
9d003c44:	a0000400 	sb	zero,1024(zero)
9d003c48:	a0000400 	sb	zero,1024(zero)
9d003c4c:	a0000408 	sb	zero,1032(zero)
9d003c50:	a0000408 	sb	zero,1032(zero)
9d003c54:	a0000410 	sb	zero,1040(zero)
9d003c58:	a0000410 	sb	zero,1040(zero)
9d003c5c:	a0000418 	sb	zero,1048(zero)
9d003c60:	a0000418 	sb	zero,1048(zero)
9d003c64:	a0000420 	sb	zero,1056(zero)
9d003c68:	a0000420 	sb	zero,1056(zero)
9d003c6c:	a0000428 	sb	zero,1064(zero)
9d003c70:	a0000428 	sb	zero,1064(zero)
9d003c74:	a0000430 	sb	zero,1072(zero)
9d003c78:	a0000430 	sb	zero,1072(zero)
9d003c7c:	a0000438 	sb	zero,1080(zero)
9d003c80:	a0000438 	sb	zero,1080(zero)
9d003c84:	a0000440 	sb	zero,1088(zero)
9d003c88:	a0000440 	sb	zero,1088(zero)
9d003c8c:	a0000448 	sb	zero,1096(zero)
9d003c90:	a0000448 	sb	zero,1096(zero)
9d003c94:	a0000450 	sb	zero,1104(zero)
9d003c98:	a0000450 	sb	zero,1104(zero)
9d003c9c:	a0000458 	sb	zero,1112(zero)
9d003ca0:	a0000458 	sb	zero,1112(zero)
9d003ca4:	a0000460 	sb	zero,1120(zero)
9d003ca8:	a0000460 	sb	zero,1120(zero)
9d003cac:	a0000468 	sb	zero,1128(zero)
9d003cb0:	a0000468 	sb	zero,1128(zero)
9d003cb4:	a0000470 	sb	zero,1136(zero)
9d003cb8:	a0000470 	sb	zero,1136(zero)
9d003cbc:	a0000478 	sb	zero,1144(zero)
9d003cc0:	a0000478 	sb	zero,1144(zero)
9d003cc4:	a0000480 	sb	zero,1152(zero)
9d003cc8:	a0000480 	sb	zero,1152(zero)
9d003ccc:	a0000488 	sb	zero,1160(zero)
9d003cd0:	a0000488 	sb	zero,1160(zero)
9d003cd4:	a0000490 	sb	zero,1168(zero)
9d003cd8:	a0000490 	sb	zero,1168(zero)
9d003cdc:	a0000498 	sb	zero,1176(zero)
9d003ce0:	a0000498 	sb	zero,1176(zero)
9d003ce4:	a00004a0 	sb	zero,1184(zero)
9d003ce8:	a00004a0 	sb	zero,1184(zero)
9d003cec:	a00004a8 	sb	zero,1192(zero)
9d003cf0:	a00004a8 	sb	zero,1192(zero)
9d003cf4:	a00004b0 	sb	zero,1200(zero)
9d003cf8:	a00004b0 	sb	zero,1200(zero)
9d003cfc:	a00004b8 	sb	zero,1208(zero)
9d003d00:	a00004b8 	sb	zero,1208(zero)
9d003d04:	a00004c0 	sb	zero,1216(zero)
9d003d08:	a00004c0 	sb	zero,1216(zero)
9d003d0c:	a00004c8 	sb	zero,1224(zero)
9d003d10:	a00004c8 	sb	zero,1224(zero)
9d003d14:	a00004d0 	sb	zero,1232(zero)
9d003d18:	a00004d0 	sb	zero,1232(zero)
9d003d1c:	a00004d8 	sb	zero,1240(zero)
9d003d20:	a00004d8 	sb	zero,1240(zero)
9d003d24:	a00004e0 	sb	zero,1248(zero)
9d003d28:	a00004e0 	sb	zero,1248(zero)
9d003d2c:	a00004e8 	sb	zero,1256(zero)
9d003d30:	a00004e8 	sb	zero,1256(zero)
9d003d34:	a00004f0 	sb	zero,1264(zero)
9d003d38:	a00004f0 	sb	zero,1264(zero)
9d003d3c:	a00004f8 	sb	zero,1272(zero)
9d003d40:	a00004f8 	sb	zero,1272(zero)
9d003d44:	a0000664 	sb	zero,1636(zero)
9d003d48:	00000034 	teq	zero,zero
9d003d4c:	00000000 	nop
9d003d50:	a0000088 	sb	zero,136(zero)
9d003d54:	00000004 	sllv	zero,zero,zero
9d003d58:	00000000 	nop
9d003d5c:	a00006bc 	sb	zero,1724(zero)
9d003d60:	00000020 	add	zero,zero,zero
9d003d64:	00000001 	movf	zero,zero,$fcc0
9d003d68:	00000000 	nop
9d003d6c:	ffffffff 	sdc3	$31,-1(ra)
	...
9d003d88:	a00006e0 	sb	zero,1760(zero)
9d003d8c:	00000004 	sllv	zero,zero,zero
9d003d90:	00000000 	nop
9d003d94:	a0000698 	sb	zero,1688(zero)
9d003d98:	00000024 	and	zero,zero,zero
9d003d9c:	00000000 	nop
9d003da0:	a0000004 	sb	zero,4(zero)
9d003da4:	00000004 	sllv	zero,zero,zero
9d003da8:	00000001 	movf	zero,zero,$fcc0
9d003dac:	00000002 	srl	zero,zero,0x0
9d003db0:	00000000 	nop

Disassembly of section .text.realloc:

9d003db4 <realloc>:
9d003db4:	27bdffc8 	addiu	sp,sp,-56
9d003db8:	afb00010 	sw	s0,16(sp)
9d003dbc:	00808025 	move	s0,a0
9d003dc0:	afbf0034 	sw	ra,52(sp)
9d003dc4:	afbe0030 	sw	s8,48(sp)
9d003dc8:	afb7002c 	sw	s7,44(sp)
9d003dcc:	afb60028 	sw	s6,40(sp)
9d003dd0:	afb50024 	sw	s5,36(sp)
9d003dd4:	afb40020 	sw	s4,32(sp)
9d003dd8:	afb3001c 	sw	s3,28(sp)
9d003ddc:	afb20018 	sw	s2,24(sp)
9d003de0:	afb10014 	sw	s1,20(sp)
9d003de4:	16000011 	bnez	s0,9d003e2c <realloc+0x78>
9d003de8:	00a02025 	move	a0,a1
9d003dec:	0f400c45 	jal	9d003114 <malloc>
9d003df0:	00000000 	nop
9d003df4:	0040a025 	move	s4,v0
9d003df8:	8fbf0034 	lw	ra,52(sp)
9d003dfc:	02801025 	move	v0,s4
9d003e00:	8fbe0030 	lw	s8,48(sp)
9d003e04:	8fb7002c 	lw	s7,44(sp)
9d003e08:	8fb60028 	lw	s6,40(sp)
9d003e0c:	8fb50024 	lw	s5,36(sp)
9d003e10:	8fb40020 	lw	s4,32(sp)
9d003e14:	8fb3001c 	lw	s3,28(sp)
9d003e18:	8fb20018 	lw	s2,24(sp)
9d003e1c:	8fb10014 	lw	s1,20(sp)
9d003e20:	8fb00010 	lw	s0,16(sp)
9d003e24:	03e00008 	jr	ra
9d003e28:	27bd0038 	addiu	sp,sp,56
9d003e2c:	24a2000b 	addiu	v0,a1,11
9d003e30:	2c430017 	sltiu	v1,v0,23
9d003e34:	54600009 	bnezl	v1,9d003e5c <realloc+0xa8>
9d003e38:	24160010 	li	s6,16
9d003e3c:	7c021004 	ins	v0,zero,0x0,0x3
9d003e40:	04410006 	bgez	v0,9d003e5c <realloc+0xa8>
9d003e44:	0040b025 	move	s6,v0
9d003e48:	3c02a000 	lui	v0,0xa000
9d003e4c:	2403000c 	li	v1,12
9d003e50:	ac430088 	sw	v1,136(v0)
9d003e54:	1000ffe8 	b	9d003df8 <realloc+0x44>
9d003e58:	0000a025 	move	s4,zero
9d003e5c:	02c4102b 	sltu	v0,s6,a0
9d003e60:	1440fffa 	bnez	v0,9d003e4c <realloc+0x98>
9d003e64:	3c02a000 	lui	v0,0xa000
9d003e68:	8e1efffc 	lw	s8,-4(s0)
9d003e6c:	03c09025 	move	s2,s8
9d003e70:	7c120804 	ins	s2,zero,0x0,0x2
9d003e74:	0256102a 	slt	v0,s2,s6
9d003e78:	10400122 	beqz	v0,9d004304 <realloc+0x550>
9d003e7c:	2613fff8 	addiu	s3,s0,-8
9d003e80:	3c17a000 	lui	s7,0xa000
9d003e84:	26f70100 	addiu	s7,s7,256
9d003e88:	8ee20008 	lw	v0,8(s7)
9d003e8c:	02721821 	addu	v1,s3,s2
9d003e90:	10430008 	beq	v0,v1,9d003eb4 <realloc+0x100>
9d003e94:	8c660004 	lw	a2,4(v1)
9d003e98:	00c02825 	move	a1,a2
9d003e9c:	7c050004 	ins	a1,zero,0x0,0x1
9d003ea0:	00652821 	addu	a1,v1,a1
9d003ea4:	8ca50004 	lw	a1,4(a1)
9d003ea8:	30a50001 	andi	a1,a1,0x1
9d003eac:	54a0001c 	bnezl	a1,9d003f20 <realloc+0x16c>
9d003eb0:	00003025 	move	a2,zero
9d003eb4:	7c060804 	ins	a2,zero,0x0,0x2
9d003eb8:	14430010 	bne	v0,v1,9d003efc <realloc+0x148>
9d003ebc:	0246a821 	addu	s5,s2,a2
9d003ec0:	26c50010 	addiu	a1,s6,16
9d003ec4:	02a5282a 	slt	a1,s5,a1
9d003ec8:	14a00017 	bnez	a1,9d003f28 <realloc+0x174>
9d003ecc:	33c50001 	andi	a1,s8,0x1
9d003ed0:	02b61023 	subu	v0,s5,s6
9d003ed4:	02769821 	addu	s3,s3,s6
9d003ed8:	34420001 	ori	v0,v0,0x1
9d003edc:	aef30008 	sw	s3,8(s7)
9d003ee0:	ae620004 	sw	v0,4(s3)
9d003ee4:	8e02fffc 	lw	v0,-4(s0)
9d003ee8:	0200a025 	move	s4,s0
9d003eec:	30420001 	andi	v0,v0,0x1
9d003ef0:	00561025 	or	v0,v0,s6
9d003ef4:	1000ffc0 	b	9d003df8 <realloc+0x44>
9d003ef8:	ae02fffc 	sw	v0,-4(s0)
9d003efc:	02b6282a 	slt	a1,s5,s6
9d003f00:	14a00009 	bnez	a1,9d003f28 <realloc+0x174>
9d003f04:	33c50001 	andi	a1,s8,0x1
9d003f08:	8c62000c 	lw	v0,12(v1)
9d003f0c:	8c630008 	lw	v1,8(v1)
9d003f10:	ac62000c 	sw	v0,12(v1)
9d003f14:	ac430008 	sw	v1,8(v0)
9d003f18:	10000069 	b	9d0040c0 <realloc+0x30c>
9d003f1c:	02608825 	move	s1,s3
9d003f20:	00001825 	move	v1,zero
9d003f24:	33c50001 	andi	a1,s8,0x1
9d003f28:	14a000ba 	bnez	a1,9d004214 <realloc+0x460>
9d003f2c:	00000000 	nop
9d003f30:	8e11fff8 	lw	s1,-8(s0)
9d003f34:	02718823 	subu	s1,s3,s1
9d003f38:	8e340004 	lw	s4,4(s1)
9d003f3c:	7c140804 	ins	s4,zero,0x0,0x2
9d003f40:	10600084 	beqz	v1,9d004154 <realloc+0x3a0>
9d003f44:	0292a021 	addu	s4,s4,s2
9d003f48:	1443003d 	bne	v0,v1,9d004040 <realloc+0x28c>
9d003f4c:	00d4a821 	addu	s5,a2,s4
9d003f50:	26c20010 	addiu	v0,s6,16
9d003f54:	02a2102a 	slt	v0,s5,v0
9d003f58:	1440007f 	bnez	v0,9d004158 <realloc+0x3a4>
9d003f5c:	0296102a 	slt	v0,s4,s6
9d003f60:	8e22000c 	lw	v0,12(s1)
9d003f64:	8e230008 	lw	v1,8(s1)
9d003f68:	2646fffc 	addiu	a2,s2,-4
9d003f6c:	ac62000c 	sw	v0,12(v1)
9d003f70:	ac430008 	sw	v1,8(v0)
9d003f74:	2cc20025 	sltiu	v0,a2,37
9d003f78:	1040002c 	beqz	v0,9d00402c <realloc+0x278>
9d003f7c:	26340008 	addiu	s4,s1,8
9d003f80:	2cc20014 	sltiu	v0,a2,20
9d003f84:	1440000a 	bnez	v0,9d003fb0 <realloc+0x1fc>
9d003f88:	02801825 	move	v1,s4
9d003f8c:	8e020000 	lw	v0,0(s0)
9d003f90:	ae220008 	sw	v0,8(s1)
9d003f94:	8e020004 	lw	v0,4(s0)
9d003f98:	ae22000c 	sw	v0,12(s1)
9d003f9c:	2cc2001c 	sltiu	v0,a2,28
9d003fa0:	50400013 	beqzl	v0,9d003ff0 <realloc+0x23c>
9d003fa4:	8e020008 	lw	v0,8(s0)
9d003fa8:	26100008 	addiu	s0,s0,8
9d003fac:	26230010 	addiu	v1,s1,16
9d003fb0:	8e020000 	lw	v0,0(s0)
9d003fb4:	ac620000 	sw	v0,0(v1)
9d003fb8:	8e020004 	lw	v0,4(s0)
9d003fbc:	ac620004 	sw	v0,4(v1)
9d003fc0:	8e020008 	lw	v0,8(s0)
9d003fc4:	ac620008 	sw	v0,8(v1)
9d003fc8:	02b61023 	subu	v0,s5,s6
9d003fcc:	02361821 	addu	v1,s1,s6
9d003fd0:	34420001 	ori	v0,v0,0x1
9d003fd4:	aee30008 	sw	v1,8(s7)
9d003fd8:	ac620004 	sw	v0,4(v1)
9d003fdc:	8e220004 	lw	v0,4(s1)
9d003fe0:	30420001 	andi	v0,v0,0x1
9d003fe4:	00561025 	or	v0,v0,s6
9d003fe8:	1000ff83 	b	9d003df8 <realloc+0x44>
9d003fec:	ae220004 	sw	v0,4(s1)
9d003ff0:	ae220010 	sw	v0,16(s1)
9d003ff4:	8e02000c 	lw	v0,12(s0)
9d003ff8:	ae220014 	sw	v0,20(s1)
9d003ffc:	24020024 	li	v0,36
9d004000:	50c20004 	beql	a2,v0,9d004014 <realloc+0x260>
9d004004:	8e020010 	lw	v0,16(s0)
9d004008:	26100010 	addiu	s0,s0,16
9d00400c:	1000ffe8 	b	9d003fb0 <realloc+0x1fc>
9d004010:	26230018 	addiu	v1,s1,24
9d004014:	26230020 	addiu	v1,s1,32
9d004018:	26100018 	addiu	s0,s0,24
9d00401c:	ae220018 	sw	v0,24(s1)
9d004020:	8e02fffc 	lw	v0,-4(s0)
9d004024:	1000ffe2 	b	9d003fb0 <realloc+0x1fc>
9d004028:	ae22001c 	sw	v0,28(s1)
9d00402c:	02002825 	move	a1,s0
9d004030:	0f402569 	jal	9d0095a4 <memmove>
9d004034:	02802025 	move	a0,s4
9d004038:	1000ffe4 	b	9d003fcc <realloc+0x218>
9d00403c:	02b61023 	subu	v0,s5,s6
9d004040:	02b6102a 	slt	v0,s5,s6
9d004044:	14400044 	bnez	v0,9d004158 <realloc+0x3a4>
9d004048:	0296102a 	slt	v0,s4,s6
9d00404c:	8c62000c 	lw	v0,12(v1)
9d004050:	8c630008 	lw	v1,8(v1)
9d004054:	2646fffc 	addiu	a2,s2,-4
9d004058:	ac62000c 	sw	v0,12(v1)
9d00405c:	ac430008 	sw	v1,8(v0)
9d004060:	8e230008 	lw	v1,8(s1)
9d004064:	8e22000c 	lw	v0,12(s1)
9d004068:	ac62000c 	sw	v0,12(v1)
9d00406c:	ac430008 	sw	v1,8(v0)
9d004070:	2cc20025 	sltiu	v0,a2,37
9d004074:	10400033 	beqz	v0,9d004144 <realloc+0x390>
9d004078:	26240008 	addiu	a0,s1,8
9d00407c:	2cc20014 	sltiu	v0,a2,20
9d004080:	1440000a 	bnez	v0,9d0040ac <realloc+0x2f8>
9d004084:	8e020000 	lw	v0,0(s0)
9d004088:	ae220008 	sw	v0,8(s1)
9d00408c:	8e020004 	lw	v0,4(s0)
9d004090:	ae22000c 	sw	v0,12(s1)
9d004094:	2cc2001c 	sltiu	v0,a2,28
9d004098:	5040001b 	beqzl	v0,9d004108 <realloc+0x354>
9d00409c:	8e020008 	lw	v0,8(s0)
9d0040a0:	26100008 	addiu	s0,s0,8
9d0040a4:	26240010 	addiu	a0,s1,16
9d0040a8:	8e020000 	lw	v0,0(s0)
9d0040ac:	ac820000 	sw	v0,0(a0)
9d0040b0:	8e020004 	lw	v0,4(s0)
9d0040b4:	ac820004 	sw	v0,4(a0)
9d0040b8:	8e020008 	lw	v0,8(s0)
9d0040bc:	ac820008 	sw	v0,8(a0)
9d0040c0:	8e220004 	lw	v0,4(s1)
9d0040c4:	02b62823 	subu	a1,s5,s6
9d0040c8:	2ca40010 	sltiu	a0,a1,16
9d0040cc:	30420001 	andi	v0,v0,0x1
9d0040d0:	1480008e 	bnez	a0,9d00430c <realloc+0x558>
9d0040d4:	02351821 	addu	v1,s1,s5
9d0040d8:	02362021 	addu	a0,s1,s6
9d0040dc:	02c21025 	or	v0,s6,v0
9d0040e0:	34a50001 	ori	a1,a1,0x1
9d0040e4:	ae220004 	sw	v0,4(s1)
9d0040e8:	ac850004 	sw	a1,4(a0)
9d0040ec:	8c620004 	lw	v0,4(v1)
9d0040f0:	24840008 	addiu	a0,a0,8
9d0040f4:	34420001 	ori	v0,v0,0x1
9d0040f8:	0f401acf 	jal	9d006b3c <free>
9d0040fc:	ac620004 	sw	v0,4(v1)
9d004100:	1000ff3d 	b	9d003df8 <realloc+0x44>
9d004104:	26340008 	addiu	s4,s1,8
9d004108:	ae220010 	sw	v0,16(s1)
9d00410c:	8e02000c 	lw	v0,12(s0)
9d004110:	ae220014 	sw	v0,20(s1)
9d004114:	24020024 	li	v0,36
9d004118:	50c20004 	beql	a2,v0,9d00412c <realloc+0x378>
9d00411c:	8e020010 	lw	v0,16(s0)
9d004120:	26100010 	addiu	s0,s0,16
9d004124:	1000ffe0 	b	9d0040a8 <realloc+0x2f4>
9d004128:	26240018 	addiu	a0,s1,24
9d00412c:	26240020 	addiu	a0,s1,32
9d004130:	26100018 	addiu	s0,s0,24
9d004134:	ae220018 	sw	v0,24(s1)
9d004138:	8e02fffc 	lw	v0,-4(s0)
9d00413c:	1000ffda 	b	9d0040a8 <realloc+0x2f4>
9d004140:	ae22001c 	sw	v0,28(s1)
9d004144:	0f402569 	jal	9d0095a4 <memmove>
9d004148:	02002825 	move	a1,s0
9d00414c:	1000ffdd 	b	9d0040c4 <realloc+0x310>
9d004150:	8e220004 	lw	v0,4(s1)
9d004154:	0296102a 	slt	v0,s4,s6
9d004158:	1440002e 	bnez	v0,9d004214 <realloc+0x460>
9d00415c:	2646fffc 	addiu	a2,s2,-4
9d004160:	8e22000c 	lw	v0,12(s1)
9d004164:	8e230008 	lw	v1,8(s1)
9d004168:	ac62000c 	sw	v0,12(v1)
9d00416c:	ac430008 	sw	v1,8(v0)
9d004170:	2cc20025 	sltiu	v0,a2,37
9d004174:	10400023 	beqz	v0,9d004204 <realloc+0x450>
9d004178:	26240008 	addiu	a0,s1,8
9d00417c:	2cc20014 	sltiu	v0,a2,20
9d004180:	1440000a 	bnez	v0,9d0041ac <realloc+0x3f8>
9d004184:	8e020000 	lw	v0,0(s0)
9d004188:	ae220008 	sw	v0,8(s1)
9d00418c:	8e020004 	lw	v0,4(s0)
9d004190:	ae22000c 	sw	v0,12(s1)
9d004194:	2cc2001c 	sltiu	v0,a2,28
9d004198:	5040000b 	beqzl	v0,9d0041c8 <realloc+0x414>
9d00419c:	8e020008 	lw	v0,8(s0)
9d0041a0:	26100008 	addiu	s0,s0,8
9d0041a4:	26240010 	addiu	a0,s1,16
9d0041a8:	8e020000 	lw	v0,0(s0)
9d0041ac:	ac820000 	sw	v0,0(a0)
9d0041b0:	8e020004 	lw	v0,4(s0)
9d0041b4:	ac820004 	sw	v0,4(a0)
9d0041b8:	8e020008 	lw	v0,8(s0)
9d0041bc:	ac820008 	sw	v0,8(a0)
9d0041c0:	1000ffbf 	b	9d0040c0 <realloc+0x30c>
9d0041c4:	0280a825 	move	s5,s4
9d0041c8:	ae220010 	sw	v0,16(s1)
9d0041cc:	8e02000c 	lw	v0,12(s0)
9d0041d0:	ae220014 	sw	v0,20(s1)
9d0041d4:	24020024 	li	v0,36
9d0041d8:	50c20004 	beql	a2,v0,9d0041ec <realloc+0x438>
9d0041dc:	8e020010 	lw	v0,16(s0)
9d0041e0:	26100010 	addiu	s0,s0,16
9d0041e4:	1000fff0 	b	9d0041a8 <realloc+0x3f4>
9d0041e8:	26240018 	addiu	a0,s1,24
9d0041ec:	26240020 	addiu	a0,s1,32
9d0041f0:	26100018 	addiu	s0,s0,24
9d0041f4:	ae220018 	sw	v0,24(s1)
9d0041f8:	8e02fffc 	lw	v0,-4(s0)
9d0041fc:	1000ffea 	b	9d0041a8 <realloc+0x3f4>
9d004200:	ae22001c 	sw	v0,28(s1)
9d004204:	0f402569 	jal	9d0095a4 <memmove>
9d004208:	02002825 	move	a1,s0
9d00420c:	1000ffac 	b	9d0040c0 <realloc+0x30c>
9d004210:	0280a825 	move	s5,s4
9d004214:	0f400c45 	jal	9d003114 <malloc>
9d004218:	00000000 	nop
9d00421c:	1040fef6 	beqz	v0,9d003df8 <realloc+0x44>
9d004220:	0040a025 	move	s4,v0
9d004224:	03c01025 	move	v0,s8
9d004228:	7c020004 	ins	v0,zero,0x0,0x1
9d00422c:	02621021 	addu	v0,s3,v0
9d004230:	2683fff8 	addiu	v1,s4,-8
9d004234:	54430005 	bnel	v0,v1,9d00424c <realloc+0x498>
9d004238:	2646fffc 	addiu	a2,s2,-4
9d00423c:	8e82fffc 	lw	v0,-4(s4)
9d004240:	7c020804 	ins	v0,zero,0x0,0x2
9d004244:	1000ff34 	b	9d003f18 <realloc+0x164>
9d004248:	0052a821 	addu	s5,v0,s2
9d00424c:	2cc20025 	sltiu	v0,a2,37
9d004250:	10400027 	beqz	v0,9d0042f0 <realloc+0x53c>
9d004254:	2cc20014 	sltiu	v0,a2,20
9d004258:	14400023 	bnez	v0,9d0042e8 <realloc+0x534>
9d00425c:	02801025 	move	v0,s4
9d004260:	8e020004 	lw	v0,4(s0)
9d004264:	8e030000 	lw	v1,0(s0)
9d004268:	8e040008 	lw	a0,8(s0)
9d00426c:	ae820004 	sw	v0,4(s4)
9d004270:	2cc2001c 	sltiu	v0,a2,28
9d004274:	1040000d 	beqz	v0,9d0042ac <realloc+0x4f8>
9d004278:	ae830000 	sw	v1,0(s4)
9d00427c:	26030008 	addiu	v1,s0,8
9d004280:	26820008 	addiu	v0,s4,8
9d004284:	8c640000 	lw	a0,0(v1)
9d004288:	ac440000 	sw	a0,0(v0)
9d00428c:	8c640004 	lw	a0,4(v1)
9d004290:	8c630008 	lw	v1,8(v1)
9d004294:	ac440004 	sw	a0,4(v0)
9d004298:	ac430008 	sw	v1,8(v0)
9d00429c:	0f401acf 	jal	9d006b3c <free>
9d0042a0:	02002025 	move	a0,s0
9d0042a4:	1000fed5 	b	9d003dfc <realloc+0x48>
9d0042a8:	8fbf0034 	lw	ra,52(sp)
9d0042ac:	8e03000c 	lw	v1,12(s0)
9d0042b0:	8e020010 	lw	v0,16(s0)
9d0042b4:	ae840008 	sw	a0,8(s4)
9d0042b8:	ae83000c 	sw	v1,12(s4)
9d0042bc:	24030024 	li	v1,36
9d0042c0:	50c30004 	beql	a2,v1,9d0042d4 <realloc+0x520>
9d0042c4:	8e040014 	lw	a0,20(s0)
9d0042c8:	26030010 	addiu	v1,s0,16
9d0042cc:	1000ffed 	b	9d004284 <realloc+0x4d0>
9d0042d0:	26820010 	addiu	v0,s4,16
9d0042d4:	ae820010 	sw	v0,16(s4)
9d0042d8:	26030018 	addiu	v1,s0,24
9d0042dc:	26820018 	addiu	v0,s4,24
9d0042e0:	1000ffe8 	b	9d004284 <realloc+0x4d0>
9d0042e4:	ae840014 	sw	a0,20(s4)
9d0042e8:	1000ffe6 	b	9d004284 <realloc+0x4d0>
9d0042ec:	02001825 	move	v1,s0
9d0042f0:	02002825 	move	a1,s0
9d0042f4:	0f4026e8 	jal	9d009ba0 <memcpy>
9d0042f8:	02802025 	move	a0,s4
9d0042fc:	1000ffe7 	b	9d00429c <realloc+0x4e8>
9d004300:	00000000 	nop
9d004304:	1000ff04 	b	9d003f18 <realloc+0x164>
9d004308:	0240a825 	move	s5,s2
9d00430c:	02a21025 	or	v0,s5,v0
9d004310:	ae220004 	sw	v0,4(s1)
9d004314:	8c620004 	lw	v0,4(v1)
9d004318:	34420001 	ori	v0,v0,0x1
9d00431c:	1000ff78 	b	9d004100 <realloc+0x34c>
9d004320:	ac620004 	sw	v0,4(v1)

Disassembly of section .text.dp32mul:

9d004324 <__divdf3>:
9d004324:	00055040 000a5542 00054ac0 00047d42     @P..BU...J..B}..
9d004334:	012f4825 000442c0 3c0e8000 012e4825     %H/..B.....<%H..
9d004344:	00076840 000d6d42 000762c0 00067d42     @h..Bm...b..B}..
9d004354:	018f6025 00065ac0 018e6025 00a72826     %`...Z..%`..&(..
9d004364:	00ae2824 254fffff 2de107fe 102000cb     $(....O%...-.. .
9d004374:	00000000                                ....

9d004378 <Dlab1>:
9d004378:	25afffff 	addiu	t7,t5,-1
9d00437c:	2de107fe 	sltiu	at,t7,2046
9d004380:	102000f4 	beqz	at,9d004754 <DspecB>
9d004384:	00000000 	nop

9d004388 <Dlab2>:
9d004388:	014d5023 	subu	t2,t2,t5
9d00438c:	254a03ff 	addiu	t2,t2,1023
9d004390:	00084042 	srl	t0,t0,0x1
9d004394:	00097fc0 	sll	t7,t1,0x1f
9d004398:	010f4025 	or	t0,t0,t7
9d00439c:	00094842 	srl	t1,t1,0x1
9d0043a0:	000c3c02 	srl	a3,t4,0x10
9d0043a4:	00e001f4 	teq	a3,zero,0x7
9d0043a8:	0127001b 	divu	zero,t1,a3
9d0043ac:	00007012 	mflo	t6
9d0043b0:	00004810 	mfhi	t1
9d0043b4:	3186ffff 	andi	a2,t4,0xffff
9d0043b8:	00ce0019 	multu	a2,t6
9d0043bc:	00002012 	mflo	a0
9d0043c0:	00094c00 	sll	t1,t1,0x10
9d0043c4:	00087c02 	srl	t7,t0,0x10
9d0043c8:	012f4825 	or	t1,t1,t7
9d0043cc:	0124782b 	sltu	t7,t1,a0
9d0043d0:	11e00006 	beqz	t7,9d0043ec <i20>
9d0043d4:	01244823 	subu	t1,t1,a0

9d0043d8 <b21>:
9d0043d8:	25ceffff 	addiu	t6,t6,-1
9d0043dc:	012c4821 	addu	t1,t1,t4
9d0043e0:	012c082b 	sltu	at,t1,t4
9d0043e4:	1020fffc 	beqz	at,9d0043d8 <b21>
9d0043e8:	00000000 	nop

9d0043ec <i20>:
9d0043ec:	00e001f4 	teq	a3,zero,0x7
9d0043f0:	0127001b 	divu	zero,t1,a3
9d0043f4:	00003812 	mflo	a3
9d0043f8:	00004810 	mfhi	t1
9d0043fc:	00c70019 	multu	a2,a3
9d004400:	00002012 	mflo	a0
9d004404:	00094c00 	sll	t1,t1,0x10
9d004408:	310fffff 	andi	t7,t0,0xffff
9d00440c:	012f4825 	or	t1,t1,t7
9d004410:	0124782b 	sltu	t7,t1,a0
9d004414:	11e00006 	beqz	t7,9d004430 <i22>
9d004418:	01244823 	subu	t1,t1,a0

9d00441c <b23>:
9d00441c:	24e7ffff 	addiu	a3,a3,-1
9d004420:	012c4821 	addu	t1,t1,t4
9d004424:	012c082b 	sltu	at,t1,t4
9d004428:	1020fffc 	beqz	at,9d00441c <b23>
9d00442c:	00000000 	nop

9d004430 <i22>:
9d004430:	000e7400 	sll	t6,t6,0x10
9d004434:	01c77021 	addu	t6,t6,a3
9d004438:	01cb0019 	multu	t6,t3
9d00443c:	00003812 	mflo	a3
9d004440:	00002010 	mfhi	a0
9d004444:	24080000 	li	t0,0
9d004448:	0107782b 	sltu	t7,t0,a3
9d00444c:	01074023 	subu	t0,t0,a3
9d004450:	012f102b 	sltu	v0,t1,t7
9d004454:	012f4823 	subu	t1,t1,t7
9d004458:	0124782b 	sltu	t7,t1,a0
9d00445c:	01e27825 	or	t7,t7,v0
9d004460:	11e0000b 	beqz	t7,9d004490 <i24>
9d004464:	01244823 	subu	t1,t1,a0

9d004468 <Dlab3>:
9d004468:	25ceffff 	addiu	t6,t6,-1
9d00446c:	010b4021 	addu	t0,t0,t3
9d004470:	010b782b 	sltu	t7,t0,t3
9d004474:	012c4821 	addu	t1,t1,t4
9d004478:	012f4821 	addu	t1,t1,t7
9d00447c:	112c0002 	beq	t1,t4,9d004488 <L31>
9d004480:	00000000 	nop
9d004484:	012c782b 	sltu	t7,t1,t4

9d004488 <L31>:
9d004488:	11e0fff7 	beqz	t7,9d004468 <Dlab3>
9d00448c:	00000000 	nop

9d004490 <i24>:
9d004490:	152c0006 	bne	t1,t4,9d0044ac <i25>
9d004494:	00000000 	nop
9d004498:	000b2025 	or	a0,zero,t3
9d00449c:	00084825 	or	t1,zero,t0
9d0044a0:	240d0000 	li	t5,0
9d0044a4:	1000002a 	b	9d004550 <e25>
9d0044a8:	000d3825 	or	a3,zero,t5

9d0044ac <i25>:
9d0044ac:	000c3c02 	srl	a3,t4,0x10
9d0044b0:	00e001f4 	teq	a3,zero,0x7
9d0044b4:	0127001b 	divu	zero,t1,a3
9d0044b8:	00006812 	mflo	t5
9d0044bc:	00004810 	mfhi	t1
9d0044c0:	3186ffff 	andi	a2,t4,0xffff
9d0044c4:	00cd0019 	multu	a2,t5
9d0044c8:	00002012 	mflo	a0
9d0044cc:	00094c00 	sll	t1,t1,0x10
9d0044d0:	00087c02 	srl	t7,t0,0x10
9d0044d4:	012f4825 	or	t1,t1,t7
9d0044d8:	0124782b 	sltu	t7,t1,a0
9d0044dc:	11e00006 	beqz	t7,9d0044f8 <i26>
9d0044e0:	01244823 	subu	t1,t1,a0

9d0044e4 <b27>:
9d0044e4:	25adffff 	addiu	t5,t5,-1
9d0044e8:	012c4821 	addu	t1,t1,t4
9d0044ec:	012c082b 	sltu	at,t1,t4
9d0044f0:	1020fffc 	beqz	at,9d0044e4 <b27>
9d0044f4:	00000000 	nop

9d0044f8 <i26>:
9d0044f8:	00e001f4 	teq	a3,zero,0x7
9d0044fc:	0127001b 	divu	zero,t1,a3
9d004500:	00003812 	mflo	a3
9d004504:	00004810 	mfhi	t1
9d004508:	00c70019 	multu	a2,a3
9d00450c:	00002012 	mflo	a0
9d004510:	00094c00 	sll	t1,t1,0x10
9d004514:	310fffff 	andi	t7,t0,0xffff
9d004518:	012f4825 	or	t1,t1,t7
9d00451c:	0124782b 	sltu	t7,t1,a0
9d004520:	11e00006 	beqz	t7,9d00453c <i28>
9d004524:	01244823 	subu	t1,t1,a0

9d004528 <b29>:
9d004528:	24e7ffff 	addiu	a3,a3,-1
9d00452c:	012c4821 	addu	t1,t1,t4
9d004530:	012c082b 	sltu	at,t1,t4
9d004534:	1020fffc 	beqz	at,9d004528 <b29>
9d004538:	00000000 	nop

9d00453c <i28>:
9d00453c:	000d6c00 	sll	t5,t5,0x10
9d004540:	01a76821 	addu	t5,t5,a3
9d004544:	01ab0019 	multu	t5,t3
9d004548:	00003812 	mflo	a3
9d00454c:	00002010 	mfhi	a0

9d004550 <e25>:
9d004550:	24080000 	li	t0,0
9d004554:	0107782b 	sltu	t7,t0,a3
9d004558:	01074023 	subu	t0,t0,a3
9d00455c:	012f102b 	sltu	v0,t1,t7
9d004560:	012f4823 	subu	t1,t1,t7
9d004564:	0124782b 	sltu	t7,t1,a0
9d004568:	01e27825 	or	t7,t7,v0
9d00456c:	11e0000b 	beqz	t7,9d00459c <i30>
9d004570:	01244823 	subu	t1,t1,a0

9d004574 <Dlab4>:
9d004574:	25adffff 	addiu	t5,t5,-1
9d004578:	010b4021 	addu	t0,t0,t3
9d00457c:	010b782b 	sltu	t7,t0,t3
9d004580:	012c4821 	addu	t1,t1,t4
9d004584:	012f4821 	addu	t1,t1,t7
9d004588:	112c0002 	beq	t1,t4,9d004594 <L32>
9d00458c:	00000000 	nop
9d004590:	012c782b 	sltu	t7,t1,t4

9d004594 <L32>:
9d004594:	11e0fff7 	beqz	t7,9d004574 <Dlab4>
9d004598:	00000000 	nop

9d00459c <i30>:
9d00459c:	05c00006 	bltz	t6,9d0045b8 <i31>
9d0045a0:	00000000 	nop
9d0045a4:	01a0782a 	slt	t7,t5,zero
9d0045a8:	01ad6821 	addu	t5,t5,t5
9d0045ac:	01ce7021 	addu	t6,t6,t6
9d0045b0:	01cf7021 	addu	t6,t6,t7
9d0045b4:	254affff 	addiu	t2,t2,-1

9d0045b8 <i31>:
9d0045b8:	01287825 	or	t7,t1,t0
9d0045bc:	11e00002 	beqz	t7,9d0045c8 <i32>
9d0045c0:	00000000 	nop
9d0045c4:	35ad0001 	ori	t5,t5,0x1

9d0045c8 <i32>:
9d0045c8:	000e4825 	or	t1,zero,t6
9d0045cc:	000d4025 	or	t0,zero,t5
9d0045d0:	254fffff 	addiu	t7,t2,-1
9d0045d4:	2de107fe 	sltiu	at,t7,2046
9d0045d8:	10200015 	beqz	at,9d004630 <Doveund>
9d0045dc:	00000000 	nop
9d0045e0:	25080400 	addiu	t0,t0,1024
9d0045e4:	2d0f0400 	sltiu	t7,t0,1024
9d0045e8:	012f4821 	addu	t1,t1,t7
9d0045ec:	012f782b 	sltu	t7,t1,t7
9d0045f0:	014f5021 	addu	t2,t2,t7

9d0045f4 <Dlab8>:
9d0045f4:	00087ac2 	srl	t7,t0,0xb
9d0045f8:	31ef0001 	andi	t7,t7,0x1
9d0045fc:	010f4023 	subu	t0,t0,t7
9d004600:	000822c2 	srl	a0,t0,0xb
9d004604:	00097d40 	sll	t7,t1,0x15
9d004608:	008f2025 	or	a0,a0,t7
9d00460c:	00097840 	sll	t7,t1,0x1
9d004610:	000f7b02 	srl	t7,t7,0xc
9d004614:	00af2825 	or	a1,a1,t7
9d004618:	000a7d00 	sll	t7,t2,0x14
9d00461c:	00af2825 	or	a1,a1,t7

9d004620 <Dret>:
9d004620:	00041025 	or	v0,zero,a0
9d004624:	00051825 	or	v1,zero,a1

9d004628 <D999>:
9d004628:	03e00008 	jr	ra
9d00462c:	00000000 	nop

9d004630 <Doveund>:
9d004630:	1d400044 	bgtz	t2,9d004744 <Dinf>
9d004634:	00000000 	nop
9d004638:	240e0001 	li	t6,1
9d00463c:	01ca7023 	subu	t6,t6,t2

9d004640 <L33>:
9d004640:	2dc10020 	sltiu	at,t6,32
9d004644:	14200007 	bnez	at,9d004664 <L34>
9d004648:	00000000 	nop
9d00464c:	21ceffe0 	addi	t6,t6,-32
9d004650:	0008202b 	sltu	a0,zero,t0
9d004654:	1009000d 	beq	zero,t1,9d00468c <L35>
9d004658:	01244025 	or	t0,t1,a0
9d00465c:	1000fff8 	b	9d004640 <L33>
9d004660:	34090000 	li	t1,0x0

9d004664 <L34>:
9d004664:	11c00009 	beqz	t6,9d00468c <L35>
9d004668:	00000000 	nop
9d00466c:	000e3022 	neg	a2,t6
9d004670:	00c82004 	sllv	a0,t0,a2
9d004674:	00c93004 	sllv	a2,t1,a2
9d004678:	01c84006 	srlv	t0,t0,t6
9d00467c:	01c94806 	srlv	t1,t1,t6
9d004680:	10800002 	beqz	a0,9d00468c <L35>
9d004684:	00c84025 	or	t0,a2,t0
9d004688:	35080002 	ori	t0,t0,0x2

9d00468c <L35>:
9d00468c:	25080400 	addiu	t0,t0,1024
9d004690:	2d0f0400 	sltiu	t7,t0,1024
9d004694:	012f4821 	addu	t1,t1,t7
9d004698:	1000ffd6 	b	9d0045f4 <Dlab8>
9d00469c:	000957c2 	srl	t2,t1,0x1f

9d0046a0 <DspecA>:
9d0046a0:	0100782a 	slt	t7,t0,zero
9d0046a4:	01084021 	addu	t0,t0,t0
9d0046a8:	01294821 	addu	t1,t1,t1
9d0046ac:	15400017 	bnez	t2,9d00470c <i33>
9d0046b0:	012f4821 	addu	t1,t1,t7
9d0046b4:	01287825 	or	t7,t1,t0
9d0046b8:	11e00014 	beqz	t7,9d00470c <i33>
9d0046bc:	00000000 	nop
9d0046c0:	15200008 	bnez	t1,9d0046e4 <L36>
9d0046c4:	00000000 	nop
9d0046c8:	15000003 	bnez	t0,9d0046d8 <L37>
9d0046cc:	00000000 	nop
9d0046d0:	1000ff29 	b	9d004378 <Dlab1>
9d0046d4:	240a0000 	li	t2,0

9d0046d8 <L37>:
9d0046d8:	01004825 	move	t1,t0
9d0046dc:	24080000 	li	t0,0
9d0046e0:	254affe0 	addiu	t2,t2,-32

9d0046e4 <L36>:
9d0046e4:	712e7020 	clz	t6,t1
9d0046e8:	11c0ff23 	beqz	t6,9d004378 <Dlab1>
9d0046ec:	00000000 	nop
9d0046f0:	014e5023 	subu	t2,t2,t6
9d0046f4:	000e3022 	neg	a2,t6
9d0046f8:	00c83006 	srlv	a2,t0,a2
9d0046fc:	01c84004 	sllv	t0,t0,t6
9d004700:	01c94804 	sllv	t1,t1,t6
9d004704:	1000ff1c 	b	9d004378 <Dlab1>
9d004708:	01264825 	or	t1,t1,a2

9d00470c <i33>:
9d00470c:	154d0005 	bne	t2,t5,9d004724 <i35>
9d004710:	00000000 	nop
9d004714:	000c7840 	sll	t7,t4,0x1
9d004718:	01eb7825 	or	t7,t7,t3
9d00471c:	11e0002b 	beqz	t7,9d0047cc <Dnan>
9d004720:	00000000 	nop

9d004724 <i35>:
9d004724:	240107ff 	li	at,2047
9d004728:	11a1000a 	beq	t5,at,9d004754 <DspecB>
9d00472c:	00000000 	nop
9d004730:	1140ffbb 	beqz	t2,9d004620 <Dret>
9d004734:	00000000 	nop
9d004738:	01287825 	or	t7,t1,t0
9d00473c:	15e00023 	bnez	t7,9d0047cc <Dnan>
9d004740:	00000000 	nop

9d004744 <Dinf>:
9d004744:	3c017ff0 	lui	at,0x7ff0
9d004748:	00a12825 	or	a1,a1,at
9d00474c:	1000ffb4 	b	9d004620 <Dret>
9d004750:	24040000 	li	a0,0

9d004754 <DspecB>:
9d004754:	0160782a 	slt	t7,t3,zero
9d004758:	016b5821 	addu	t3,t3,t3
9d00475c:	018c6021 	addu	t4,t4,t4
9d004760:	15a00017 	bnez	t5,9d0047c0 <i36>
9d004764:	018f6021 	addu	t4,t4,t7
9d004768:	018b7825 	or	t7,t4,t3
9d00476c:	11e0fff5 	beqz	t7,9d004744 <Dinf>
9d004770:	00000000 	nop
9d004774:	15800008 	bnez	t4,9d004798 <L39>
9d004778:	00000000 	nop
9d00477c:	15600003 	bnez	t3,9d00478c <L40>
9d004780:	00000000 	nop
9d004784:	1000ff00 	b	9d004388 <Dlab2>
9d004788:	240d0000 	li	t5,0

9d00478c <L40>:
9d00478c:	01606025 	move	t4,t3
9d004790:	240b0000 	li	t3,0
9d004794:	25adffe0 	addiu	t5,t5,-32

9d004798 <L39>:
9d004798:	718e7020 	clz	t6,t4
9d00479c:	11c0fefa 	beqz	t6,9d004388 <Dlab2>
9d0047a0:	00000000 	nop
9d0047a4:	01ae6823 	subu	t5,t5,t6
9d0047a8:	000e3022 	neg	a2,t6
9d0047ac:	00cb3006 	srlv	a2,t3,a2
9d0047b0:	01cb5804 	sllv	t3,t3,t6
9d0047b4:	01cc6004 	sllv	t4,t4,t6
9d0047b8:	1000fef3 	b	9d004388 <Dlab2>
9d0047bc:	01866025 	or	t4,t4,a2

9d0047c0 <i36>:
9d0047c0:	018b7825 	or	t7,t4,t3
9d0047c4:	11e00002 	beqz	t7,9d0047d0 <i38>
9d0047c8:	00000000 	nop

9d0047cc <Dnan>:
9d0047cc:	3c05fff8 	lui	a1,0xfff8

9d0047d0 <i38>:
9d0047d0:	1000ff93 	b	9d004620 <Dret>
9d0047d4:	24040000 	li	a0,0
9d0047d8:	00000000 	nop

Disassembly of section .text:

9d0047dc <__divdi3>:
9d0047dc:	04a10007 	bgez	a1,9d0047fc <__divdi3+0x20>
9d0047e0:	00004825 	move	t1,zero
9d0047e4:	00041023 	negu	v0,a0
9d0047e8:	0002402b 	sltu	t0,zero,v0
9d0047ec:	00052823 	negu	a1,a1
9d0047f0:	00402025 	move	a0,v0
9d0047f4:	00a82823 	subu	a1,a1,t0
9d0047f8:	2409ffff 	li	t1,-1
9d0047fc:	04e10007 	bgez	a3,9d00481c <__divdi3+0x40>
9d004800:	00c04025 	move	t0,a2
9d004804:	00063023 	negu	a2,a2
9d004808:	0006102b 	sltu	v0,zero,a2
9d00480c:	00073823 	negu	a3,a3
9d004810:	00094827 	nor	t1,zero,t1
9d004814:	00e23823 	subu	a3,a3,v0
9d004818:	00c04025 	move	t0,a2
9d00481c:	00e01825 	move	v1,a3
9d004820:	00805025 	move	t2,a0
9d004824:	14e000aa 	bnez	a3,9d004ad0 <__divdi3+0x2f4>
9d004828:	00a01025 	move	v0,a1
9d00482c:	00a6302b 	sltu	a2,a1,a2
9d004830:	10c0003b 	beqz	a2,9d004920 <__divdi3+0x144>
9d004834:	00000000 	nop
9d004838:	71052820 	clz	a1,t0
9d00483c:	50a00008 	beqzl	a1,9d004860 <__divdi3+0x84>
9d004840:	00082c02 	srl	a1,t0,0x10
9d004844:	00a22004 	sllv	a0,v0,a1
9d004848:	00051023 	negu	v0,a1
9d00484c:	004a1006 	srlv	v0,t2,v0
9d004850:	00a84004 	sllv	t0,t0,a1
9d004854:	00441025 	or	v0,v0,a0
9d004858:	00aa5004 	sllv	t2,t2,a1
9d00485c:	00082c02 	srl	a1,t0,0x10
9d004860:	0045001b 	divu	zero,v0,a1
9d004864:	00a001f4 	teq	a1,zero,0x7
9d004868:	310bffff 	andi	t3,t0,0xffff
9d00486c:	000a1402 	srl	v0,t2,0x10
9d004870:	00003812 	mflo	a3
9d004874:	00002010 	mfhi	a0
9d004878:	00042400 	sll	a0,a0,0x10
9d00487c:	00821025 	or	v0,a0,v0
9d004880:	71676002 	mul	t4,t3,a3
9d004884:	004c202b 	sltu	a0,v0,t4
9d004888:	1080000a 	beqz	a0,9d0048b4 <__divdi3+0xd8>
9d00488c:	00e03025 	move	a2,a3
9d004890:	00481021 	addu	v0,v0,t0
9d004894:	0048202b 	sltu	a0,v0,t0
9d004898:	14800006 	bnez	a0,9d0048b4 <__divdi3+0xd8>
9d00489c:	24e6ffff 	addiu	a2,a3,-1
9d0048a0:	004c202b 	sltu	a0,v0,t4
9d0048a4:	50800004 	beqzl	a0,9d0048b8 <__divdi3+0xdc>
9d0048a8:	004c1023 	subu	v0,v0,t4
9d0048ac:	24e6fffe 	addiu	a2,a3,-2
9d0048b0:	00481021 	addu	v0,v0,t0
9d0048b4:	004c1023 	subu	v0,v0,t4
9d0048b8:	0045001b 	divu	zero,v0,a1
9d0048bc:	00a001f4 	teq	a1,zero,0x7
9d0048c0:	314affff 	andi	t2,t2,0xffff
9d0048c4:	00001012 	mflo	v0
9d0048c8:	00002810 	mfhi	a1
9d0048cc:	00052c00 	sll	a1,a1,0x10
9d0048d0:	00aa5025 	or	t2,a1,t2
9d0048d4:	71625802 	mul	t3,t3,v0
9d0048d8:	014b282b 	sltu	a1,t2,t3
9d0048dc:	10a00006 	beqz	a1,9d0048f8 <__divdi3+0x11c>
9d0048e0:	00402025 	move	a0,v0
9d0048e4:	010a5021 	addu	t2,t0,t2
9d0048e8:	0148402b 	sltu	t0,t2,t0
9d0048ec:	2444ffff 	addiu	a0,v0,-1
9d0048f0:	1100003d 	beqz	t0,9d0049e8 <__divdi3+0x20c>
9d0048f4:	014b502b 	sltu	t2,t2,t3
9d0048f8:	00061400 	sll	v0,a2,0x10
9d0048fc:	00441025 	or	v0,v0,a0
9d004900:	11200005 	beqz	t1,9d004918 <__divdi3+0x13c>
9d004904:	00000000 	nop
9d004908:	00021023 	negu	v0,v0
9d00490c:	0002202b 	sltu	a0,zero,v0
9d004910:	00031823 	negu	v1,v1
9d004914:	00641823 	subu	v1,v1,a0
9d004918:	03e00008 	jr	ra
9d00491c:	00000000 	nop
9d004920:	15000006 	bnez	t0,9d00493c <__divdi3+0x160>
9d004924:	71021020 	clz	v0,t0
9d004928:	24080001 	li	t0,1
9d00492c:	0107001b 	divu	zero,t0,a3
9d004930:	00e001f4 	teq	a3,zero,0x7
9d004934:	00004012 	mflo	t0
9d004938:	71021020 	clz	v0,t0
9d00493c:	1440002e 	bnez	v0,9d0049f8 <__divdi3+0x21c>
9d004940:	24030020 	li	v1,32
9d004944:	00a82823 	subu	a1,a1,t0
9d004948:	24030001 	li	v1,1
9d00494c:	00083c02 	srl	a3,t0,0x10
9d004950:	00a7001b 	divu	zero,a1,a3
9d004954:	00e001f4 	teq	a3,zero,0x7
9d004958:	310bffff 	andi	t3,t0,0xffff
9d00495c:	000a1402 	srl	v0,t2,0x10
9d004960:	00002812 	mflo	a1
9d004964:	00002010 	mfhi	a0
9d004968:	00042400 	sll	a0,a0,0x10
9d00496c:	00821025 	or	v0,a0,v0
9d004970:	71656002 	mul	t4,t3,a1
9d004974:	004c202b 	sltu	a0,v0,t4
9d004978:	1080000a 	beqz	a0,9d0049a4 <__divdi3+0x1c8>
9d00497c:	00a03025 	move	a2,a1
9d004980:	00481021 	addu	v0,v0,t0
9d004984:	0048202b 	sltu	a0,v0,t0
9d004988:	14800006 	bnez	a0,9d0049a4 <__divdi3+0x1c8>
9d00498c:	24a6ffff 	addiu	a2,a1,-1
9d004990:	004c202b 	sltu	a0,v0,t4
9d004994:	50800004 	beqzl	a0,9d0049a8 <__divdi3+0x1cc>
9d004998:	004c1023 	subu	v0,v0,t4
9d00499c:	24a6fffe 	addiu	a2,a1,-2
9d0049a0:	00481021 	addu	v0,v0,t0
9d0049a4:	004c1023 	subu	v0,v0,t4
9d0049a8:	0047001b 	divu	zero,v0,a3
9d0049ac:	00e001f4 	teq	a3,zero,0x7
9d0049b0:	314affff 	andi	t2,t2,0xffff
9d0049b4:	00001012 	mflo	v0
9d0049b8:	00003810 	mfhi	a3
9d0049bc:	00073c00 	sll	a3,a3,0x10
9d0049c0:	00ea5025 	or	t2,a3,t2
9d0049c4:	71622802 	mul	a1,t3,v0
9d0049c8:	0145382b 	sltu	a3,t2,a1
9d0049cc:	10e0ffca 	beqz	a3,9d0048f8 <__divdi3+0x11c>
9d0049d0:	00402025 	move	a0,v0
9d0049d4:	010a5021 	addu	t2,t0,t2
9d0049d8:	0148402b 	sltu	t0,t2,t0
9d0049dc:	1500ffc6 	bnez	t0,9d0048f8 <__divdi3+0x11c>
9d0049e0:	2444ffff 	addiu	a0,v0,-1
9d0049e4:	0145502b 	sltu	t2,t2,a1
9d0049e8:	5540ffc3 	bnezl	t2,9d0048f8 <__divdi3+0x11c>
9d0049ec:	2444fffe 	addiu	a0,v0,-2
9d0049f0:	1000ffc2 	b	9d0048fc <__divdi3+0x120>
9d0049f4:	00061400 	sll	v0,a2,0x10
9d0049f8:	00621823 	subu	v1,v1,v0
9d0049fc:	00484004 	sllv	t0,t0,v0
9d004a00:	00453004 	sllv	a2,a1,v0
9d004a04:	00445004 	sllv	t2,a0,v0
9d004a08:	00652806 	srlv	a1,a1,v1
9d004a0c:	00081402 	srl	v0,t0,0x10
9d004a10:	00a2001b 	divu	zero,a1,v0
9d004a14:	004001f4 	teq	v0,zero,0x7
9d004a18:	3107ffff 	andi	a3,t0,0xffff
9d004a1c:	00645806 	srlv	t3,a0,v1
9d004a20:	01665825 	or	t3,t3,a2
9d004a24:	000b3402 	srl	a2,t3,0x10
9d004a28:	00002812 	mflo	a1
9d004a2c:	00002010 	mfhi	a0
9d004a30:	00042400 	sll	a0,a0,0x10
9d004a34:	00862025 	or	a0,a0,a2
9d004a38:	70e51802 	mul	v1,a3,a1
9d004a3c:	0083602b 	sltu	t4,a0,v1
9d004a40:	1180000a 	beqz	t4,9d004a6c <__divdi3+0x290>
9d004a44:	00a03025 	move	a2,a1
9d004a48:	00882021 	addu	a0,a0,t0
9d004a4c:	0088602b 	sltu	t4,a0,t0
9d004a50:	15800006 	bnez	t4,9d004a6c <__divdi3+0x290>
9d004a54:	24a6ffff 	addiu	a2,a1,-1
9d004a58:	0083602b 	sltu	t4,a0,v1
9d004a5c:	51800004 	beqzl	t4,9d004a70 <__divdi3+0x294>
9d004a60:	00832023 	subu	a0,a0,v1
9d004a64:	24a6fffe 	addiu	a2,a1,-2
9d004a68:	00882021 	addu	a0,a0,t0
9d004a6c:	00832023 	subu	a0,a0,v1
9d004a70:	0082001b 	divu	zero,a0,v0
9d004a74:	004001f4 	teq	v0,zero,0x7
9d004a78:	3165ffff 	andi	a1,t3,0xffff
9d004a7c:	00001012 	mflo	v0
9d004a80:	00002010 	mfhi	a0
9d004a84:	00042400 	sll	a0,a0,0x10
9d004a88:	00852825 	or	a1,a0,a1
9d004a8c:	70e23802 	mul	a3,a3,v0
9d004a90:	00a7182b 	sltu	v1,a1,a3
9d004a94:	1060000a 	beqz	v1,9d004ac0 <__divdi3+0x2e4>
9d004a98:	00402025 	move	a0,v0
9d004a9c:	00a82821 	addu	a1,a1,t0
9d004aa0:	00a8182b 	sltu	v1,a1,t0
9d004aa4:	14600006 	bnez	v1,9d004ac0 <__divdi3+0x2e4>
9d004aa8:	2444ffff 	addiu	a0,v0,-1
9d004aac:	00a7182b 	sltu	v1,a1,a3
9d004ab0:	50600004 	beqzl	v1,9d004ac4 <__divdi3+0x2e8>
9d004ab4:	00061c00 	sll	v1,a2,0x10
9d004ab8:	2444fffe 	addiu	a0,v0,-2
9d004abc:	00a82821 	addu	a1,a1,t0
9d004ac0:	00061c00 	sll	v1,a2,0x10
9d004ac4:	00a72823 	subu	a1,a1,a3
9d004ac8:	1000ffa0 	b	9d00494c <__divdi3+0x170>
9d004acc:	00641825 	or	v1,v1,a0
9d004ad0:	00a7102b 	sltu	v0,a1,a3
9d004ad4:	1440004f 	bnez	v0,9d004c14 <__divdi3+0x438>
9d004ad8:	00001825 	move	v1,zero
9d004adc:	70eb5820 	clz	t3,a3
9d004ae0:	15600008 	bnez	t3,9d004b04 <__divdi3+0x328>
9d004ae4:	240a0020 	li	t2,32
9d004ae8:	00e5282b 	sltu	a1,a3,a1
9d004aec:	54a0ff84 	bnezl	a1,9d004900 <__divdi3+0x124>
9d004af0:	24020001 	li	v0,1
9d004af4:	0086102b 	sltu	v0,a0,a2
9d004af8:	38420001 	xori	v0,v0,0x1
9d004afc:	1000ff80 	b	9d004900 <__divdi3+0x124>
9d004b00:	00001825 	move	v1,zero
9d004b04:	014b5023 	subu	t2,t2,t3
9d004b08:	01461006 	srlv	v0,a2,t2
9d004b0c:	01673804 	sllv	a3,a3,t3
9d004b10:	00473825 	or	a3,v0,a3
9d004b14:	00074402 	srl	t0,a3,0x10
9d004b18:	01651004 	sllv	v0,a1,t3
9d004b1c:	01452806 	srlv	a1,a1,t2
9d004b20:	00a8001b 	divu	zero,a1,t0
9d004b24:	010001f4 	teq	t0,zero,0x7
9d004b28:	01446806 	srlv	t5,a0,t2
9d004b2c:	30ecffff 	andi	t4,a3,0xffff
9d004b30:	01a26825 	or	t5,t5,v0
9d004b34:	000d1c02 	srl	v1,t5,0x10
9d004b38:	01663004 	sllv	a2,a2,t3
9d004b3c:	00002812 	mflo	a1
9d004b40:	00005010 	mfhi	t2
9d004b44:	000a5400 	sll	t2,t2,0x10
9d004b48:	01435025 	or	t2,t2,v1
9d004b4c:	71851002 	mul	v0,t4,a1
9d004b50:	0142702b 	sltu	t6,t2,v0
9d004b54:	11c0000a 	beqz	t6,9d004b80 <__divdi3+0x3a4>
9d004b58:	00a01825 	move	v1,a1
9d004b5c:	01475021 	addu	t2,t2,a3
9d004b60:	0147702b 	sltu	t6,t2,a3
9d004b64:	15c00006 	bnez	t6,9d004b80 <__divdi3+0x3a4>
9d004b68:	24a3ffff 	addiu	v1,a1,-1
9d004b6c:	0142702b 	sltu	t6,t2,v0
9d004b70:	51c00004 	beqzl	t6,9d004b84 <__divdi3+0x3a8>
9d004b74:	01425023 	subu	t2,t2,v0
9d004b78:	24a3fffe 	addiu	v1,a1,-2
9d004b7c:	01475021 	addu	t2,t2,a3
9d004b80:	01425023 	subu	t2,t2,v0
9d004b84:	0148001b 	divu	zero,t2,t0
9d004b88:	010001f4 	teq	t0,zero,0x7
9d004b8c:	31a5ffff 	andi	a1,t5,0xffff
9d004b90:	00004012 	mflo	t0
9d004b94:	00005010 	mfhi	t2
9d004b98:	000a5400 	sll	t2,t2,0x10
9d004b9c:	01452825 	or	a1,t2,a1
9d004ba0:	71886002 	mul	t4,t4,t0
9d004ba4:	00ac102b 	sltu	v0,a1,t4
9d004ba8:	1040000a 	beqz	v0,9d004bd4 <__divdi3+0x3f8>
9d004bac:	01005025 	move	t2,t0
9d004bb0:	00a72821 	addu	a1,a1,a3
9d004bb4:	00a7102b 	sltu	v0,a1,a3
9d004bb8:	14400006 	bnez	v0,9d004bd4 <__divdi3+0x3f8>
9d004bbc:	250affff 	addiu	t2,t0,-1
9d004bc0:	00ac102b 	sltu	v0,a1,t4
9d004bc4:	10400004 	beqz	v0,9d004bd8 <__divdi3+0x3fc>
9d004bc8:	00031400 	sll	v0,v1,0x10
9d004bcc:	250afffe 	addiu	t2,t0,-2
9d004bd0:	00a72821 	addu	a1,a1,a3
9d004bd4:	00031400 	sll	v0,v1,0x10
9d004bd8:	004a1025 	or	v0,v0,t2
9d004bdc:	00460019 	multu	v0,a2
9d004be0:	00ac2823 	subu	a1,a1,t4
9d004be4:	00003810 	mfhi	a3
9d004be8:	00a7182b 	sltu	v1,a1,a3
9d004bec:	14600007 	bnez	v1,9d004c0c <__divdi3+0x430>
9d004bf0:	00003012 	mflo	a2
9d004bf4:	14a7ff42 	bne	a1,a3,9d004900 <__divdi3+0x124>
9d004bf8:	00001825 	move	v1,zero
9d004bfc:	01642004 	sllv	a0,a0,t3
9d004c00:	0086202b 	sltu	a0,a0,a2
9d004c04:	1080ff3e 	beqz	a0,9d004900 <__divdi3+0x124>
9d004c08:	00000000 	nop
9d004c0c:	1000ffbb 	b	9d004afc <__divdi3+0x320>
9d004c10:	2442ffff 	addiu	v0,v0,-1
9d004c14:	1000ff3a 	b	9d004900 <__divdi3+0x124>
9d004c18:	00001025 	move	v0,zero

Disassembly of section .text.__strtod:

9d004c1c <__strtod>:
9d004c1c:	27bdffc0 	addiu	sp,sp,-64
9d004c20:	afbe0038 	sw	s8,56(sp)
9d004c24:	afbf003c 	sw	ra,60(sp)
9d004c28:	afb70034 	sw	s7,52(sp)
9d004c2c:	afb60030 	sw	s6,48(sp)
9d004c30:	afb5002c 	sw	s5,44(sp)
9d004c34:	afb40028 	sw	s4,40(sp)
9d004c38:	afb30024 	sw	s3,36(sp)
9d004c3c:	afb20020 	sw	s2,32(sp)
9d004c40:	afb1001c 	sw	s1,28(sp)
9d004c44:	afb00018 	sw	s0,24(sp)
9d004c48:	80830000 	lb	v1,0(a0)
9d004c4c:	3c1e9d01 	lui	s8,0x9d01
9d004c50:	27de864d 	addiu	s8,s8,-31155
9d004c54:	03c31021 	addu	v0,s8,v1
9d004c58:	80420000 	lb	v0,0(v0)
9d004c5c:	afa40040 	sw	a0,64(sp)
9d004c60:	30420088 	andi	v0,v0,0x88
9d004c64:	104000f0 	beqz	v0,9d005028 <__strtod+0x40c>
9d004c68:	afa50044 	sw	a1,68(sp)
9d004c6c:	00808025 	move	s0,a0
9d004c70:	26100001 	addiu	s0,s0,1
9d004c74:	82030000 	lb	v1,0(s0)
9d004c78:	03c31021 	addu	v0,s8,v1
9d004c7c:	80420000 	lb	v0,0(v0)
9d004c80:	30420088 	andi	v0,v0,0x88
9d004c84:	5440fffb 	bnezl	v0,9d004c74 <__strtod+0x58>
9d004c88:	26100001 	addiu	s0,s0,1
9d004c8c:	2402002d 	li	v0,45
9d004c90:	106200ae 	beq	v1,v0,9d004f4c <__strtod+0x330>
9d004c94:	3863002b 	xori	v1,v1,0x2b
9d004c98:	2c630001 	sltiu	v1,v1,1
9d004c9c:	02038021 	addu	s0,s0,v1
9d004ca0:	82030000 	lb	v1,0(s0)
9d004ca4:	afa00010 	sw	zero,16(sp)
9d004ca8:	03c31021 	addu	v0,s8,v1
9d004cac:	90420000 	lbu	v0,0(v0)
9d004cb0:	30420004 	andi	v0,v0,0x4
9d004cb4:	104000af 	beqz	v0,9d004f74 <__strtod+0x358>
9d004cb8:	2402002e 	li	v0,46
9d004cbc:	0000b025 	move	s6,zero
9d004cc0:	00008825 	move	s1,zero
9d004cc4:	0000a025 	move	s4,zero
9d004cc8:	02202825 	move	a1,s1
9d004ccc:	2477ffd0 	addiu	s7,v1,-48
9d004cd0:	02c02025 	move	a0,s6
9d004cd4:	00003025 	move	a2,zero
9d004cd8:	0f401805 	jal	9d006014 <__muldf3>
9d004cdc:	3c074024 	lui	a3,0x4024
9d004ce0:	02e02025 	move	a0,s7
9d004ce4:	00409025 	move	s2,v0
9d004ce8:	0f4024da 	jal	9d009368 <__floatsidf>
9d004cec:	00609825 	move	s3,v1
9d004cf0:	00403025 	move	a2,v0
9d004cf4:	00603825 	move	a3,v1
9d004cf8:	02402025 	move	a0,s2
9d004cfc:	0f401418 	jal	9d005060 <__adddf3>
9d004d00:	02602825 	move	a1,s3
9d004d04:	26100001 	addiu	s0,s0,1
9d004d08:	00608825 	move	s1,v1
9d004d0c:	82030000 	lb	v1,0(s0)
9d004d10:	0040b025 	move	s6,v0
9d004d14:	03c31021 	addu	v0,s8,v1
9d004d18:	90420000 	lbu	v0,0(v0)
9d004d1c:	30420004 	andi	v0,v0,0x4
9d004d20:	1440ffe9 	bnez	v0,9d004cc8 <__strtod+0xac>
9d004d24:	0297a025 	or	s4,s4,s7
9d004d28:	2402002e 	li	v0,46
9d004d2c:	146200bb 	bne	v1,v0,9d00501c <__strtod+0x400>
9d004d30:	24040001 	li	a0,1
9d004d34:	82030001 	lb	v1,1(s0)
9d004d38:	03c31021 	addu	v0,s8,v1
9d004d3c:	90420000 	lbu	v0,0(v0)
9d004d40:	30420004 	andi	v0,v0,0x4
9d004d44:	10400067 	beqz	v0,9d004ee4 <__strtod+0x2c8>
9d004d48:	26150001 	addiu	s5,s0,1
9d004d4c:	24130001 	li	s3,1
9d004d50:	2472ffd0 	addiu	s2,v1,-48
9d004d54:	02202825 	move	a1,s1
9d004d58:	02c02025 	move	a0,s6
9d004d5c:	00003025 	move	a2,zero
9d004d60:	0f401805 	jal	9d006014 <__muldf3>
9d004d64:	3c074024 	lui	a3,0x4024
9d004d68:	02402025 	move	a0,s2
9d004d6c:	0040b025 	move	s6,v0
9d004d70:	0f4024da 	jal	9d009368 <__floatsidf>
9d004d74:	0060b825 	move	s7,v1
9d004d78:	00403025 	move	a2,v0
9d004d7c:	02c02025 	move	a0,s6
9d004d80:	00603825 	move	a3,v1
9d004d84:	0f401418 	jal	9d005060 <__adddf3>
9d004d88:	02e02825 	move	a1,s7
9d004d8c:	26b50001 	addiu	s5,s5,1
9d004d90:	00608825 	move	s1,v1
9d004d94:	82a30000 	lb	v1,0(s5)
9d004d98:	0040b025 	move	s6,v0
9d004d9c:	02752023 	subu	a0,s3,s5
9d004da0:	03c31021 	addu	v0,s8,v1
9d004da4:	90420000 	lbu	v0,0(v0)
9d004da8:	0292a025 	or	s4,s4,s2
9d004dac:	30420004 	andi	v0,v0,0x4
9d004db0:	1440ffe7 	bnez	v0,9d004d50 <__strtod+0x134>
9d004db4:	02049021 	addu	s2,s0,a0
9d004db8:	7c032944 	ins	v1,zero,0x5,0x1
9d004dbc:	24020045 	li	v0,69
9d004dc0:	50620071 	beql	v1,v0,9d004f88 <__strtod+0x36c>
9d004dc4:	82a50001 	lb	a1,1(s5)
9d004dc8:	8fa20044 	lw	v0,68(sp)
9d004dcc:	10400002 	beqz	v0,9d004dd8 <__strtod+0x1bc>
9d004dd0:	00000000 	nop
9d004dd4:	ac550000 	sw	s5,0(v0)
9d004dd8:	12400048 	beqz	s2,9d004efc <__strtod+0x2e0>
9d004ddc:	3c139d01 	lui	s3,0x9d01
9d004de0:	001217c3 	sra	v0,s2,0x1f
9d004de4:	0052b826 	xor	s7,v0,s2
9d004de8:	02e2b823 	subu	s7,s7,v0
9d004dec:	00002025 	move	a0,zero
9d004df0:	3c053ff0 	lui	a1,0x3ff0
9d004df4:	24100009 	li	s0,9
9d004df8:	10000003 	b	9d004e08 <__strtod+0x1ec>
9d004dfc:	26739a00 	addiu	s3,s3,-26112
9d004e00:	1200000e 	beqz	s0,9d004e3c <__strtod+0x220>
9d004e04:	00803025 	move	a2,a0
9d004e08:	2610ffff 	addiu	s0,s0,-1
9d004e0c:	02171807 	srav	v1,s7,s0
9d004e10:	30630001 	andi	v1,v1,0x1
9d004e14:	1060fffa 	beqz	v1,9d004e00 <__strtod+0x1e4>
9d004e18:	001018c0 	sll	v1,s0,0x3
9d004e1c:	02631821 	addu	v1,s3,v1
9d004e20:	8c660000 	lw	a2,0(v1)
9d004e24:	0f401805 	jal	9d006014 <__muldf3>
9d004e28:	8c670004 	lw	a3,4(v1)
9d004e2c:	00402025 	move	a0,v0
9d004e30:	1600fff5 	bnez	s0,9d004e08 <__strtod+0x1ec>
9d004e34:	00602825 	move	a1,v1
9d004e38:	00803025 	move	a2,a0
9d004e3c:	00a03825 	move	a3,a1
9d004e40:	02c02025 	move	a0,s6
9d004e44:	0640006b 	bltz	s2,9d004ff4 <__strtod+0x3d8>
9d004e48:	02202825 	move	a1,s1
9d004e4c:	0f401805 	jal	9d006014 <__muldf3>
9d004e50:	00000000 	nop
9d004e54:	00402025 	move	a0,v0
9d004e58:	00602825 	move	a1,v1
9d004e5c:	0f401f77 	jal	9d007ddc <__ldexp>
9d004e60:	02403025 	move	a2,s2
9d004e64:	0040b025 	move	s6,v0
9d004e68:	00608825 	move	s1,v1
9d004e6c:	16c00025 	bnez	s6,9d004f04 <__strtod+0x2e8>
9d004e70:	7e22f000 	ext	v0,s1,0x0,0x1f
9d004e74:	3c037ff0 	lui	v1,0x7ff0
9d004e78:	14430023 	bne	v0,v1,9d004f08 <__strtod+0x2ec>
9d004e7c:	02d11025 	or	v0,s6,s1
9d004e80:	3c02a000 	lui	v0,0xa000
9d004e84:	24030022 	li	v1,34
9d004e88:	ac430088 	sw	v1,136(v0)
9d004e8c:	8fa20010 	lw	v0,16(sp)
9d004e90:	10400021 	beqz	v0,9d004f18 <__strtod+0x2fc>
9d004e94:	8fbf003c 	lw	ra,60(sp)
9d004e98:	02c02025 	move	a0,s6
9d004e9c:	0f40274b 	jal	9d009d2c <__negdf2>
9d004ea0:	02202825 	move	a1,s1
9d004ea4:	8fbf003c 	lw	ra,60(sp)
9d004ea8:	0040b025 	move	s6,v0
9d004eac:	00608825 	move	s1,v1
9d004eb0:	02c01025 	move	v0,s6
9d004eb4:	02201825 	move	v1,s1
9d004eb8:	8fbe0038 	lw	s8,56(sp)
9d004ebc:	8fb70034 	lw	s7,52(sp)
9d004ec0:	8fb60030 	lw	s6,48(sp)
9d004ec4:	8fb5002c 	lw	s5,44(sp)
9d004ec8:	8fb40028 	lw	s4,40(sp)
9d004ecc:	8fb30024 	lw	s3,36(sp)
9d004ed0:	8fb20020 	lw	s2,32(sp)
9d004ed4:	8fb1001c 	lw	s1,28(sp)
9d004ed8:	8fb00018 	lw	s0,24(sp)
9d004edc:	03e00008 	jr	ra
9d004ee0:	27bd0040 	addiu	sp,sp,64
9d004ee4:	1480004c 	bnez	a0,9d005018 <__strtod+0x3fc>
9d004ee8:	02a08025 	move	s0,s5
9d004eec:	8fa20044 	lw	v0,68(sp)
9d004ef0:	10400002 	beqz	v0,9d004efc <__strtod+0x2e0>
9d004ef4:	8fa30040 	lw	v1,64(sp)
9d004ef8:	ac430000 	sw	v1,0(v0)
9d004efc:	12c0ffdd 	beqz	s6,9d004e74 <__strtod+0x258>
9d004f00:	7e22f000 	ext	v0,s1,0x0,0x1f
9d004f04:	02d11025 	or	v0,s6,s1
9d004f08:	10400049 	beqz	v0,9d005030 <__strtod+0x414>
9d004f0c:	8fa20010 	lw	v0,16(sp)
9d004f10:	1440ffe1 	bnez	v0,9d004e98 <__strtod+0x27c>
9d004f14:	8fbf003c 	lw	ra,60(sp)
9d004f18:	02c01025 	move	v0,s6
9d004f1c:	02201825 	move	v1,s1
9d004f20:	8fbe0038 	lw	s8,56(sp)
9d004f24:	8fb70034 	lw	s7,52(sp)
9d004f28:	8fb60030 	lw	s6,48(sp)
9d004f2c:	8fb5002c 	lw	s5,44(sp)
9d004f30:	8fb40028 	lw	s4,40(sp)
9d004f34:	8fb30024 	lw	s3,36(sp)
9d004f38:	8fb20020 	lw	s2,32(sp)
9d004f3c:	8fb1001c 	lw	s1,28(sp)
9d004f40:	8fb00018 	lw	s0,24(sp)
9d004f44:	03e00008 	jr	ra
9d004f48:	27bd0040 	addiu	sp,sp,64
9d004f4c:	26100001 	addiu	s0,s0,1
9d004f50:	82030000 	lb	v1,0(s0)
9d004f54:	24020001 	li	v0,1
9d004f58:	afa20010 	sw	v0,16(sp)
9d004f5c:	03c31021 	addu	v0,s8,v1
9d004f60:	90420000 	lbu	v0,0(v0)
9d004f64:	30420004 	andi	v0,v0,0x4
9d004f68:	1440ff55 	bnez	v0,9d004cc0 <__strtod+0xa4>
9d004f6c:	0000b025 	move	s6,zero
9d004f70:	2402002e 	li	v0,46
9d004f74:	0000b025 	move	s6,zero
9d004f78:	10620034 	beq	v1,v0,9d00504c <__strtod+0x430>
9d004f7c:	00008825 	move	s1,zero
9d004f80:	1000ffda 	b	9d004eec <__strtod+0x2d0>
9d004f84:	0000a025 	move	s4,zero
9d004f88:	2402002d 	li	v0,45
9d004f8c:	10a2001e 	beq	a1,v0,9d005008 <__strtod+0x3ec>
9d004f90:	2402002b 	li	v0,43
9d004f94:	50a2002a 	beql	a1,v0,9d005040 <__strtod+0x424>
9d004f98:	82a50002 	lb	a1,2(s5)
9d004f9c:	26b50001 	addiu	s5,s5,1
9d004fa0:	00003825 	move	a3,zero
9d004fa4:	03c51021 	addu	v0,s8,a1
9d004fa8:	90420000 	lbu	v0,0(v0)
9d004fac:	30420004 	andi	v0,v0,0x4
9d004fb0:	1040000c 	beqz	v0,9d004fe4 <__strtod+0x3c8>
9d004fb4:	00002025 	move	a0,zero
9d004fb8:	26b50001 	addiu	s5,s5,1
9d004fbc:	24a6ffd0 	addiu	a2,a1,-48
9d004fc0:	82a50000 	lb	a1,0(s5)
9d004fc4:	00041080 	sll	v0,a0,0x2
9d004fc8:	00441021 	addu	v0,v0,a0
9d004fcc:	03c51821 	addu	v1,s8,a1
9d004fd0:	90630000 	lbu	v1,0(v1)
9d004fd4:	00021040 	sll	v0,v0,0x1
9d004fd8:	30630004 	andi	v1,v1,0x4
9d004fdc:	1460fff6 	bnez	v1,9d004fb8 <__strtod+0x39c>
9d004fe0:	00c22021 	addu	a0,a2,v0
9d004fe4:	00041023 	negu	v0,a0
9d004fe8:	0047200b 	movn	a0,v0,a3
9d004fec:	1000ff76 	b	9d004dc8 <__strtod+0x1ac>
9d004ff0:	02449021 	addu	s2,s2,a0
9d004ff4:	0f4010c9 	jal	9d004324 <__divdf3>
9d004ff8:	00000000 	nop
9d004ffc:	00402025 	move	a0,v0
9d005000:	1000ff96 	b	9d004e5c <__strtod+0x240>
9d005004:	00602825 	move	a1,v1
9d005008:	82a50002 	lb	a1,2(s5)
9d00500c:	24070001 	li	a3,1
9d005010:	1000ffe4 	b	9d004fa4 <__strtod+0x388>
9d005014:	26b50002 	addiu	s5,s5,2
9d005018:	82030000 	lb	v1,0(s0)
9d00501c:	0200a825 	move	s5,s0
9d005020:	1000ff65 	b	9d004db8 <__strtod+0x19c>
9d005024:	00009025 	move	s2,zero
9d005028:	1000ff18 	b	9d004c8c <__strtod+0x70>
9d00502c:	8fb00040 	lw	s0,64(sp)
9d005030:	5280ffb7 	beqzl	s4,9d004f10 <__strtod+0x2f4>
9d005034:	8fa20010 	lw	v0,16(sp)
9d005038:	1000ff92 	b	9d004e84 <__strtod+0x268>
9d00503c:	3c02a000 	lui	v0,0xa000
9d005040:	00003825 	move	a3,zero
9d005044:	1000ffd7 	b	9d004fa4 <__strtod+0x388>
9d005048:	26b50002 	addiu	s5,s5,2
9d00504c:	00002025 	move	a0,zero
9d005050:	1000ff38 	b	9d004d34 <__strtod+0x118>
9d005054:	0000a025 	move	s4,zero

Disassembly of section .text.dp32subadd:

9d005058 <__subdf3>:
9d005058:	3c018000 00e13826                       ...<&8..

9d005060 <__adddf3>:
9d005060:	00055840 000b5d42 000552c0 00047d42     @X..B]...R..B}..
9d005070:	014f5025 00044ac0 3c088000 01485025     %PO..J.....<%PH.
9d005080:	00077040 000e7542 00076ac0 00067d42     @p..Bu...j..B}..
9d005090:	01af6825 000662c0 01a86825 256fffff     %h...b..%h....o%
9d0050a0:	2de107fe 1020008d 00000000              ...-.. .....

9d0050ac <Blab1>:
9d0050ac:	25cfffff 	addiu	t7,t6,-1
9d0050b0:	2de107fe 	sltiu	at,t7,2046
9d0050b4:	102000bb 	beqz	at,9d0053a4 <BspecB>
9d0050b8:	00000000 	nop

9d0050bc <Blab2>:
9d0050bc:	3c018000 	lui	at,0x8000
9d0050c0:	00a12824 	and	a1,a1,at
9d0050c4:	016e4023 	subu	t0,t3,t6
9d0050c8:	1100002c 	beqz	t0,9d00517c <Badd3>
9d0050cc:	00000000 	nop
9d0050d0:	19000015 	blez	t0,9d005128 <i1>
9d0050d4:	00000000 	nop

9d0050d8 <L1>:
9d0050d8:	2d010020 	sltiu	at,t0,32
9d0050dc:	14200007 	bnez	at,9d0050fc <L2>
9d0050e0:	00000000 	nop
9d0050e4:	2108ffe0 	addi	t0,t0,-32
9d0050e8:	000c302b 	sltu	a2,zero,t4
9d0050ec:	100d0023 	beq	zero,t5,9d00517c <Badd3>
9d0050f0:	01a66025 	or	t4,t5,a2
9d0050f4:	1000fff8 	b	9d0050d8 <L1>
9d0050f8:	340d0000 	li	t5,0x0

9d0050fc <L2>:
9d0050fc:	1100001f 	beqz	t0,9d00517c <Badd3>
9d005100:	00000000 	nop
9d005104:	00082022 	neg	a0,t0
9d005108:	008c3004 	sllv	a2,t4,a0
9d00510c:	008d2004 	sllv	a0,t5,a0
9d005110:	010c6006 	srlv	t4,t4,t0
9d005114:	010d6806 	srlv	t5,t5,t0
9d005118:	10c00018 	beqz	a2,9d00517c <Badd3>
9d00511c:	008c6025 	or	t4,a0,t4
9d005120:	10000016 	b	9d00517c <Badd3>
9d005124:	358c0002 	ori	t4,t4,0x2

9d005128 <i1>:
9d005128:	000e5825 	or	t3,zero,t6
9d00512c:	00084023 	negu	t0,t0

9d005130 <L4>:
9d005130:	2d010020 	sltiu	at,t0,32
9d005134:	14200007 	bnez	at,9d005154 <L5>
9d005138:	00000000 	nop
9d00513c:	2108ffe0 	addi	t0,t0,-32
9d005140:	0009302b 	sltu	a2,zero,t1
9d005144:	100a000d 	beq	zero,t2,9d00517c <Badd3>
9d005148:	01464825 	or	t1,t2,a2
9d00514c:	1000fff8 	b	9d005130 <L4>
9d005150:	340a0000 	li	t2,0x0

9d005154 <L5>:
9d005154:	11000009 	beqz	t0,9d00517c <Badd3>
9d005158:	00000000 	nop
9d00515c:	00082022 	neg	a0,t0
9d005160:	00893004 	sllv	a2,t1,a0
9d005164:	008a2004 	sllv	a0,t2,a0
9d005168:	01094806 	srlv	t1,t1,t0
9d00516c:	010a5006 	srlv	t2,t2,t0
9d005170:	10c00002 	beqz	a2,9d00517c <Badd3>
9d005174:	00894825 	or	t1,a0,t1
9d005178:	35290002 	ori	t1,t1,0x2

9d00517c <Badd3>:
9d00517c:	00a77826 	xor	t7,a1,a3
9d005180:	05e0001c 	bltz	t7,9d0051f4 <Bsub1>
9d005184:	00000000 	nop
9d005188:	012c4821 	addu	t1,t1,t4
9d00518c:	012c782b 	sltu	t7,t1,t4
9d005190:	014d5021 	addu	t2,t2,t5
9d005194:	014f5021 	addu	t2,t2,t7
9d005198:	114d0002 	beq	t2,t5,9d0051a4 <L7>
9d00519c:	00000000 	nop
9d0051a0:	014d782b 	sltu	t7,t2,t5

9d0051a4 <L7>:
9d0051a4:	11e00037 	beqz	t7,9d005284 <Bres>
9d0051a8:	00000000 	nop
9d0051ac:	312f0001 	andi	t7,t1,0x1
9d0051b0:	11e00002 	beqz	t7,9d0051bc <i3>
9d0051b4:	00000000 	nop
9d0051b8:	35290002 	ori	t1,t1,0x2

9d0051bc <i3>:
9d0051bc:	00094842 	srl	t1,t1,0x1
9d0051c0:	000a7fc0 	sll	t7,t2,0x1f
9d0051c4:	012f4825 	or	t1,t1,t7
9d0051c8:	000a5042 	srl	t2,t2,0x1
9d0051cc:	3c018000 	lui	at,0x8000
9d0051d0:	01415025 	or	t2,t2,at
9d0051d4:	256b0001 	addiu	t3,t3,1
9d0051d8:	240107ff 	li	at,2047
9d0051dc:	15610029 	bne	t3,at,9d005284 <Bres>
9d0051e0:	00000000 	nop
9d0051e4:	3c017ff0 	lui	at,0x7ff0
9d0051e8:	00a12825 	or	a1,a1,at
9d0051ec:	10000037 	b	9d0052cc <BretA>
9d0051f0:	24040000 	li	a0,0

9d0051f4 <Bsub1>:
9d0051f4:	012c782b 	sltu	t7,t1,t4
9d0051f8:	012c4823 	subu	t1,t1,t4
9d0051fc:	014f102b 	sltu	v0,t2,t7
9d005200:	014f5023 	subu	t2,t2,t7
9d005204:	014d782b 	sltu	t7,t2,t5
9d005208:	01e27825 	or	t7,t7,v0
9d00520c:	11e00007 	beqz	t7,9d00522c <i5>
9d005210:	014d5023 	subu	t2,t2,t5
9d005214:	3c018000 	lui	at,0x8000
9d005218:	00a12826 	xor	a1,a1,at
9d00521c:	0009782b 	sltu	t7,zero,t1
9d005220:	00094823 	negu	t1,t1
9d005224:	000a5023 	negu	t2,t2
9d005228:	014f5023 	subu	t2,t2,t7

9d00522c <i5>:
9d00522c:	15400008 	bnez	t2,9d005250 <L8>
9d005230:	00000000 	nop
9d005234:	15200003 	bnez	t1,9d005244 <L9>
9d005238:	00000000 	nop
9d00523c:	1000000d 	b	9d005274 <L10>
9d005240:	240b0000 	li	t3,0

9d005244 <L9>:
9d005244:	01205025 	move	t2,t1
9d005248:	24090000 	li	t1,0
9d00524c:	256bffe0 	addiu	t3,t3,-32

9d005250 <L8>:
9d005250:	71484020 	clz	t0,t2
9d005254:	11000007 	beqz	t0,9d005274 <L10>
9d005258:	00000000 	nop
9d00525c:	01685823 	subu	t3,t3,t0
9d005260:	00082022 	neg	a0,t0
9d005264:	00892006 	srlv	a0,t1,a0
9d005268:	01094804 	sllv	t1,t1,t0
9d00526c:	010a5004 	sllv	t2,t2,t0
9d005270:	01445025 	or	t2,t2,a0

9d005274 <L10>:
9d005274:	01497825 	or	t7,t2,t1
9d005278:	15e00002 	bnez	t7,9d005284 <Bres>
9d00527c:	00000000 	nop
9d005280:	24050000 	li	a1,0

9d005284 <Bres>:
9d005284:	19600068 	blez	t3,9d005428 <Bund>
9d005288:	00000000 	nop

9d00528c <Blab8>:
9d00528c:	25290400 	addiu	t1,t1,1024
9d005290:	2d2f0400 	sltiu	t7,t1,1024
9d005294:	014f5021 	addu	t2,t2,t7
9d005298:	014f782b 	sltu	t7,t2,t7
9d00529c:	016f5821 	addu	t3,t3,t7
9d0052a0:	00097ac2 	srl	t7,t1,0xb
9d0052a4:	31ef0001 	andi	t7,t7,0x1
9d0052a8:	012f4823 	subu	t1,t1,t7
9d0052ac:	000922c2 	srl	a0,t1,0xb
9d0052b0:	000a7d40 	sll	t7,t2,0x15
9d0052b4:	008f2025 	or	a0,a0,t7
9d0052b8:	000a7840 	sll	t7,t2,0x1
9d0052bc:	000f7b02 	srl	t7,t7,0xc
9d0052c0:	00af2825 	or	a1,a1,t7
9d0052c4:	000b7d00 	sll	t7,t3,0x14
9d0052c8:	00af2825 	or	a1,a1,t7

9d0052cc <BretA>:
9d0052cc:	00041025 	or	v0,zero,a0
9d0052d0:	00051825 	or	v1,zero,a1

9d0052d4 <B999>:
9d0052d4:	03e00008 	jr	ra
9d0052d8:	00000000 	nop

9d0052dc <BspecA>:
9d0052dc:	0120782a 	slt	t7,t1,zero
9d0052e0:	01294821 	addu	t1,t1,t1
9d0052e4:	014a5021 	addu	t2,t2,t2
9d0052e8:	15600023 	bnez	t3,9d005378 <i7>
9d0052ec:	014f5021 	addu	t2,t2,t7
9d0052f0:	01497825 	or	t7,t2,t1
9d0052f4:	11e00014 	beqz	t7,9d005348 <i8>
9d0052f8:	00000000 	nop
9d0052fc:	15400008 	bnez	t2,9d005320 <L11>
9d005300:	00000000 	nop
9d005304:	15200003 	bnez	t1,9d005314 <L12>
9d005308:	00000000 	nop
9d00530c:	1000ff67 	b	9d0050ac <Blab1>
9d005310:	240b0000 	li	t3,0

9d005314 <L12>:
9d005314:	01205025 	move	t2,t1
9d005318:	24090000 	li	t1,0
9d00531c:	256bffe0 	addiu	t3,t3,-32

9d005320 <L11>:
9d005320:	71484020 	clz	t0,t2
9d005324:	1100ff61 	beqz	t0,9d0050ac <Blab1>
9d005328:	00000000 	nop
9d00532c:	01685823 	subu	t3,t3,t0
9d005330:	00082022 	neg	a0,t0
9d005334:	00892006 	srlv	a0,t1,a0
9d005338:	01094804 	sllv	t1,t1,t0
9d00533c:	010a5004 	sllv	t2,t2,t0
9d005340:	1000ff5a 	b	9d0050ac <Blab1>
9d005344:	01445025 	or	t2,t2,a0

9d005348 <i8>:
9d005348:	240107ff 	li	at,2047
9d00534c:	11c10015 	beq	t6,at,9d0053a4 <BspecB>
9d005350:	00000000 	nop
9d005354:	00e74021 	addu	t0,a3,a3
9d005358:	01067825 	or	t7,t0,a2
9d00535c:	15e00003 	bnez	t7,9d00536c <BretB>
9d005360:	00000000 	nop
9d005364:	04e0ffd9 	bltz	a3,9d0052cc <BretA>
9d005368:	00000000 	nop

9d00536c <BretB>:
9d00536c:	00061025 	or	v0,zero,a2
9d005370:	1000ffd8 	b	9d0052d4 <B999>
9d005374:	00071825 	or	v1,zero,a3

9d005378 <i7>:
9d005378:	01497825 	or	t7,t2,t1
9d00537c:	15e00027 	bnez	t7,9d00541c <Bnan>
9d005380:	00000000 	nop
9d005384:	240107ff 	li	at,2047
9d005388:	15c1ffd0 	bne	t6,at,9d0052cc <BretA>
9d00538c:	00000000 	nop
9d005390:	00a77826 	xor	t7,a1,a3
9d005394:	05e00021 	bltz	t7,9d00541c <Bnan>
9d005398:	00000000 	nop
9d00539c:	1000fff3 	b	9d00536c <BretB>
9d0053a0:	00000000 	nop

9d0053a4 <BspecB>:
9d0053a4:	0180782a 	slt	t7,t4,zero
9d0053a8:	018c6021 	addu	t4,t4,t4
9d0053ac:	01ad6821 	addu	t5,t5,t5
9d0053b0:	15c00017 	bnez	t6,9d005410 <i11>
9d0053b4:	01af6821 	addu	t5,t5,t7
9d0053b8:	01ac7825 	or	t7,t5,t4
9d0053bc:	11e0ffc3 	beqz	t7,9d0052cc <BretA>
9d0053c0:	00000000 	nop
9d0053c4:	15a00008 	bnez	t5,9d0053e8 <L14>
9d0053c8:	00000000 	nop
9d0053cc:	15800003 	bnez	t4,9d0053dc <L15>
9d0053d0:	00000000 	nop
9d0053d4:	1000ff39 	b	9d0050bc <Blab2>
9d0053d8:	240e0000 	li	t6,0

9d0053dc <L15>:
9d0053dc:	01806825 	move	t5,t4
9d0053e0:	240c0000 	li	t4,0
9d0053e4:	25ceffe0 	addiu	t6,t6,-32

9d0053e8 <L14>:
9d0053e8:	71a84020 	clz	t0,t5
9d0053ec:	1100ff33 	beqz	t0,9d0050bc <Blab2>
9d0053f0:	00000000 	nop
9d0053f4:	01c87023 	subu	t6,t6,t0
9d0053f8:	00082022 	neg	a0,t0
9d0053fc:	008c2006 	srlv	a0,t4,a0
9d005400:	010c6004 	sllv	t4,t4,t0
9d005404:	010d6804 	sllv	t5,t5,t0
9d005408:	1000ff2c 	b	9d0050bc <Blab2>
9d00540c:	01a46825 	or	t5,t5,a0

9d005410 <i11>:
9d005410:	01ac7825 	or	t7,t5,t4
9d005414:	11e0ffd5 	beqz	t7,9d00536c <BretB>
9d005418:	00000000 	nop

9d00541c <Bnan>:
9d00541c:	3c05fff8 	lui	a1,0xfff8
9d005420:	1000ffaa 	b	9d0052cc <BretA>
9d005424:	24040000 	li	a0,0

9d005428 <Bund>:
9d005428:	24080001 	li	t0,1
9d00542c:	010b4023 	subu	t0,t0,t3

9d005430 <L17>:
9d005430:	2d010020 	sltiu	at,t0,32
9d005434:	14200007 	bnez	at,9d005454 <L18>
9d005438:	00000000 	nop
9d00543c:	2108ffe0 	addi	t0,t0,-32
9d005440:	0009302b 	sltu	a2,zero,t1
9d005444:	100a000d 	beq	zero,t2,9d00547c <L19>
9d005448:	01464825 	or	t1,t2,a2
9d00544c:	1000fff8 	b	9d005430 <L17>
9d005450:	340a0000 	li	t2,0x0

9d005454 <L18>:
9d005454:	11000009 	beqz	t0,9d00547c <L19>
9d005458:	00000000 	nop
9d00545c:	00082022 	neg	a0,t0
9d005460:	00893004 	sllv	a2,t1,a0
9d005464:	008a2004 	sllv	a0,t2,a0
9d005468:	01094806 	srlv	t1,t1,t0
9d00546c:	010a5006 	srlv	t2,t2,t0
9d005470:	10c00002 	beqz	a2,9d00547c <L19>
9d005474:	00894825 	or	t1,a0,t1
9d005478:	35290002 	ori	t1,t1,0x2

9d00547c <L19>:
9d00547c:	1000ff83 	b	9d00528c <Blab8>
9d005480:	240b0000 	li	t3,0
9d005484:	00000000 	nop

Disassembly of section .text:

9d005488 <__umoddi3>:
9d005488:	00c04825 	move	t1,a2
9d00548c:	00801025 	move	v0,a0
9d005490:	14e00099 	bnez	a3,9d0056f8 <__umoddi3+0x270>
9d005494:	00a01825 	move	v1,a1
9d005498:	00a6302b 	sltu	a2,a1,a2
9d00549c:	10c00034 	beqz	a2,9d005570 <__umoddi3+0xe8>
9d0054a0:	712a5020 	clz	t2,t1
9d0054a4:	51400008 	beqzl	t2,9d0054c8 <__umoddi3+0x40>
9d0054a8:	00092402 	srl	a0,t1,0x10
9d0054ac:	01451804 	sllv	v1,a1,t2
9d0054b0:	000a2823 	negu	a1,t2
9d0054b4:	00a42806 	srlv	a1,a0,a1
9d0054b8:	01494804 	sllv	t1,t1,t2
9d0054bc:	00a31825 	or	v1,a1,v1
9d0054c0:	01441004 	sllv	v0,a0,t2
9d0054c4:	00092402 	srl	a0,t1,0x10
9d0054c8:	0064001b 	divu	zero,v1,a0
9d0054cc:	008001f4 	teq	a0,zero,0x7
9d0054d0:	3127ffff 	andi	a3,t1,0xffff
9d0054d4:	00001812 	mflo	v1
9d0054d8:	00002810 	mfhi	a1
9d0054dc:	70673002 	mul	a2,v1,a3
9d0054e0:	00051c00 	sll	v1,a1,0x10
9d0054e4:	00022c02 	srl	a1,v0,0x10
9d0054e8:	00651825 	or	v1,v1,a1
9d0054ec:	0066282b 	sltu	a1,v1,a2
9d0054f0:	50a00009 	beqzl	a1,9d005518 <__umoddi3+0x90>
9d0054f4:	00661823 	subu	v1,v1,a2
9d0054f8:	00691821 	addu	v1,v1,t1
9d0054fc:	0069282b 	sltu	a1,v1,t1
9d005500:	54a00005 	bnezl	a1,9d005518 <__umoddi3+0x90>
9d005504:	00661823 	subu	v1,v1,a2
9d005508:	0066282b 	sltu	a1,v1,a2
9d00550c:	54a00001 	bnezl	a1,9d005514 <__umoddi3+0x8c>
9d005510:	00691821 	addu	v1,v1,t1
9d005514:	00661823 	subu	v1,v1,a2
9d005518:	0064001b 	divu	zero,v1,a0
9d00551c:	008001f4 	teq	a0,zero,0x7
9d005520:	3042ffff 	andi	v0,v0,0xffff
9d005524:	00001812 	mflo	v1
9d005528:	00003010 	mfhi	a2
9d00552c:	70672002 	mul	a0,v1,a3
9d005530:	00061c00 	sll	v1,a2,0x10
9d005534:	00621025 	or	v0,v1,v0
9d005538:	0044182b 	sltu	v1,v0,a0
9d00553c:	50600009 	beqzl	v1,9d005564 <__umoddi3+0xdc>
9d005540:	00441023 	subu	v0,v0,a0
9d005544:	00491021 	addu	v0,v0,t1
9d005548:	0049182b 	sltu	v1,v0,t1
9d00554c:	54600005 	bnezl	v1,9d005564 <__umoddi3+0xdc>
9d005550:	00441023 	subu	v0,v0,a0
9d005554:	0044182b 	sltu	v1,v0,a0
9d005558:	54600001 	bnezl	v1,9d005560 <__umoddi3+0xd8>
9d00555c:	00491021 	addu	v0,v0,t1
9d005560:	00441023 	subu	v0,v0,a0
9d005564:	01421006 	srlv	v0,v0,t2
9d005568:	03e00008 	jr	ra
9d00556c:	00001825 	move	v1,zero
9d005570:	15200005 	bnez	t1,9d005588 <__umoddi3+0x100>
9d005574:	24030001 	li	v1,1
9d005578:	0069001b 	divu	zero,v1,t1
9d00557c:	012001f4 	teq	t1,zero,0x7
9d005580:	00004812 	mflo	t1
9d005584:	712a5020 	clz	t2,t1
9d005588:	1540002b 	bnez	t2,9d005638 <__umoddi3+0x1b0>
9d00558c:	24070020 	li	a3,32
9d005590:	00a92823 	subu	a1,a1,t1
9d005594:	00092402 	srl	a0,t1,0x10
9d005598:	00a4001b 	divu	zero,a1,a0
9d00559c:	008001f4 	teq	a0,zero,0x7
9d0055a0:	3127ffff 	andi	a3,t1,0xffff
9d0055a4:	00002812 	mflo	a1
9d0055a8:	00001810 	mfhi	v1
9d0055ac:	70a73002 	mul	a2,a1,a3
9d0055b0:	00032c00 	sll	a1,v1,0x10
9d0055b4:	00021c02 	srl	v1,v0,0x10
9d0055b8:	00a32825 	or	a1,a1,v1
9d0055bc:	00a6182b 	sltu	v1,a1,a2
9d0055c0:	50600009 	beqzl	v1,9d0055e8 <__umoddi3+0x160>
9d0055c4:	00a63023 	subu	a2,a1,a2
9d0055c8:	00a92821 	addu	a1,a1,t1
9d0055cc:	00a9182b 	sltu	v1,a1,t1
9d0055d0:	54600005 	bnezl	v1,9d0055e8 <__umoddi3+0x160>
9d0055d4:	00a63023 	subu	a2,a1,a2
9d0055d8:	00a6182b 	sltu	v1,a1,a2
9d0055dc:	54600001 	bnezl	v1,9d0055e4 <__umoddi3+0x15c>
9d0055e0:	00a92821 	addu	a1,a1,t1
9d0055e4:	00a63023 	subu	a2,a1,a2
9d0055e8:	00c4001b 	divu	zero,a2,a0
9d0055ec:	008001f4 	teq	a0,zero,0x7
9d0055f0:	3042ffff 	andi	v0,v0,0xffff
9d0055f4:	00003012 	mflo	a2
9d0055f8:	00002810 	mfhi	a1
9d0055fc:	70c71802 	mul	v1,a2,a3
9d005600:	00053400 	sll	a2,a1,0x10
9d005604:	00c21025 	or	v0,a2,v0
9d005608:	0043202b 	sltu	a0,v0,v1
9d00560c:	5080ffd5 	beqzl	a0,9d005564 <__umoddi3+0xdc>
9d005610:	00431023 	subu	v0,v0,v1
9d005614:	00491021 	addu	v0,v0,t1
9d005618:	0049202b 	sltu	a0,v0,t1
9d00561c:	5480ffd1 	bnezl	a0,9d005564 <__umoddi3+0xdc>
9d005620:	00431023 	subu	v0,v0,v1
9d005624:	0043202b 	sltu	a0,v0,v1
9d005628:	54800001 	bnezl	a0,9d005630 <__umoddi3+0x1a8>
9d00562c:	00491021 	addu	v0,v0,t1
9d005630:	1000ffcc 	b	9d005564 <__umoddi3+0xdc>
9d005634:	00431023 	subu	v0,v0,v1
9d005638:	00ea3823 	subu	a3,a3,t2
9d00563c:	01494804 	sllv	t1,t1,t2
9d005640:	00e41806 	srlv	v1,a0,a3
9d005644:	00093402 	srl	a2,t1,0x10
9d005648:	00e53806 	srlv	a3,a1,a3
9d00564c:	00e6001b 	divu	zero,a3,a2
9d005650:	00c001f4 	teq	a2,zero,0x7
9d005654:	01451004 	sllv	v0,a1,t2
9d005658:	312bffff 	andi	t3,t1,0xffff
9d00565c:	00621825 	or	v1,v1,v0
9d005660:	01441004 	sllv	v0,a0,t2
9d005664:	00032c02 	srl	a1,v1,0x10
9d005668:	00003812 	mflo	a3
9d00566c:	00002010 	mfhi	a0
9d005670:	70eb4002 	mul	t0,a3,t3
9d005674:	00043c00 	sll	a3,a0,0x10
9d005678:	00e53825 	or	a3,a3,a1
9d00567c:	00e8202b 	sltu	a0,a3,t0
9d005680:	50800009 	beqzl	a0,9d0056a8 <__umoddi3+0x220>
9d005684:	00e83823 	subu	a3,a3,t0
9d005688:	00e93821 	addu	a3,a3,t1
9d00568c:	00e9202b 	sltu	a0,a3,t1
9d005690:	54800005 	bnezl	a0,9d0056a8 <__umoddi3+0x220>
9d005694:	00e83823 	subu	a3,a3,t0
9d005698:	00e8202b 	sltu	a0,a3,t0
9d00569c:	54800001 	bnezl	a0,9d0056a4 <__umoddi3+0x21c>
9d0056a0:	00e93821 	addu	a3,a3,t1
9d0056a4:	00e83823 	subu	a3,a3,t0
9d0056a8:	00e6001b 	divu	zero,a3,a2
9d0056ac:	00c001f4 	teq	a2,zero,0x7
9d0056b0:	3065ffff 	andi	a1,v1,0xffff
9d0056b4:	00003012 	mflo	a2
9d0056b8:	00003810 	mfhi	a3
9d0056bc:	00073c00 	sll	a3,a3,0x10
9d0056c0:	00e52825 	or	a1,a3,a1
9d0056c4:	70cb3002 	mul	a2,a2,t3
9d0056c8:	00a6182b 	sltu	v1,a1,a2
9d0056cc:	5060ffb1 	beqzl	v1,9d005594 <__umoddi3+0x10c>
9d0056d0:	00a62823 	subu	a1,a1,a2
9d0056d4:	00a92821 	addu	a1,a1,t1
9d0056d8:	00a9182b 	sltu	v1,a1,t1
9d0056dc:	5460ffad 	bnezl	v1,9d005594 <__umoddi3+0x10c>
9d0056e0:	00a62823 	subu	a1,a1,a2
9d0056e4:	00a6182b 	sltu	v1,a1,a2
9d0056e8:	54600001 	bnezl	v1,9d0056f0 <__umoddi3+0x268>
9d0056ec:	00a92821 	addu	a1,a1,t1
9d0056f0:	1000ffa8 	b	9d005594 <__umoddi3+0x10c>
9d0056f4:	00a62823 	subu	a1,a1,a2
9d0056f8:	00a7402b 	sltu	t0,a1,a3
9d0056fc:	1500005e 	bnez	t0,9d005878 <__umoddi3+0x3f0>
9d005700:	70ee7020 	clz	t6,a3
9d005704:	15c0000c 	bnez	t6,9d005738 <__umoddi3+0x2b0>
9d005708:	240b0020 	li	t3,32
9d00570c:	00e5402b 	sltu	t0,a3,a1
9d005710:	55000005 	bnezl	t0,9d005728 <__umoddi3+0x2a0>
9d005714:	00861023 	subu	v0,a0,a2
9d005718:	0086402b 	sltu	t0,a0,a2
9d00571c:	15000056 	bnez	t0,9d005878 <__umoddi3+0x3f0>
9d005720:	00000000 	nop
9d005724:	00861023 	subu	v0,a0,a2
9d005728:	00a72823 	subu	a1,a1,a3
9d00572c:	0082182b 	sltu	v1,a0,v0
9d005730:	03e00008 	jr	ra
9d005734:	00a31823 	subu	v1,a1,v1
9d005738:	016e5823 	subu	t3,t3,t6
9d00573c:	01666006 	srlv	t4,a2,t3
9d005740:	01c73804 	sllv	a3,a3,t6
9d005744:	01873825 	or	a3,t4,a3
9d005748:	01c51804 	sllv	v1,a1,t6
9d00574c:	00074c02 	srl	t1,a3,0x10
9d005750:	01652806 	srlv	a1,a1,t3
9d005754:	00a9001b 	divu	zero,a1,t1
9d005758:	012001f4 	teq	t1,zero,0x7
9d00575c:	01c61004 	sllv	v0,a2,t6
9d005760:	30e8ffff 	andi	t0,a3,0xffff
9d005764:	01643006 	srlv	a2,a0,t3
9d005768:	00c33025 	or	a2,a2,v1
9d00576c:	00066402 	srl	t4,a2,0x10
9d005770:	01c42004 	sllv	a0,a0,t6
9d005774:	00002812 	mflo	a1
9d005778:	00005010 	mfhi	t2
9d00577c:	000a5400 	sll	t2,t2,0x10
9d005780:	014c5025 	or	t2,t2,t4
9d005784:	71051802 	mul	v1,t0,a1
9d005788:	0143602b 	sltu	t4,t2,v1
9d00578c:	1180000a 	beqz	t4,9d0057b8 <__umoddi3+0x330>
9d005790:	00a06825 	move	t5,a1
9d005794:	01475021 	addu	t2,t2,a3
9d005798:	0147602b 	sltu	t4,t2,a3
9d00579c:	15800006 	bnez	t4,9d0057b8 <__umoddi3+0x330>
9d0057a0:	24adffff 	addiu	t5,a1,-1
9d0057a4:	0143602b 	sltu	t4,t2,v1
9d0057a8:	51800004 	beqzl	t4,9d0057bc <__umoddi3+0x334>
9d0057ac:	01435023 	subu	t2,t2,v1
9d0057b0:	24adfffe 	addiu	t5,a1,-2
9d0057b4:	01475021 	addu	t2,t2,a3
9d0057b8:	01435023 	subu	t2,t2,v1
9d0057bc:	0149001b 	divu	zero,t2,t1
9d0057c0:	012001f4 	teq	t1,zero,0x7
9d0057c4:	00004812 	mflo	t1
9d0057c8:	00005010 	mfhi	t2
9d0057cc:	000a5400 	sll	t2,t2,0x10
9d0057d0:	71091802 	mul	v1,t0,t1
9d0057d4:	30c8ffff 	andi	t0,a2,0xffff
9d0057d8:	01484025 	or	t0,t2,t0
9d0057dc:	0103302b 	sltu	a2,t0,v1
9d0057e0:	10c0000a 	beqz	a2,9d00580c <__umoddi3+0x384>
9d0057e4:	01202825 	move	a1,t1
9d0057e8:	01074021 	addu	t0,t0,a3
9d0057ec:	0107302b 	sltu	a2,t0,a3
9d0057f0:	14c00006 	bnez	a2,9d00580c <__umoddi3+0x384>
9d0057f4:	2525ffff 	addiu	a1,t1,-1
9d0057f8:	0103302b 	sltu	a2,t0,v1
9d0057fc:	10c00004 	beqz	a2,9d005810 <__umoddi3+0x388>
9d005800:	000d6400 	sll	t4,t5,0x10
9d005804:	2525fffe 	addiu	a1,t1,-2
9d005808:	01074021 	addu	t0,t0,a3
9d00580c:	000d6400 	sll	t4,t5,0x10
9d005810:	01856025 	or	t4,t4,a1
9d005814:	01820019 	multu	t4,v0
9d005818:	01034023 	subu	t0,t0,v1
9d00581c:	00006810 	mfhi	t5
9d005820:	010d282b 	sltu	a1,t0,t5
9d005824:	01a01825 	move	v1,t5
9d005828:	00006012 	mflo	t4
9d00582c:	14a00006 	bnez	a1,9d005848 <__umoddi3+0x3c0>
9d005830:	00003012 	mflo	a2
9d005834:	150d0009 	bne	t0,t5,9d00585c <__umoddi3+0x3d4>
9d005838:	00863023 	subu	a2,a0,a2
9d00583c:	008c282b 	sltu	a1,a0,t4
9d005840:	50a00007 	beqzl	a1,9d005860 <__umoddi3+0x3d8>
9d005844:	01034023 	subu	t0,t0,v1
9d005848:	01823023 	subu	a2,t4,v0
9d00584c:	01a73823 	subu	a3,t5,a3
9d005850:	0186602b 	sltu	t4,t4,a2
9d005854:	00ec1823 	subu	v1,a3,t4
9d005858:	00863023 	subu	a2,a0,a2
9d00585c:	01034023 	subu	t0,t0,v1
9d005860:	0086182b 	sltu	v1,a0,a2
9d005864:	01031823 	subu	v1,t0,v1
9d005868:	01631004 	sllv	v0,v1,t3
9d00586c:	01c63006 	srlv	a2,a2,t6
9d005870:	00461025 	or	v0,v0,a2
9d005874:	01c31806 	srlv	v1,v1,t6
9d005878:	03e00008 	jr	ra
9d00587c:	00000000 	nop

9d005880 <__udivdi3>:
9d005880:	00c04025 	move	t0,a2
9d005884:	00e01825 	move	v1,a3
9d005888:	00805025 	move	t2,a0
9d00588c:	14e000a3 	bnez	a3,9d005b1c <__udivdi3+0x29c>
9d005890:	00a01025 	move	v0,a1
9d005894:	00a6302b 	sltu	a2,a1,a2
9d005898:	10c00034 	beqz	a2,9d00596c <__udivdi3+0xec>
9d00589c:	00000000 	nop
9d0058a0:	71052820 	clz	a1,t0
9d0058a4:	50a00008 	beqzl	a1,9d0058c8 <__udivdi3+0x48>
9d0058a8:	00082c02 	srl	a1,t0,0x10
9d0058ac:	00052023 	negu	a0,a1
9d0058b0:	008a2006 	srlv	a0,t2,a0
9d0058b4:	00a21004 	sllv	v0,v0,a1
9d0058b8:	00a84004 	sllv	t0,t0,a1
9d0058bc:	00821025 	or	v0,a0,v0
9d0058c0:	00aa5004 	sllv	t2,t2,a1
9d0058c4:	00082c02 	srl	a1,t0,0x10
9d0058c8:	0045001b 	divu	zero,v0,a1
9d0058cc:	00a001f4 	teq	a1,zero,0x7
9d0058d0:	3107ffff 	andi	a3,t0,0xffff
9d0058d4:	000a2402 	srl	a0,t2,0x10
9d0058d8:	00003012 	mflo	a2
9d0058dc:	00001010 	mfhi	v0
9d0058e0:	00021400 	sll	v0,v0,0x10
9d0058e4:	00442025 	or	a0,v0,a0
9d0058e8:	70e64802 	mul	t1,a3,a2
9d0058ec:	0089582b 	sltu	t3,a0,t1
9d0058f0:	1160000a 	beqz	t3,9d00591c <__udivdi3+0x9c>
9d0058f4:	00c01025 	move	v0,a2
9d0058f8:	00882021 	addu	a0,a0,t0
9d0058fc:	0088582b 	sltu	t3,a0,t0
9d005900:	15600006 	bnez	t3,9d00591c <__udivdi3+0x9c>
9d005904:	24c2ffff 	addiu	v0,a2,-1
9d005908:	0089582b 	sltu	t3,a0,t1
9d00590c:	51600004 	beqzl	t3,9d005920 <__udivdi3+0xa0>
9d005910:	00892023 	subu	a0,a0,t1
9d005914:	24c2fffe 	addiu	v0,a2,-2
9d005918:	00882021 	addu	a0,a0,t0
9d00591c:	00892023 	subu	a0,a0,t1
9d005920:	0085001b 	divu	zero,a0,a1
9d005924:	00a001f4 	teq	a1,zero,0x7
9d005928:	314affff 	andi	t2,t2,0xffff
9d00592c:	00002012 	mflo	a0
9d005930:	00002810 	mfhi	a1
9d005934:	00052c00 	sll	a1,a1,0x10
9d005938:	00aa5025 	or	t2,a1,t2
9d00593c:	70e43802 	mul	a3,a3,a0
9d005940:	0147282b 	sltu	a1,t2,a3
9d005944:	10a00006 	beqz	a1,9d005960 <__udivdi3+0xe0>
9d005948:	00803025 	move	a2,a0
9d00594c:	010a5021 	addu	t2,t0,t2
9d005950:	0148402b 	sltu	t0,t2,t0
9d005954:	2486ffff 	addiu	a2,a0,-1
9d005958:	11000036 	beqz	t0,9d005a34 <__udivdi3+0x1b4>
9d00595c:	0147502b 	sltu	t2,t2,a3
9d005960:	00021400 	sll	v0,v0,0x10
9d005964:	03e00008 	jr	ra
9d005968:	00461025 	or	v0,v0,a2
9d00596c:	15000006 	bnez	t0,9d005988 <__udivdi3+0x108>
9d005970:	71021020 	clz	v0,t0
9d005974:	24020001 	li	v0,1
9d005978:	0048001b 	divu	zero,v0,t0
9d00597c:	010001f4 	teq	t0,zero,0x7
9d005980:	00004012 	mflo	t0
9d005984:	71021020 	clz	v0,t0
9d005988:	1440002e 	bnez	v0,9d005a44 <__udivdi3+0x1c4>
9d00598c:	24090020 	li	t1,32
9d005990:	00a82823 	subu	a1,a1,t0
9d005994:	24030001 	li	v1,1
9d005998:	00083402 	srl	a2,t0,0x10
9d00599c:	00a6001b 	divu	zero,a1,a2
9d0059a0:	00c001f4 	teq	a2,zero,0x7
9d0059a4:	3107ffff 	andi	a3,t0,0xffff
9d0059a8:	000a2402 	srl	a0,t2,0x10
9d0059ac:	00002812 	mflo	a1
9d0059b0:	00001010 	mfhi	v0
9d0059b4:	00021400 	sll	v0,v0,0x10
9d0059b8:	00442025 	or	a0,v0,a0
9d0059bc:	70e54802 	mul	t1,a3,a1
9d0059c0:	0089582b 	sltu	t3,a0,t1
9d0059c4:	1160000a 	beqz	t3,9d0059f0 <__udivdi3+0x170>
9d0059c8:	00a01025 	move	v0,a1
9d0059cc:	00882021 	addu	a0,a0,t0
9d0059d0:	0088582b 	sltu	t3,a0,t0
9d0059d4:	15600006 	bnez	t3,9d0059f0 <__udivdi3+0x170>
9d0059d8:	24a2ffff 	addiu	v0,a1,-1
9d0059dc:	0089582b 	sltu	t3,a0,t1
9d0059e0:	51600004 	beqzl	t3,9d0059f4 <__udivdi3+0x174>
9d0059e4:	00892023 	subu	a0,a0,t1
9d0059e8:	24a2fffe 	addiu	v0,a1,-2
9d0059ec:	00882021 	addu	a0,a0,t0
9d0059f0:	00892023 	subu	a0,a0,t1
9d0059f4:	0086001b 	divu	zero,a0,a2
9d0059f8:	00c001f4 	teq	a2,zero,0x7
9d0059fc:	314affff 	andi	t2,t2,0xffff
9d005a00:	00002012 	mflo	a0
9d005a04:	00003010 	mfhi	a2
9d005a08:	00063400 	sll	a2,a2,0x10
9d005a0c:	00ca5025 	or	t2,a2,t2
9d005a10:	70e42802 	mul	a1,a3,a0
9d005a14:	0145382b 	sltu	a3,t2,a1
9d005a18:	10e0ffd1 	beqz	a3,9d005960 <__udivdi3+0xe0>
9d005a1c:	00803025 	move	a2,a0
9d005a20:	010a5021 	addu	t2,t0,t2
9d005a24:	0148402b 	sltu	t0,t2,t0
9d005a28:	1500ffcd 	bnez	t0,9d005960 <__udivdi3+0xe0>
9d005a2c:	2486ffff 	addiu	a2,a0,-1
9d005a30:	0145502b 	sltu	t2,t2,a1
9d005a34:	5540ffca 	bnezl	t2,9d005960 <__udivdi3+0xe0>
9d005a38:	2486fffe 	addiu	a2,a0,-2
9d005a3c:	1000ffc9 	b	9d005964 <__udivdi3+0xe4>
9d005a40:	00021400 	sll	v0,v0,0x10
9d005a44:	01224823 	subu	t1,t1,v0
9d005a48:	00484004 	sllv	t0,t0,v0
9d005a4c:	00451804 	sllv	v1,a1,v0
9d005a50:	00445004 	sllv	t2,a0,v0
9d005a54:	01252806 	srlv	a1,a1,t1
9d005a58:	00081402 	srl	v0,t0,0x10
9d005a5c:	00a2001b 	divu	zero,a1,v0
9d005a60:	004001f4 	teq	v0,zero,0x7
9d005a64:	3106ffff 	andi	a2,t0,0xffff
9d005a68:	01243806 	srlv	a3,a0,t1
9d005a6c:	00e33825 	or	a3,a3,v1
9d005a70:	00071c02 	srl	v1,a3,0x10
9d005a74:	00002812 	mflo	a1
9d005a78:	00002010 	mfhi	a0
9d005a7c:	00042400 	sll	a0,a0,0x10
9d005a80:	00832025 	or	a0,a0,v1
9d005a84:	70c54802 	mul	t1,a2,a1
9d005a88:	0089582b 	sltu	t3,a0,t1
9d005a8c:	1160000a 	beqz	t3,9d005ab8 <__udivdi3+0x238>
9d005a90:	00a01825 	move	v1,a1
9d005a94:	00882021 	addu	a0,a0,t0
9d005a98:	0088582b 	sltu	t3,a0,t0
9d005a9c:	15600006 	bnez	t3,9d005ab8 <__udivdi3+0x238>
9d005aa0:	24a3ffff 	addiu	v1,a1,-1
9d005aa4:	0089582b 	sltu	t3,a0,t1
9d005aa8:	51600004 	beqzl	t3,9d005abc <__udivdi3+0x23c>
9d005aac:	00892023 	subu	a0,a0,t1
9d005ab0:	24a3fffe 	addiu	v1,a1,-2
9d005ab4:	00882021 	addu	a0,a0,t0
9d005ab8:	00892023 	subu	a0,a0,t1
9d005abc:	0082001b 	divu	zero,a0,v0
9d005ac0:	004001f4 	teq	v0,zero,0x7
9d005ac4:	30e5ffff 	andi	a1,a3,0xffff
9d005ac8:	00001012 	mflo	v0
9d005acc:	00002010 	mfhi	a0
9d005ad0:	00042400 	sll	a0,a0,0x10
9d005ad4:	00852825 	or	a1,a0,a1
9d005ad8:	70c23002 	mul	a2,a2,v0
9d005adc:	00a6382b 	sltu	a3,a1,a2
9d005ae0:	10e0000a 	beqz	a3,9d005b0c <__udivdi3+0x28c>
9d005ae4:	00402025 	move	a0,v0
9d005ae8:	00a82821 	addu	a1,a1,t0
9d005aec:	00a8382b 	sltu	a3,a1,t0
9d005af0:	14e00006 	bnez	a3,9d005b0c <__udivdi3+0x28c>
9d005af4:	2444ffff 	addiu	a0,v0,-1
9d005af8:	00a6382b 	sltu	a3,a1,a2
9d005afc:	50e00004 	beqzl	a3,9d005b10 <__udivdi3+0x290>
9d005b00:	00031c00 	sll	v1,v1,0x10
9d005b04:	2444fffe 	addiu	a0,v0,-2
9d005b08:	00a82821 	addu	a1,a1,t0
9d005b0c:	00031c00 	sll	v1,v1,0x10
9d005b10:	00a62823 	subu	a1,a1,a2
9d005b14:	1000ffa0 	b	9d005998 <__udivdi3+0x118>
9d005b18:	00641825 	or	v1,v1,a0
9d005b1c:	00a7102b 	sltu	v0,a1,a3
9d005b20:	1440004f 	bnez	v0,9d005c60 <__udivdi3+0x3e0>
9d005b24:	00001825 	move	v1,zero
9d005b28:	70ea5020 	clz	t2,a3
9d005b2c:	15400008 	bnez	t2,9d005b50 <__udivdi3+0x2d0>
9d005b30:	24090020 	li	t1,32
9d005b34:	00e5282b 	sltu	a1,a3,a1
9d005b38:	54a0004a 	bnezl	a1,9d005c64 <__udivdi3+0x3e4>
9d005b3c:	24020001 	li	v0,1
9d005b40:	0086102b 	sltu	v0,a0,a2
9d005b44:	38420001 	xori	v0,v0,0x1
9d005b48:	03e00008 	jr	ra
9d005b4c:	00001825 	move	v1,zero
9d005b50:	012a4823 	subu	t1,t1,t2
9d005b54:	01261006 	srlv	v0,a2,t1
9d005b58:	01473804 	sllv	a3,a3,t2
9d005b5c:	00473825 	or	a3,v0,a3
9d005b60:	00074402 	srl	t0,a3,0x10
9d005b64:	01451004 	sllv	v0,a1,t2
9d005b68:	01252806 	srlv	a1,a1,t1
9d005b6c:	00a8001b 	divu	zero,a1,t0
9d005b70:	010001f4 	teq	t0,zero,0x7
9d005b74:	01246006 	srlv	t4,a0,t1
9d005b78:	30ebffff 	andi	t3,a3,0xffff
9d005b7c:	01826025 	or	t4,t4,v0
9d005b80:	000c1c02 	srl	v1,t4,0x10
9d005b84:	01463004 	sllv	a2,a2,t2
9d005b88:	00002812 	mflo	a1
9d005b8c:	00004810 	mfhi	t1
9d005b90:	00094c00 	sll	t1,t1,0x10
9d005b94:	01234825 	or	t1,t1,v1
9d005b98:	71651002 	mul	v0,t3,a1
9d005b9c:	0122682b 	sltu	t5,t1,v0
9d005ba0:	11a0000a 	beqz	t5,9d005bcc <__udivdi3+0x34c>
9d005ba4:	00a01825 	move	v1,a1
9d005ba8:	01274821 	addu	t1,t1,a3
9d005bac:	0127682b 	sltu	t5,t1,a3
9d005bb0:	15a00006 	bnez	t5,9d005bcc <__udivdi3+0x34c>
9d005bb4:	24a3ffff 	addiu	v1,a1,-1
9d005bb8:	0122682b 	sltu	t5,t1,v0
9d005bbc:	51a00004 	beqzl	t5,9d005bd0 <__udivdi3+0x350>
9d005bc0:	01224823 	subu	t1,t1,v0
9d005bc4:	24a3fffe 	addiu	v1,a1,-2
9d005bc8:	01274821 	addu	t1,t1,a3
9d005bcc:	01224823 	subu	t1,t1,v0
9d005bd0:	0128001b 	divu	zero,t1,t0
9d005bd4:	010001f4 	teq	t0,zero,0x7
9d005bd8:	3185ffff 	andi	a1,t4,0xffff
9d005bdc:	00004012 	mflo	t0
9d005be0:	00004810 	mfhi	t1
9d005be4:	00094c00 	sll	t1,t1,0x10
9d005be8:	01252825 	or	a1,t1,a1
9d005bec:	71685802 	mul	t3,t3,t0
9d005bf0:	00ab102b 	sltu	v0,a1,t3
9d005bf4:	1040000a 	beqz	v0,9d005c20 <__udivdi3+0x3a0>
9d005bf8:	01004825 	move	t1,t0
9d005bfc:	00a72821 	addu	a1,a1,a3
9d005c00:	00a7102b 	sltu	v0,a1,a3
9d005c04:	14400006 	bnez	v0,9d005c20 <__udivdi3+0x3a0>
9d005c08:	2509ffff 	addiu	t1,t0,-1
9d005c0c:	00ab102b 	sltu	v0,a1,t3
9d005c10:	10400004 	beqz	v0,9d005c24 <__udivdi3+0x3a4>
9d005c14:	00031400 	sll	v0,v1,0x10
9d005c18:	2509fffe 	addiu	t1,t0,-2
9d005c1c:	00a72821 	addu	a1,a1,a3
9d005c20:	00031400 	sll	v0,v1,0x10
9d005c24:	00491025 	or	v0,v0,t1
9d005c28:	00460019 	multu	v0,a2
9d005c2c:	00ab2823 	subu	a1,a1,t3
9d005c30:	00003810 	mfhi	a3
9d005c34:	00a7182b 	sltu	v1,a1,a3
9d005c38:	14600007 	bnez	v1,9d005c58 <__udivdi3+0x3d8>
9d005c3c:	00003012 	mflo	a2
9d005c40:	14a70008 	bne	a1,a3,9d005c64 <__udivdi3+0x3e4>
9d005c44:	00001825 	move	v1,zero
9d005c48:	01442004 	sllv	a0,a0,t2
9d005c4c:	0086202b 	sltu	a0,a0,a2
9d005c50:	10800004 	beqz	a0,9d005c64 <__udivdi3+0x3e4>
9d005c54:	00000000 	nop
9d005c58:	1000ffbb 	b	9d005b48 <__udivdi3+0x2c8>
9d005c5c:	2442ffff 	addiu	v0,v0,-1
9d005c60:	00001025 	move	v0,zero
9d005c64:	03e00008 	jr	ra
9d005c68:	00000000 	nop

Disassembly of section .text.__strtof:

9d005c6c <__strtof>:
9d005c6c:	27bdffc8 	addiu	sp,sp,-56
9d005c70:	afb60028 	sw	s6,40(sp)
9d005c74:	afb3001c 	sw	s3,28(sp)
9d005c78:	afb20018 	sw	s2,24(sp)
9d005c7c:	afb00010 	sw	s0,16(sp)
9d005c80:	afbf0034 	sw	ra,52(sp)
9d005c84:	afbe0030 	sw	s8,48(sp)
9d005c88:	afb7002c 	sw	s7,44(sp)
9d005c8c:	afb50024 	sw	s5,36(sp)
9d005c90:	afb40020 	sw	s4,32(sp)
9d005c94:	afb10014 	sw	s1,20(sp)
9d005c98:	80830000 	lb	v1,0(a0)
9d005c9c:	3c169d01 	lui	s6,0x9d01
9d005ca0:	26d6864d 	addiu	s6,s6,-31155
9d005ca4:	02c31021 	addu	v0,s6,v1
9d005ca8:	80420000 	lb	v0,0(v0)
9d005cac:	00809025 	move	s2,a0
9d005cb0:	00a09825 	move	s3,a1
9d005cb4:	30420088 	andi	v0,v0,0x88
9d005cb8:	10400008 	beqz	v0,9d005cdc <__strtof+0x70>
9d005cbc:	00808025 	move	s0,a0
9d005cc0:	26100001 	addiu	s0,s0,1
9d005cc4:	82030000 	lb	v1,0(s0)
9d005cc8:	02c31021 	addu	v0,s6,v1
9d005ccc:	80420000 	lb	v0,0(v0)
9d005cd0:	30420088 	andi	v0,v0,0x88
9d005cd4:	5440fffb 	bnezl	v0,9d005cc4 <__strtof+0x58>
9d005cd8:	26100001 	addiu	s0,s0,1
9d005cdc:	2402002d 	li	v0,45
9d005ce0:	10620090 	beq	v1,v0,9d005f24 <__strtof+0x2b8>
9d005ce4:	3863002b 	xori	v1,v1,0x2b
9d005ce8:	2c630001 	sltiu	v1,v1,1
9d005cec:	02038021 	addu	s0,s0,v1
9d005cf0:	82030000 	lb	v1,0(s0)
9d005cf4:	0000a825 	move	s5,zero
9d005cf8:	00008825 	move	s1,zero
9d005cfc:	02c31021 	addu	v0,s6,v1
9d005d00:	90420000 	lbu	v0,0(v0)
9d005d04:	30420004 	andi	v0,v0,0x4
9d005d08:	1040008f 	beqz	v0,9d005f48 <__strtof+0x2dc>
9d005d0c:	0000a025 	move	s4,zero
9d005d10:	2477ffd0 	addiu	s7,v1,-48
9d005d14:	02202025 	move	a0,s1
9d005d18:	0f401f08 	jal	9d007c20 <__mulsf3>
9d005d1c:	3c054120 	lui	a1,0x4120
9d005d20:	02e02025 	move	a0,s7
9d005d24:	0f4025b3 	jal	9d0096cc <__floatsisf>
9d005d28:	00408825 	move	s1,v0
9d005d2c:	00402825 	move	a1,v0
9d005d30:	02202025 	move	a0,s1
9d005d34:	0f401a33 	jal	9d0068cc <__addsf3>
9d005d38:	26100001 	addiu	s0,s0,1
9d005d3c:	82030000 	lb	v1,0(s0)
9d005d40:	00408825 	move	s1,v0
9d005d44:	02c31021 	addu	v0,s6,v1
9d005d48:	90420000 	lbu	v0,0(v0)
9d005d4c:	30420004 	andi	v0,v0,0x4
9d005d50:	1440ffef 	bnez	v0,9d005d10 <__strtof+0xa4>
9d005d54:	0297a025 	or	s4,s4,s7
9d005d58:	2402002e 	li	v0,46
9d005d5c:	146200a3 	bne	v1,v0,9d005fec <__strtof+0x380>
9d005d60:	24040001 	li	a0,1
9d005d64:	82030001 	lb	v1,1(s0)
9d005d68:	02c31021 	addu	v0,s6,v1
9d005d6c:	90420000 	lbu	v0,0(v0)
9d005d70:	30420004 	andi	v0,v0,0x4
9d005d74:	10400052 	beqz	v0,9d005ec0 <__strtof+0x254>
9d005d78:	26170001 	addiu	s7,s0,1
9d005d7c:	241e0001 	li	s8,1
9d005d80:	2472ffd0 	addiu	s2,v1,-48
9d005d84:	02202025 	move	a0,s1
9d005d88:	0f401f08 	jal	9d007c20 <__mulsf3>
9d005d8c:	3c054120 	lui	a1,0x4120
9d005d90:	02402025 	move	a0,s2
9d005d94:	0f4025b3 	jal	9d0096cc <__floatsisf>
9d005d98:	00408825 	move	s1,v0
9d005d9c:	26f70001 	addiu	s7,s7,1
9d005da0:	02202025 	move	a0,s1
9d005da4:	0f401a33 	jal	9d0068cc <__addsf3>
9d005da8:	00402825 	move	a1,v0
9d005dac:	82e30000 	lb	v1,0(s7)
9d005db0:	00408825 	move	s1,v0
9d005db4:	03d72023 	subu	a0,s8,s7
9d005db8:	02c31021 	addu	v0,s6,v1
9d005dbc:	90420000 	lbu	v0,0(v0)
9d005dc0:	0292a025 	or	s4,s4,s2
9d005dc4:	30420004 	andi	v0,v0,0x4
9d005dc8:	1440ffed 	bnez	v0,9d005d80 <__strtof+0x114>
9d005dcc:	02049021 	addu	s2,s0,a0
9d005dd0:	7c032944 	ins	v1,zero,0x5,0x1
9d005dd4:	24020045 	li	v0,69
9d005dd8:	50620060 	beql	v1,v0,9d005f5c <__strtof+0x2f0>
9d005ddc:	82e50001 	lb	a1,1(s7)
9d005de0:	56600001 	bnezl	s3,9d005de8 <__strtof+0x17c>
9d005de4:	ae770000 	sw	s7,0(s3)
9d005de8:	12400039 	beqz	s2,9d005ed0 <__strtof+0x264>
9d005dec:	001217c3 	sra	v0,s2,0x1f
9d005df0:	00529826 	xor	s3,v0,s2
9d005df4:	3c169d01 	lui	s6,0x9d01
9d005df8:	02629823 	subu	s3,s3,v0
9d005dfc:	24100006 	li	s0,6
9d005e00:	3c023f80 	lui	v0,0x3f80
9d005e04:	10000003 	b	9d005e14 <__strtof+0x1a8>
9d005e08:	26d69d78 	addiu	s6,s6,-25224
9d005e0c:	1200000d 	beqz	s0,9d005e44 <__strtof+0x1d8>
9d005e10:	00402825 	move	a1,v0
9d005e14:	2610ffff 	addiu	s0,s0,-1
9d005e18:	02131807 	srav	v1,s3,s0
9d005e1c:	30630001 	andi	v1,v1,0x1
9d005e20:	1060fffa 	beqz	v1,9d005e0c <__strtof+0x1a0>
9d005e24:	00101880 	sll	v1,s0,0x2
9d005e28:	02c31821 	addu	v1,s6,v1
9d005e2c:	8c650000 	lw	a1,0(v1)
9d005e30:	0f401f08 	jal	9d007c20 <__mulsf3>
9d005e34:	00402025 	move	a0,v0
9d005e38:	5600fff7 	bnezl	s0,9d005e18 <__strtof+0x1ac>
9d005e3c:	2610ffff 	addiu	s0,s0,-1
9d005e40:	00402825 	move	a1,v0
9d005e44:	06400060 	bltz	s2,9d005fc8 <__strtof+0x35c>
9d005e48:	02202025 	move	a0,s1
9d005e4c:	0f401f08 	jal	9d007c20 <__mulsf3>
9d005e50:	00000000 	nop
9d005e54:	00402025 	move	a0,v0
9d005e58:	0f402215 	jal	9d008854 <__ldexpf>
9d005e5c:	02402825 	move	a1,s2
9d005e60:	00408825 	move	s1,v0
9d005e64:	00111040 	sll	v0,s1,0x1
9d005e68:	3c03ff00 	lui	v1,0xff00
9d005e6c:	1443001c 	bne	v0,v1,9d005ee0 <__strtof+0x274>
9d005e70:	3c02a000 	lui	v0,0xa000
9d005e74:	24030022 	li	v1,34
9d005e78:	12a0001d 	beqz	s5,9d005ef0 <__strtof+0x284>
9d005e7c:	ac430088 	sw	v1,136(v0)
9d005e80:	0f402778 	jal	9d009de0 <__negsf2>
9d005e84:	02202025 	move	a0,s1
9d005e88:	8fbf0034 	lw	ra,52(sp)
9d005e8c:	00408825 	move	s1,v0
9d005e90:	02201025 	move	v0,s1
9d005e94:	8fbe0030 	lw	s8,48(sp)
9d005e98:	8fb7002c 	lw	s7,44(sp)
9d005e9c:	8fb60028 	lw	s6,40(sp)
9d005ea0:	8fb50024 	lw	s5,36(sp)
9d005ea4:	8fb40020 	lw	s4,32(sp)
9d005ea8:	8fb3001c 	lw	s3,28(sp)
9d005eac:	8fb20018 	lw	s2,24(sp)
9d005eb0:	8fb10014 	lw	s1,20(sp)
9d005eb4:	8fb00010 	lw	s0,16(sp)
9d005eb8:	03e00008 	jr	ra
9d005ebc:	27bd0038 	addiu	sp,sp,56
9d005ec0:	14800049 	bnez	a0,9d005fe8 <__strtof+0x37c>
9d005ec4:	02e08025 	move	s0,s7
9d005ec8:	56600001 	bnezl	s3,9d005ed0 <__strtof+0x264>
9d005ecc:	ae720000 	sw	s2,0(s3)
9d005ed0:	00111040 	sll	v0,s1,0x1
9d005ed4:	3c03ff00 	lui	v1,0xff00
9d005ed8:	1043ffe6 	beq	v0,v1,9d005e74 <__strtof+0x208>
9d005edc:	3c02a000 	lui	v0,0xa000
9d005ee0:	12200045 	beqz	s1,9d005ff8 <__strtof+0x38c>
9d005ee4:	00000000 	nop
9d005ee8:	16a0ffe5 	bnez	s5,9d005e80 <__strtof+0x214>
9d005eec:	00000000 	nop
9d005ef0:	8fbf0034 	lw	ra,52(sp)
9d005ef4:	02201025 	move	v0,s1
9d005ef8:	8fbe0030 	lw	s8,48(sp)
9d005efc:	8fb7002c 	lw	s7,44(sp)
9d005f00:	8fb60028 	lw	s6,40(sp)
9d005f04:	8fb50024 	lw	s5,36(sp)
9d005f08:	8fb40020 	lw	s4,32(sp)
9d005f0c:	8fb3001c 	lw	s3,28(sp)
9d005f10:	8fb20018 	lw	s2,24(sp)
9d005f14:	8fb10014 	lw	s1,20(sp)
9d005f18:	8fb00010 	lw	s0,16(sp)
9d005f1c:	03e00008 	jr	ra
9d005f20:	27bd0038 	addiu	sp,sp,56
9d005f24:	26100001 	addiu	s0,s0,1
9d005f28:	82030000 	lb	v1,0(s0)
9d005f2c:	24150001 	li	s5,1
9d005f30:	00008825 	move	s1,zero
9d005f34:	02c31021 	addu	v0,s6,v1
9d005f38:	90420000 	lbu	v0,0(v0)
9d005f3c:	30420004 	andi	v0,v0,0x4
9d005f40:	1440ff73 	bnez	v0,9d005d10 <__strtof+0xa4>
9d005f44:	0000a025 	move	s4,zero
9d005f48:	2402002e 	li	v0,46
9d005f4c:	1462ffde 	bne	v1,v0,9d005ec8 <__strtof+0x25c>
9d005f50:	02808825 	move	s1,s4
9d005f54:	1000ff83 	b	9d005d64 <__strtof+0xf8>
9d005f58:	00002025 	move	a0,zero
9d005f5c:	2402002d 	li	v0,45
9d005f60:	10a2001d 	beq	a1,v0,9d005fd8 <__strtof+0x36c>
9d005f64:	2402002b 	li	v0,43
9d005f68:	50a20027 	beql	a1,v0,9d006008 <__strtof+0x39c>
9d005f6c:	82e50002 	lb	a1,2(s7)
9d005f70:	26f70001 	addiu	s7,s7,1
9d005f74:	00003825 	move	a3,zero
9d005f78:	02c51021 	addu	v0,s6,a1
9d005f7c:	90420000 	lbu	v0,0(v0)
9d005f80:	30420004 	andi	v0,v0,0x4
9d005f84:	1040000c 	beqz	v0,9d005fb8 <__strtof+0x34c>
9d005f88:	00002025 	move	a0,zero
9d005f8c:	26f70001 	addiu	s7,s7,1
9d005f90:	24a6ffd0 	addiu	a2,a1,-48
9d005f94:	82e50000 	lb	a1,0(s7)
9d005f98:	00041080 	sll	v0,a0,0x2
9d005f9c:	00441021 	addu	v0,v0,a0
9d005fa0:	02c51821 	addu	v1,s6,a1
9d005fa4:	90630000 	lbu	v1,0(v1)
9d005fa8:	00021040 	sll	v0,v0,0x1
9d005fac:	30630004 	andi	v1,v1,0x4
9d005fb0:	1460fff6 	bnez	v1,9d005f8c <__strtof+0x320>
9d005fb4:	00c22021 	addu	a0,a2,v0
9d005fb8:	00041023 	negu	v0,a0
9d005fbc:	0047200b 	movn	a0,v0,a3
9d005fc0:	1000ff87 	b	9d005de0 <__strtof+0x174>
9d005fc4:	02449021 	addu	s2,s2,a0
9d005fc8:	0f401c8d 	jal	9d007234 <__jend_main_5>
9d005fcc:	00000000 	nop
9d005fd0:	1000ffa1 	b	9d005e58 <__strtof+0x1ec>
9d005fd4:	00402025 	move	a0,v0
9d005fd8:	82e50002 	lb	a1,2(s7)
9d005fdc:	24070001 	li	a3,1
9d005fe0:	1000ffe5 	b	9d005f78 <__strtof+0x30c>
9d005fe4:	26f70002 	addiu	s7,s7,2
9d005fe8:	82030000 	lb	v1,0(s0)
9d005fec:	0200b825 	move	s7,s0
9d005ff0:	1000ff77 	b	9d005dd0 <__strtof+0x164>
9d005ff4:	00009025 	move	s2,zero
9d005ff8:	1280ffbb 	beqz	s4,9d005ee8 <__strtof+0x27c>
9d005ffc:	3c02a000 	lui	v0,0xa000
9d006000:	1000ff9d 	b	9d005e78 <__strtof+0x20c>
9d006004:	24030022 	li	v1,34
9d006008:	00003825 	move	a3,zero
9d00600c:	1000ffda 	b	9d005f78 <__strtof+0x30c>
9d006010:	26f70002 	addiu	s7,s7,2

Disassembly of section .text.dp32mul:

9d006014 <__muldf3>:
9d006014:	00055040 000a5542 00054ac0 00047d42     @P..BU...J..B}..
9d006024:	012f4825 000442c0 3c0e8000 012e4825     %H/..B.....<%H..
9d006034:	00076840 000d6d42 000762c0 00067d42     @h..Bm...b..B}..
9d006044:	018f6025 00065ac0 018e6025 00a72826     %`...Z..%`..&(..
9d006054:	00ae2824 254fffff 2de107fe 10200047     $(....O%...-G. .
9d006064:	00000000                                ....

9d006068 <Clab1>:
9d006068:	25afffff 	addiu	t7,t5,-1
9d00606c:	2de107fe 	sltiu	at,t7,2046
9d006070:	1020006f 	beqz	at,9d006230 <CspecB>
9d006074:	00000000 	nop

9d006078 <Clab2>:
9d006078:	25affc02 	addiu	t7,t5,-1022
9d00607c:	014f5021 	addu	t2,t2,t7
9d006080:	012c0019 	multu	t1,t4
9d006084:	00003812 	mflo	a3
9d006088:	00007010 	mfhi	t6
9d00608c:	010b0019 	multu	t0,t3
9d006090:	00002012 	mflo	a0
9d006094:	00003010 	mfhi	a2
9d006098:	012b0019 	multu	t1,t3
9d00609c:	00005812 	mflo	t3
9d0060a0:	00006810 	mfhi	t5
9d0060a4:	00cb3021 	addu	a2,a2,t3
9d0060a8:	00cb782b 	sltu	t7,a2,t3
9d0060ac:	00ed3821 	addu	a3,a3,t5
9d0060b0:	00ef3821 	addu	a3,a3,t7
9d0060b4:	10ed0002 	beq	a3,t5,9d0060c0 <L20>
9d0060b8:	00000000 	nop
9d0060bc:	00ed782b 	sltu	t7,a3,t5

9d0060c0 <L20>:
9d0060c0:	01cf7021 	addu	t6,t6,t7
9d0060c4:	010c0019 	multu	t0,t4
9d0060c8:	00004012 	mflo	t0
9d0060cc:	00004810 	mfhi	t1
9d0060d0:	00c83021 	addu	a2,a2,t0
9d0060d4:	00c8782b 	sltu	t7,a2,t0
9d0060d8:	00e93821 	addu	a3,a3,t1
9d0060dc:	00ef3821 	addu	a3,a3,t7
9d0060e0:	10e90002 	beq	a3,t1,9d0060ec <L21>
9d0060e4:	00000000 	nop
9d0060e8:	00e9782b 	sltu	t7,a3,t1

9d0060ec <L21>:
9d0060ec:	01cf7021 	addu	t6,t6,t7
9d0060f0:	00867825 	or	t7,a0,a2
9d0060f4:	11e00002 	beqz	t7,9d006100 <i13>
9d0060f8:	00000000 	nop
9d0060fc:	34e70001 	ori	a3,a3,0x1

9d006100 <i13>:
9d006100:	000e4825 	or	t1,zero,t6
9d006104:	05200006 	bltz	t1,9d006120 <i14>
9d006108:	00074025 	or	t0,zero,a3
9d00610c:	0100782a 	slt	t7,t0,zero
9d006110:	01084021 	addu	t0,t0,t0
9d006114:	01294821 	addu	t1,t1,t1
9d006118:	012f4821 	addu	t1,t1,t7
9d00611c:	254affff 	addiu	t2,t2,-1

9d006120 <i14>:
9d006120:	254fffff 	addiu	t7,t2,-1
9d006124:	2de107fe 	sltiu	at,t7,2046
9d006128:	10200068 	beqz	at,9d0062cc <Coveund>
9d00612c:	00000000 	nop
9d006130:	25080400 	addiu	t0,t0,1024
9d006134:	2d0f0400 	sltiu	t7,t0,1024
9d006138:	012f4821 	addu	t1,t1,t7
9d00613c:	012f782b 	sltu	t7,t1,t7
9d006140:	014f5021 	addu	t2,t2,t7

9d006144 <Clab8>:
9d006144:	00087ac2 	srl	t7,t0,0xb
9d006148:	31ef0001 	andi	t7,t7,0x1
9d00614c:	010f4023 	subu	t0,t0,t7
9d006150:	000822c2 	srl	a0,t0,0xb
9d006154:	00097d40 	sll	t7,t1,0x15
9d006158:	008f2025 	or	a0,a0,t7
9d00615c:	00097840 	sll	t7,t1,0x1
9d006160:	000f7b02 	srl	t7,t7,0xc
9d006164:	00af2825 	or	a1,a1,t7
9d006168:	000a7d00 	sll	t7,t2,0x14
9d00616c:	00af2825 	or	a1,a1,t7

9d006170 <Cret>:
9d006170:	00041025 	or	v0,zero,a0
9d006174:	00051825 	or	v1,zero,a1

9d006178 <C999>:
9d006178:	03e00008 	jr	ra
9d00617c:	00000000 	nop

9d006180 <CspecA>:
9d006180:	0100782a 	slt	t7,t0,zero
9d006184:	01084021 	addu	t0,t0,t0
9d006188:	01294821 	addu	t1,t1,t1
9d00618c:	1540001c 	bnez	t2,9d006200 <i15>
9d006190:	012f4821 	addu	t1,t1,t7
9d006194:	01287825 	or	t7,t1,t0
9d006198:	11e00014 	beqz	t7,9d0061ec <i16>
9d00619c:	00000000 	nop
9d0061a0:	15200008 	bnez	t1,9d0061c4 <L22>
9d0061a4:	00000000 	nop
9d0061a8:	15000003 	bnez	t0,9d0061b8 <L23>
9d0061ac:	00000000 	nop
9d0061b0:	1000ffad 	b	9d006068 <Clab1>
9d0061b4:	240a0000 	li	t2,0

9d0061b8 <L23>:
9d0061b8:	01004825 	move	t1,t0
9d0061bc:	24080000 	li	t0,0
9d0061c0:	254affe0 	addiu	t2,t2,-32

9d0061c4 <L22>:
9d0061c4:	712e7020 	clz	t6,t1
9d0061c8:	11c0ffa7 	beqz	t6,9d006068 <Clab1>
9d0061cc:	00000000 	nop
9d0061d0:	014e5023 	subu	t2,t2,t6
9d0061d4:	000e3822 	neg	a3,t6
9d0061d8:	00e83806 	srlv	a3,t0,a3
9d0061dc:	01c84004 	sllv	t0,t0,t6
9d0061e0:	01c94804 	sllv	t1,t1,t6
9d0061e4:	1000ffa0 	b	9d006068 <Clab1>
9d0061e8:	01274825 	or	t1,t1,a3

9d0061ec <i16>:
9d0061ec:	240107ff 	li	at,2047
9d0061f0:	11a10033 	beq	t5,at,9d0062c0 <Cnan>
9d0061f4:	00000000 	nop
9d0061f8:	1000ffdd 	b	9d006170 <Cret>
9d0061fc:	00000000 	nop

9d006200 <i15>:
9d006200:	01287825 	or	t7,t1,t0
9d006204:	15e0002e 	bnez	t7,9d0062c0 <Cnan>
9d006208:	00000000 	nop
9d00620c:	15a00005 	bnez	t5,9d006224 <i17>
9d006210:	00000000 	nop
9d006214:	000c7840 	sll	t7,t4,0x1
9d006218:	01eb7825 	or	t7,t7,t3
9d00621c:	11e00028 	beqz	t7,9d0062c0 <Cnan>
9d006220:	00000000 	nop

9d006224 <i17>:
9d006224:	240107ff 	li	at,2047
9d006228:	15a10021 	bne	t5,at,9d0062b0 <Cinf>
9d00622c:	00000000 	nop

9d006230 <CspecB>:
9d006230:	0160782a 	slt	t7,t3,zero
9d006234:	016b5821 	addu	t3,t3,t3
9d006238:	018c6021 	addu	t4,t4,t4
9d00623c:	15a00019 	bnez	t5,9d0062a4 <i18>
9d006240:	018f6021 	addu	t4,t4,t7
9d006244:	018b7825 	or	t7,t4,t3
9d006248:	11e00014 	beqz	t7,9d00629c <i19>
9d00624c:	00000000 	nop
9d006250:	15800008 	bnez	t4,9d006274 <L25>
9d006254:	00000000 	nop
9d006258:	15600003 	bnez	t3,9d006268 <L26>
9d00625c:	00000000 	nop
9d006260:	1000ff85 	b	9d006078 <Clab2>
9d006264:	240d0000 	li	t5,0

9d006268 <L26>:
9d006268:	01606025 	move	t4,t3
9d00626c:	240b0000 	li	t3,0
9d006270:	25adffe0 	addiu	t5,t5,-32

9d006274 <L25>:
9d006274:	71863020 	clz	a2,t4
9d006278:	10c0ff7f 	beqz	a2,9d006078 <Clab2>
9d00627c:	00000000 	nop
9d006280:	01a66823 	subu	t5,t5,a2
9d006284:	00067022 	neg	t6,a2
9d006288:	01cb7006 	srlv	t6,t3,t6
9d00628c:	00cb5804 	sllv	t3,t3,a2
9d006290:	00cc6004 	sllv	t4,t4,a2
9d006294:	1000ff78 	b	9d006078 <Clab2>
9d006298:	018e6025 	or	t4,t4,t6

9d00629c <i19>:
9d00629c:	1000ffb4 	b	9d006170 <Cret>
9d0062a0:	24040000 	li	a0,0

9d0062a4 <i18>:
9d0062a4:	018b7825 	or	t7,t4,t3
9d0062a8:	15e00005 	bnez	t7,9d0062c0 <Cnan>
9d0062ac:	00000000 	nop

9d0062b0 <Cinf>:
9d0062b0:	3c017ff0 	lui	at,0x7ff0
9d0062b4:	00a12825 	or	a1,a1,at
9d0062b8:	1000ffad 	b	9d006170 <Cret>
9d0062bc:	24040000 	li	a0,0

9d0062c0 <Cnan>:
9d0062c0:	3c05fff8 	lui	a1,0xfff8
9d0062c4:	1000ffaa 	b	9d006170 <Cret>
9d0062c8:	24040000 	li	a0,0

9d0062cc <Coveund>:
9d0062cc:	1d40fff8 	bgtz	t2,9d0062b0 <Cinf>
9d0062d0:	00000000 	nop
9d0062d4:	240e0001 	li	t6,1
9d0062d8:	01ca7023 	subu	t6,t6,t2

9d0062dc <L28>:
9d0062dc:	2dc10020 	sltiu	at,t6,32
9d0062e0:	14200007 	bnez	at,9d006300 <L29>
9d0062e4:	00000000 	nop
9d0062e8:	21ceffe0 	addi	t6,t6,-32
9d0062ec:	0008302b 	sltu	a2,zero,t0
9d0062f0:	1009000d 	beq	zero,t1,9d006328 <L30>
9d0062f4:	01264025 	or	t0,t1,a2
9d0062f8:	1000fff8 	b	9d0062dc <L28>
9d0062fc:	34090000 	li	t1,0x0

9d006300 <L29>:
9d006300:	11c00009 	beqz	t6,9d006328 <L30>
9d006304:	00000000 	nop
9d006308:	000e3822 	neg	a3,t6
9d00630c:	00e83004 	sllv	a2,t0,a3
9d006310:	00e93804 	sllv	a3,t1,a3
9d006314:	01c84006 	srlv	t0,t0,t6
9d006318:	01c94806 	srlv	t1,t1,t6
9d00631c:	10c00002 	beqz	a2,9d006328 <L30>
9d006320:	00e84025 	or	t0,a3,t0
9d006324:	35080002 	ori	t0,t0,0x2

9d006328 <L30>:
9d006328:	25080400 	addiu	t0,t0,1024
9d00632c:	2d0f0400 	sltiu	t7,t0,1024
9d006330:	012f4821 	addu	t1,t1,t7
9d006334:	1000ff83 	b	9d006144 <Clab8>
9d006338:	000957c2 	srl	t2,t1,0x1f
9d00633c:	00000000 	nop

Disassembly of section .text:

9d006340 <get_encoder_flag>:
char rx_message[MAX_RX_MESSAGE];
volatile int pos = 0;
volatile int newPosFlag = 0;

int get_encoder_flag(){
    return newPosFlag;
9d006340:	8f828054 	lw	v0,-32684(gp)
}
9d006344:	03e00008 	jr	ra
9d006348:	00000000 	nop

9d00634c <set_encoder_flag>:

void set_encoder_flag(int f){
    newPosFlag = f;
9d00634c:	af848054 	sw	a0,-32684(gp)
}
9d006350:	03e00008 	jr	ra
9d006354:	00000000 	nop

9d006358 <get_encoder_count>:

int get_encoder_count(){
    return pos;
9d006358:	8f828058 	lw	v0,-32680(gp)
}
9d00635c:	03e00008 	jr	ra
9d006360:	00000000 	nop

9d006364 <U2ISR>:

void __ISR(_UART_2_VECTOR, IPL5SOFT) U2ISR(void) { 
9d006364:	415de800 	rdpgpr	sp,sp
9d006368:	401a7000 	mfc0	k0,c0_epc
9d00636c:	401b6000 	mfc0	k1,c0_status
9d006370:	27bdff90 	addiu	sp,sp,-112
9d006374:	afba006c 	sw	k0,108(sp)
9d006378:	401a6002 	mfc0	k0,c0_srsctl
9d00637c:	afbb0068 	sw	k1,104(sp)
9d006380:	afba0064 	sw	k0,100(sp)
9d006384:	7c1b7844 	ins	k1,zero,0x1,0xf
9d006388:	377b1400 	ori	k1,k1,0x1400
9d00638c:	409b6000 	mtc0	k1,c0_status
9d006390:	afbf0054 	sw	ra,84(sp)
9d006394:	afb90050 	sw	t9,80(sp)
9d006398:	afb8004c 	sw	t8,76(sp)
9d00639c:	afaf0048 	sw	t7,72(sp)
9d0063a0:	afae0044 	sw	t6,68(sp)
9d0063a4:	afad0040 	sw	t5,64(sp)
9d0063a8:	afac003c 	sw	t4,60(sp)
9d0063ac:	afab0038 	sw	t3,56(sp)
9d0063b0:	afaa0034 	sw	t2,52(sp)
9d0063b4:	afa90030 	sw	t1,48(sp)
9d0063b8:	afa8002c 	sw	t0,44(sp)
9d0063bc:	afa70028 	sw	a3,40(sp)
9d0063c0:	afa60024 	sw	a2,36(sp)
9d0063c4:	afa50020 	sw	a1,32(sp)
9d0063c8:	afa4001c 	sw	a0,28(sp)
9d0063cc:	afa30018 	sw	v1,24(sp)
9d0063d0:	afa20014 	sw	v0,20(sp)
9d0063d4:	afa10010 	sw	at,16(sp)
9d0063d8:	00001012 	mflo	v0
9d0063dc:	afa2005c 	sw	v0,92(sp)
9d0063e0:	00001810 	mfhi	v1
9d0063e4:	afa30058 	sw	v1,88(sp)
  char data = U2RXREG; // read the data
9d0063e8:	3c02bf80 	lui	v0,0xbf80
9d0063ec:	8c426830 	lw	v0,26672(v0)
9d0063f0:	7c021420 	seb	v0,v0
  if (data == '\n') {
9d0063f4:	2403000a 	li	v1,10
9d0063f8:	10430032 	beq	v0,v1,9d0064c4 <U2ISR+0x160>
9d0063fc:	00000000 	nop
    sscanf(rx_message,"%d",&pos);
    newPosFlag = 1;
    rx_num_bytes = 0;
  } 
  else {
    rx_message[rx_num_bytes] = data;
9d006400:	8f83805c 	lw	v1,-32676(gp)
9d006404:	3c04a000 	lui	a0,0xa000
9d006408:	24840094 	addiu	a0,a0,148
9d00640c:	00641821 	addu	v1,v1,a0
9d006410:	a0620000 	sb	v0,0(v1)
    ++rx_num_bytes;
9d006414:	8f82805c 	lw	v0,-32676(gp)
9d006418:	24420001 	addiu	v0,v0,1
9d00641c:	af82805c 	sw	v0,-32676(gp)
    // roll over if the array is too small
    if (rx_num_bytes >= MAX_RX_MESSAGE) {
9d006420:	8f82805c 	lw	v0,-32676(gp)
9d006424:	28420064 	slti	v0,v0,100
9d006428:	50400001 	beqzl	v0,9d006430 <U2ISR+0xcc>
9d00642c:	af80805c 	sw	zero,-32676(gp)
      rx_num_bytes = 0;
    }
  }
  IFS1bits.U2RXIF = 0;
9d006430:	3c02bf88 	lui	v0,0xbf88
9d006434:	8c431040 	lw	v1,4160(v0)
9d006438:	7c034a44 	ins	v1,zero,0x9,0x1
9d00643c:	ac431040 	sw	v1,4160(v0)
}
9d006440:	8fa2005c 	lw	v0,92(sp)
9d006444:	00400013 	mtlo	v0
9d006448:	8fa30058 	lw	v1,88(sp)
9d00644c:	00600011 	mthi	v1
9d006450:	8fbf0054 	lw	ra,84(sp)
9d006454:	8fb90050 	lw	t9,80(sp)
9d006458:	8fb8004c 	lw	t8,76(sp)
9d00645c:	8faf0048 	lw	t7,72(sp)
9d006460:	8fae0044 	lw	t6,68(sp)
9d006464:	8fad0040 	lw	t5,64(sp)
9d006468:	8fac003c 	lw	t4,60(sp)
9d00646c:	8fab0038 	lw	t3,56(sp)
9d006470:	8faa0034 	lw	t2,52(sp)
9d006474:	8fa90030 	lw	t1,48(sp)
9d006478:	8fa8002c 	lw	t0,44(sp)
9d00647c:	8fa70028 	lw	a3,40(sp)
9d006480:	8fa60024 	lw	a2,36(sp)
9d006484:	8fa50020 	lw	a1,32(sp)
9d006488:	8fa4001c 	lw	a0,28(sp)
9d00648c:	8fa30018 	lw	v1,24(sp)
9d006490:	8fa20014 	lw	v0,20(sp)
9d006494:	8fa10010 	lw	at,16(sp)
9d006498:	41606000 	di
9d00649c:	000000c0 	ehb
9d0064a0:	8fba006c 	lw	k0,108(sp)
9d0064a4:	8fbb0068 	lw	k1,104(sp)
9d0064a8:	409a7000 	mtc0	k0,c0_epc
9d0064ac:	8fba0064 	lw	k0,100(sp)
9d0064b0:	27bd0070 	addiu	sp,sp,112
9d0064b4:	409a6002 	mtc0	k0,c0_srsctl
9d0064b8:	41dde800 	wrpgpr	sp,sp
9d0064bc:	409b6000 	mtc0	k1,c0_status
9d0064c0:	42000018 	eret
    rx_message[rx_num_bytes] = '\0';
9d0064c4:	8f82805c 	lw	v0,-32676(gp)
9d0064c8:	3c04a000 	lui	a0,0xa000
9d0064cc:	24840094 	addiu	a0,a0,148
9d0064d0:	00441021 	addu	v0,v0,a0
9d0064d4:	a0400000 	sb	zero,0(v0)
    sscanf(rx_message,"%d",&pos);
9d0064d8:	27868058 	addiu	a2,gp,-32680
9d0064dc:	3c059d00 	lui	a1,0x9d00
9d0064e0:	0f40254e 	jal	9d009538 <_sscanf_cdnopuxX>
9d0064e4:	24a51ee8 	addiu	a1,a1,7912
    newPosFlag = 1;
9d0064e8:	24020001 	li	v0,1
9d0064ec:	af828054 	sw	v0,-32684(gp)
    rx_num_bytes = 0;
9d0064f0:	af80805c 	sw	zero,-32676(gp)
9d0064f4:	1000ffcf 	b	9d006434 <U2ISR+0xd0>
9d0064f8:	3c02bf88 	lui	v0,0xbf88

9d0064fc <WriteUART2>:

// Write a character array using UART2
void WriteUART2(const char * string) {
  while (*string != '\0') {
9d0064fc:	80850000 	lb	a1,0(a0)
9d006500:	10a0000c 	beqz	a1,9d006534 <WriteUART2+0x38>
9d006504:	00000000 	nop
    while (U2STAbits.UTXBF) {
9d006508:	3c03bf80 	lui	v1,0xbf80
      ; // wait until tx buffer isn't full
    }
    U2TXREG = *string;
9d00650c:	3c06bf80 	lui	a2,0xbf80
    while (U2STAbits.UTXBF) {
9d006510:	8c626810 	lw	v0,26640(v1)
9d006514:	7c420240 	ext	v0,v0,0x9,0x1
9d006518:	1440fffd 	bnez	v0,9d006510 <WriteUART2+0x14>
9d00651c:	00000000 	nop
    U2TXREG = *string;
9d006520:	acc56820 	sw	a1,26656(a2)
    ++string;
9d006524:	24840001 	addiu	a0,a0,1
  while (*string != '\0') {
9d006528:	80850000 	lb	a1,0(a0)
9d00652c:	14a0fff8 	bnez	a1,9d006510 <WriteUART2+0x14>
9d006530:	00000000 	nop
  }
}
9d006534:	03e00008 	jr	ra
9d006538:	00000000 	nop

9d00653c <UART2_Startup>:

//  Initialize the serial port - UART2 
void UART2_Startup() {
9d00653c:	27bdfff8 	addiu	sp,sp,-8
9d006540:	afbf0004 	sw	ra,4(sp)
  // disable interrupts
  __builtin_disable_interrupts();
9d006544:	41626000 	di	v0
9d006548:	000000c0 	ehb

  // turn on UART2 with interrupt on RX
  U2MODEbits.BRGH = 0; // set baud to NU32_DESIRED_BAUD
9d00654c:	3c02bf80 	lui	v0,0xbf80
9d006550:	94436800 	lhu	v1,26624(v0)
9d006554:	7c0318c4 	ins	v1,zero,0x3,0x1
9d006558:	a4436800 	sh	v1,26624(v0)
  U2BRG = ((NU32_SYS_FREQ / UART2_DESIRED_BAUD) / 16) - 1;
9d00655c:	3c03bf80 	lui	v1,0xbf80
9d006560:	24040014 	li	a0,20
9d006564:	ac646840 	sw	a0,26688(v1)

  // 8 bit, no parity bit, and 1 stop bit (8N1 setup)
  U2MODEbits.PDSEL = 0;
9d006568:	94436800 	lhu	v1,26624(v0)
9d00656c:	7c031044 	ins	v1,zero,0x1,0x2
9d006570:	a4436800 	sh	v1,26624(v0)
  U2MODEbits.STSEL = 0;
9d006574:	94436800 	lhu	v1,26624(v0)
9d006578:	7c030004 	ins	v1,zero,0x0,0x1
9d00657c:	a4436800 	sh	v1,26624(v0)

  // configure TX & RX pins as output & input pins
  U2STAbits.UTXEN = 1;
9d006580:	3c03bf80 	lui	v1,0xbf80
9d006584:	8c656810 	lw	a1,26640(v1)
9d006588:	24040001 	li	a0,1
9d00658c:	7c855284 	ins	a1,a0,0xa,0x1
9d006590:	ac656810 	sw	a1,26640(v1)
  U2STAbits.URXEN = 1;
9d006594:	8c656810 	lw	a1,26640(v1)
9d006598:	7c856304 	ins	a1,a0,0xc,0x1
9d00659c:	ac656810 	sw	a1,26640(v1)

  U2STAbits.URXISEL = 0; // interrupt when a char is rcvd
9d0065a0:	8c656810 	lw	a1,26640(v1)
9d0065a4:	7c053984 	ins	a1,zero,0x6,0x2
9d0065a8:	ac656810 	sw	a1,26640(v1)
  IPC8bits.U2IP = 5;
9d0065ac:	3c03bf88 	lui	v1,0xbf88
9d0065b0:	8c651110 	lw	a1,4368(v1)
9d0065b4:	24060005 	li	a2,5
9d0065b8:	7cc52084 	ins	a1,a2,0x2,0x3
9d0065bc:	ac651110 	sw	a1,4368(v1)
  IPC8bits.U2IS = 0;
9d0065c0:	8c651110 	lw	a1,4368(v1)
9d0065c4:	7c050804 	ins	a1,zero,0x0,0x2
9d0065c8:	ac651110 	sw	a1,4368(v1)
  IFS1bits.U2RXIF = 0;
9d0065cc:	3c03bf88 	lui	v1,0xbf88
9d0065d0:	8c651040 	lw	a1,4160(v1)
9d0065d4:	7c054a44 	ins	a1,zero,0x9,0x1
9d0065d8:	ac651040 	sw	a1,4160(v1)
  IEC1bits.U2RXIE = 1;
9d0065dc:	3c03bf88 	lui	v1,0xbf88
9d0065e0:	8c651070 	lw	a1,4208(v1)
9d0065e4:	7c854a44 	ins	a1,a0,0x9,0x1
9d0065e8:	ac651070 	sw	a1,4208(v1)

  // enable the uart
  U2MODEbits.ON = 1;
9d0065ec:	94436800 	lhu	v1,26624(v0)
9d0065f0:	7c837bc4 	ins	v1,a0,0xf,0x1
9d0065f4:	a4436800 	sh	v1,26624(v0)

  __builtin_enable_interrupts();
9d0065f8:	41626020 	ei	v0
}
9d0065fc:	8fbf0004 	lw	ra,4(sp)
9d006600:	03e00008 	jr	ra
9d006604:	27bd0008 	addiu	sp,sp,8

Disassembly of section .text.strtoll:

9d006608 <strtoll>:
9d006608:	27bdffd0 	addiu	sp,sp,-48
9d00660c:	3c039d01 	lui	v1,0x9d01
9d006610:	afb50024 	sw	s5,36(sp)
9d006614:	afb40020 	sw	s4,32(sp)
9d006618:	afb20018 	sw	s2,24(sp)
9d00661c:	afb00010 	sw	s0,16(sp)
9d006620:	afbf002c 	sw	ra,44(sp)
9d006624:	afb60028 	sw	s6,40(sp)
9d006628:	afb3001c 	sw	s3,28(sp)
9d00662c:	afb10014 	sw	s1,20(sp)
9d006630:	0080a025 	move	s4,a0
9d006634:	00a0a825 	move	s5,a1
9d006638:	00c09025 	move	s2,a2
9d00663c:	00808025 	move	s0,a0
9d006640:	2463864d 	addiu	v1,v1,-31155
9d006644:	82110000 	lb	s1,0(s0)
9d006648:	1220000f 	beqz	s1,9d006688 <strtoll+0x80>
9d00664c:	00000000 	nop
9d006650:	02231021 	addu	v0,s1,v1
9d006654:	80420000 	lb	v0,0(v0)
9d006658:	30420088 	andi	v0,v0,0x88
9d00665c:	5440fff9 	bnezl	v0,9d006644 <strtoll+0x3c>
9d006660:	26100001 	addiu	s0,s0,1
9d006664:	2402002b 	li	v0,43
9d006668:	52220005 	beql	s1,v0,9d006680 <strtoll+0x78>
9d00666c:	3a31002d 	xori	s1,s1,0x2d
9d006670:	2402002d 	li	v0,45
9d006674:	56220004 	bnel	s1,v0,9d006688 <strtoll+0x80>
9d006678:	00008825 	move	s1,zero
9d00667c:	3a31002d 	xori	s1,s1,0x2d
9d006680:	2e310001 	sltiu	s1,s1,1
9d006684:	26100001 	addiu	s0,s0,1
9d006688:	1640003e 	bnez	s2,9d006784 <strtoll+0x17c>
9d00668c:	82020000 	lb	v0,0(s0)
9d006690:	24030030 	li	v1,48
9d006694:	14430049 	bne	v0,v1,9d0067bc <strtoll+0x1b4>
9d006698:	00009825 	move	s3,zero
9d00669c:	82020001 	lb	v0,1(s0)
9d0066a0:	24030058 	li	v1,88
9d0066a4:	7c022944 	ins	v0,zero,0x5,0x1
9d0066a8:	50430033 	beql	v0,v1,9d006778 <strtoll+0x170>
9d0066ac:	26100002 	addiu	s0,s0,2
9d0066b0:	26100001 	addiu	s0,s0,1
9d0066b4:	24130001 	li	s3,1
9d0066b8:	24120008 	li	s2,8
9d0066bc:	0012b7c3 	sra	s6,s2,0x1f
9d0066c0:	3c057fff 	lui	a1,0x7fff
9d0066c4:	02403025 	move	a2,s2
9d0066c8:	02c03825 	move	a3,s6
9d0066cc:	2404ffff 	li	a0,-1
9d0066d0:	0f4011f7 	jal	9d0047dc <__divdi3>
9d0066d4:	34a5ffff 	ori	a1,a1,0xffff
9d0066d8:	3c099d01 	lui	t1,0x9d01
9d0066dc:	3c0a7fff 	lui	t2,0x7fff
9d0066e0:	00404025 	move	t0,v0
9d0066e4:	00603825 	move	a3,v1
9d0066e8:	2610ffff 	addiu	s0,s0,-1
9d0066ec:	00003025 	move	a2,zero
9d0066f0:	00001025 	move	v0,zero
9d0066f4:	00001825 	move	v1,zero
9d0066f8:	2529864d 	addiu	t1,t1,-31155
9d0066fc:	240b0041 	li	t3,65
9d006700:	240c0061 	li	t4,97
9d006704:	354affff 	ori	t2,t2,0xffff
9d006708:	26100001 	addiu	s0,s0,1
9d00670c:	82040000 	lb	a0,0(s0)
9d006710:	5480002c 	bnezl	a0,9d0067c4 <strtoll+0x1bc>
9d006714:	00892821 	addu	a1,a0,t1
9d006718:	1220005e 	beqz	s1,9d006894 <strtoll+0x28c>
9d00671c:	00000000 	nop
9d006720:	54c0005f 	bnezl	a2,9d0068a0 <strtoll+0x298>
9d006724:	3c02a000 	lui	v0,0xa000
9d006728:	00022023 	negu	a0,v0
9d00672c:	0004282b 	sltu	a1,zero,a0
9d006730:	00033023 	negu	a2,v1
9d006734:	00801025 	move	v0,a0
9d006738:	00c51823 	subu	v1,a2,a1
9d00673c:	12a00002 	beqz	s5,9d006748 <strtoll+0x140>
9d006740:	0213a00b 	movn	s4,s0,s3
9d006744:	aeb40000 	sw	s4,0(s5)
9d006748:	8fbf002c 	lw	ra,44(sp)
9d00674c:	8fb60028 	lw	s6,40(sp)
9d006750:	8fb50024 	lw	s5,36(sp)
9d006754:	8fb40020 	lw	s4,32(sp)
9d006758:	8fb3001c 	lw	s3,28(sp)
9d00675c:	8fb20018 	lw	s2,24(sp)
9d006760:	8fb10014 	lw	s1,20(sp)
9d006764:	8fb00010 	lw	s0,16(sp)
9d006768:	03e00008 	jr	ra
9d00676c:	27bd0030 	addiu	sp,sp,48
9d006770:	1000ffc5 	b	9d006688 <strtoll+0x80>
9d006774:	00008825 	move	s1,zero
9d006778:	24130001 	li	s3,1
9d00677c:	1000ffcf 	b	9d0066bc <strtoll+0xb4>
9d006780:	24120010 	li	s2,16
9d006784:	24030010 	li	v1,16
9d006788:	1643ffcc 	bne	s2,v1,9d0066bc <strtoll+0xb4>
9d00678c:	00009825 	move	s3,zero
9d006790:	24030030 	li	v1,48
9d006794:	1443ffca 	bne	v0,v1,9d0066c0 <strtoll+0xb8>
9d006798:	0012b7c3 	sra	s6,s2,0x1f
9d00679c:	82020001 	lb	v0,1(s0)
9d0067a0:	24030058 	li	v1,88
9d0067a4:	7c022944 	ins	v0,zero,0x5,0x1
9d0067a8:	50430002 	beql	v0,v1,9d0067b4 <strtoll+0x1ac>
9d0067ac:	26100002 	addiu	s0,s0,2
9d0067b0:	26100001 	addiu	s0,s0,1
9d0067b4:	1000ffc1 	b	9d0066bc <strtoll+0xb4>
9d0067b8:	24130001 	li	s3,1
9d0067bc:	1000ffbf 	b	9d0066bc <strtoll+0xb4>
9d0067c0:	2412000a 	li	s2,10
9d0067c4:	90a50000 	lbu	a1,0(a1)
9d0067c8:	30ad0004 	andi	t5,a1,0x4
9d0067cc:	11a00028 	beqz	t5,9d006870 <strtoll+0x268>
9d0067d0:	30ad0003 	andi	t5,a1,0x3
9d0067d4:	2484ffd0 	addiu	a0,a0,-48
9d0067d8:	0480ffcf 	bltz	a0,9d006718 <strtoll+0x110>
9d0067dc:	00000000 	nop
9d0067e0:	0092282a 	slt	a1,a0,s2
9d0067e4:	10a0ffcc 	beqz	a1,9d006718 <strtoll+0x110>
9d0067e8:	00000000 	nop
9d0067ec:	00e3282a 	slt	a1,a3,v1
9d0067f0:	54a0001d 	bnezl	a1,9d006868 <strtoll+0x260>
9d0067f4:	24060001 	li	a2,1
9d0067f8:	14670003 	bne	v1,a3,9d006808 <strtoll+0x200>
9d0067fc:	0102282b 	sltu	a1,t0,v0
9d006800:	54a00019 	bnezl	a1,9d006868 <strtoll+0x260>
9d006804:	24060001 	li	a2,1
9d006808:	54c0ffbf 	bnezl	a2,9d006708 <strtoll+0x100>
9d00680c:	24130001 	li	s3,1
9d006810:	02c20018 	mult	s6,v0
9d006814:	72430000 	madd	s2,v1
9d006818:	00002812 	mflo	a1
9d00681c:	00520019 	multu	v0,s2
9d006820:	00001810 	mfhi	v1
9d006824:	00a31821 	addu	v1,a1,v1
9d006828:	01437023 	subu	t6,t2,v1
9d00682c:	00042fc3 	sra	a1,a0,0x1f
9d006830:	00001012 	mflo	v0
9d006834:	01c5782a 	slt	t7,t6,a1
9d006838:	15e00014 	bnez	t7,9d00688c <strtoll+0x284>
9d00683c:	00026827 	nor	t5,zero,v0
9d006840:	54ae0005 	bnel	a1,t6,9d006858 <strtoll+0x250>
9d006844:	00822021 	addu	a0,a0,v0
9d006848:	01a4682b 	sltu	t5,t5,a0
9d00684c:	55a00006 	bnezl	t5,9d006868 <strtoll+0x260>
9d006850:	24060001 	li	a2,1
9d006854:	00822021 	addu	a0,a0,v0
9d006858:	0082682b 	sltu	t5,a0,v0
9d00685c:	00652821 	addu	a1,v1,a1
9d006860:	00801025 	move	v0,a0
9d006864:	01a51821 	addu	v1,t5,a1
9d006868:	1000ffa7 	b	9d006708 <strtoll+0x100>
9d00686c:	24130001 	li	s3,1
9d006870:	11a0ffa9 	beqz	t5,9d006718 <strtoll+0x110>
9d006874:	01806825 	move	t5,t4
9d006878:	30a50001 	andi	a1,a1,0x1
9d00687c:	0165680b 	movn	t5,t3,a1
9d006880:	008d2023 	subu	a0,a0,t5
9d006884:	1000ffd4 	b	9d0067d8 <strtoll+0x1d0>
9d006888:	2484000a 	addiu	a0,a0,10
9d00688c:	1000fff6 	b	9d006868 <strtoll+0x260>
9d006890:	24060001 	li	a2,1
9d006894:	10c0ffa9 	beqz	a2,9d00673c <strtoll+0x134>
9d006898:	00000000 	nop
9d00689c:	3c02a000 	lui	v0,0xa000
9d0068a0:	24030022 	li	v1,34
9d0068a4:	ac430088 	sw	v1,136(v0)
9d0068a8:	00001025 	move	v0,zero
9d0068ac:	1620ffa3 	bnez	s1,9d00673c <strtoll+0x134>
9d0068b0:	3c038000 	lui	v1,0x8000
9d0068b4:	3c037fff 	lui	v1,0x7fff
9d0068b8:	2402ffff 	li	v0,-1
9d0068bc:	1000ff9f 	b	9d00673c <strtoll+0x134>
9d0068c0:	3463ffff 	ori	v1,v1,0xffff

Disassembly of section .text.fpsubadd:

9d0068c4 <__subsf3>:
9d0068c4:	3c018000 00a12826                       ...<&(..

9d0068cc <__addsf3>:
9d0068cc:	00044dc2 312900ff 00055dc2 316b00ff     .M....)1.]....k1
9d0068dc:	3c078000 00044200 01074025 00055200     ...<.B..%@...R..
9d0068ec:	01475025 252dffff 2da100fe 10200061     %PG...-%...-a. .
9d0068fc:	00000000                                ....

9d006900 <Blab1>:
9d006900:	256dffff 	addiu	t5,t3,-1
9d006904:	2da100fe 	sltiu	at,t5,254
9d006908:	10200077 	beqz	at,9d006ae8 <BspecB>
9d00690c:	00000000 	nop

9d006910 <Blab2>:
9d006910:	012b6023 	subu	t4,t1,t3
9d006914:	0580000d 	bltz	t4,9d00694c <i1>
9d006918:	00000000 	nop
9d00691c:	29810020 	slti	at,t4,32
9d006920:	14200003 	bnez	at,9d006930 <i2>
9d006924:	00000000 	nop
9d006928:	10000015 	b	9d006980 <e1>
9d00692c:	240a0002 	li	t2,2

9d006930 <i2>:
9d006930:	000a3025 	or	a2,zero,t2
9d006934:	018a5006 	srlv	t2,t2,t4
9d006938:	018a6804 	sllv	t5,t2,t4
9d00693c:	11a60010 	beq	t5,a2,9d006980 <e1>
9d006940:	00000000 	nop
9d006944:	1000000e 	b	9d006980 <e1>
9d006948:	354a0002 	ori	t2,t2,0x2

9d00694c <i1>:
9d00694c:	000b4825 	or	t1,zero,t3
9d006950:	000c6023 	negu	t4,t4
9d006954:	29810020 	slti	at,t4,32
9d006958:	14200003 	bnez	at,9d006968 <i4>
9d00695c:	00000000 	nop
9d006960:	10000007 	b	9d006980 <e1>
9d006964:	24080002 	li	t0,2

9d006968 <i4>:
9d006968:	00083025 	or	a2,zero,t0
9d00696c:	01884006 	srlv	t0,t0,t4
9d006970:	01886804 	sllv	t5,t0,t4
9d006974:	11a60002 	beq	t5,a2,9d006980 <e1>
9d006978:	00000000 	nop
9d00697c:	35080002 	ori	t0,t0,0x2

9d006980 <e1>:
9d006980:	00876024 	and	t4,a0,a3
9d006984:	01856826 	xor	t5,t4,a1
9d006988:	05a00010 	bltz	t5,9d0069cc <Bsub1>
9d00698c:	00000000 	nop
9d006990:	010a4021 	addu	t0,t0,t2
9d006994:	010a682b 	sltu	t5,t0,t2
9d006998:	11a00017 	beqz	t5,9d0069f8 <Bres>
9d00699c:	00000000 	nop
9d0069a0:	310d0001 	andi	t5,t0,0x1
9d0069a4:	11a00002 	beqz	t5,9d0069b0 <i7>
9d0069a8:	00000000 	nop
9d0069ac:	35080002 	ori	t0,t0,0x2

9d0069b0 <i7>:
9d0069b0:	00084042 	srl	t0,t0,0x1
9d0069b4:	25290001 	addiu	t1,t1,1
9d0069b8:	240100ff 	li	at,255
9d0069bc:	1521000e 	bne	t1,at,9d0069f8 <Bres>
9d0069c0:	00000000 	nop
9d0069c4:	1000000c 	b	9d0069f8 <Bres>
9d0069c8:	24080000 	li	t0,0

9d0069cc <Bsub1>:
9d0069cc:	010a682b 	sltu	t5,t0,t2
9d0069d0:	11a00004 	beqz	t5,9d0069e4 <i9>
9d0069d4:	010a4023 	subu	t0,t0,t2
9d0069d8:	00084023 	negu	t0,t0
9d0069dc:	10000003 	b	9d0069ec <e9>
9d0069e0:	01876026 	xor	t4,t4,a3

9d0069e4 <i9>:
9d0069e4:	11000050 	beqz	t0,9d006b28 <Bzer>
9d0069e8:	00000000 	nop

9d0069ec <e9>:
9d0069ec:	71063020 	clz	a2,t0
9d0069f0:	01264823 	subu	t1,t1,a2
9d0069f4:	00c84004 	sllv	t0,t0,a2

9d0069f8 <Bres>:
9d0069f8:	1920000e 	blez	t1,9d006a34 <Bund>
9d0069fc:	00000000 	nop

9d006a00 <Blab12>:
9d006a00:	25080080 	addiu	t0,t0,128
9d006a04:	2d0d0080 	sltiu	t5,t0,128
9d006a08:	012d4821 	addu	t1,t1,t5
9d006a0c:	00086a02 	srl	t5,t0,0x8
9d006a10:	31ad0001 	andi	t5,t5,0x1
9d006a14:	010d4023 	subu	t0,t0,t5
9d006a18:	00084040 	sll	t0,t0,0x1
9d006a1c:	00084242 	srl	t0,t0,0x9
9d006a20:	00096dc0 	sll	t5,t1,0x17
9d006a24:	010d4025 	or	t0,t0,t5
9d006a28:	010c1025 	or	v0,t0,t4

9d006a2c <B999>:
9d006a2c:	03e00008 	jr	ra
9d006a30:	00000000 	nop

9d006a34 <Bund>:
9d006a34:	24060001 	li	a2,1
9d006a38:	00c93023 	subu	a2,a2,t1
9d006a3c:	2cc10020 	sltiu	at,a2,32
9d006a40:	10200039 	beqz	at,9d006b28 <Bzer>
9d006a44:	00000000 	nop
9d006a48:	3c018000 	lui	at,0x8000
9d006a4c:	01014025 	or	t0,t0,at
9d006a50:	240d0020 	li	t5,32
9d006a54:	01a66823 	subu	t5,t5,a2
9d006a58:	01a84804 	sllv	t1,t0,t5
9d006a5c:	11200002 	beqz	t1,9d006a68 <i10>
9d006a60:	00c84006 	srlv	t0,t0,a2
9d006a64:	35080001 	ori	t0,t0,0x1

9d006a68 <i10>:
9d006a68:	24090000 	li	t1,0
9d006a6c:	250d0080 	addiu	t5,t0,128
9d006a70:	05a1ffe3 	bgez	t5,9d006a00 <Blab12>
9d006a74:	00000000 	nop
9d006a78:	1000ffe1 	b	9d006a00 <Blab12>
9d006a7c:	24090001 	li	t1,1

9d006a80 <BspecA>:
9d006a80:	1520000e 	bnez	t1,9d006abc <i12>
9d006a84:	00000000 	nop
9d006a88:	01084021 	addu	t0,t0,t0
9d006a8c:	11000005 	beqz	t0,9d006aa4 <i13>
9d006a90:	00000000 	nop
9d006a94:	710c6020 	clz	t4,t0
9d006a98:	012c4823 	subu	t1,t1,t4
9d006a9c:	1000ff98 	b	9d006900 <Blab1>
9d006aa0:	01884004 	sllv	t0,t0,t4

9d006aa4 <i13>:
9d006aa4:	240100ff 	li	at,255
9d006aa8:	1161000f 	beq	t3,at,9d006ae8 <BspecB>
9d006aac:	00000000 	nop
9d006ab0:	3c018000 	lui	at,0x8000
9d006ab4:	14a10018 	bne	a1,at,9d006b18 <BretB>
9d006ab8:	00000000 	nop

9d006abc <i12>:
9d006abc:	01086821 	addu	t5,t0,t0
9d006ac0:	15a0001b 	bnez	t5,9d006b30 <Bnan>
9d006ac4:	00000000 	nop
9d006ac8:	240100ff 	li	at,255
9d006acc:	15610014 	bne	t3,at,9d006b20 <BretA>
9d006ad0:	00000000 	nop
9d006ad4:	00856826 	xor	t5,a0,a1
9d006ad8:	05a00015 	bltz	t5,9d006b30 <Bnan>
9d006adc:	00000000 	nop
9d006ae0:	1000000d 	b	9d006b18 <BretB>
9d006ae4:	00000000 	nop

9d006ae8 <BspecB>:
9d006ae8:	15600008 	bnez	t3,9d006b0c <i15>
9d006aec:	00000000 	nop
9d006af0:	014a5021 	addu	t2,t2,t2
9d006af4:	1140000a 	beqz	t2,9d006b20 <BretA>
9d006af8:	00000000 	nop
9d006afc:	714c6020 	clz	t4,t2
9d006b00:	016c5823 	subu	t3,t3,t4
9d006b04:	1000ff82 	b	9d006910 <Blab2>
9d006b08:	018a5004 	sllv	t2,t2,t4

9d006b0c <i15>:
9d006b0c:	014a6821 	addu	t5,t2,t2
9d006b10:	15a00007 	bnez	t5,9d006b30 <Bnan>
9d006b14:	00000000 	nop

9d006b18 <BretB>:
9d006b18:	1000ffc4 	b	9d006a2c <B999>
9d006b1c:	00051025 	or	v0,zero,a1

9d006b20 <BretA>:
9d006b20:	1000ffc2 	b	9d006a2c <B999>
9d006b24:	00041025 	or	v0,zero,a0

9d006b28 <Bzer>:
9d006b28:	1000ffc0 	b	9d006a2c <B999>
9d006b2c:	24020000 	li	v0,0

9d006b30 <Bnan>:
9d006b30:	1000ffbe 	b	9d006a2c <B999>
9d006b34:	3c02ffc0 	lui	v0,0xffc0
9d006b38:	00000000 	nop

Disassembly of section .text.free:

9d006b3c <free>:
9d006b3c:	10800097 	beqz	a0,9d006d9c <free+0x260>
9d006b40:	00000000 	nop
9d006b44:	8c88fffc 	lw	t0,-4(a0)
9d006b48:	2485fff8 	addiu	a1,a0,-8
9d006b4c:	01001025 	move	v0,t0
9d006b50:	7c020004 	ins	v0,zero,0x0,0x1
9d006b54:	00a23821 	addu	a3,a1,v0
9d006b58:	8ce30004 	lw	v1,4(a3)
9d006b5c:	30660001 	andi	a2,v1,0x1
9d006b60:	10c0008e 	beqz	a2,9d006d9c <free+0x260>
9d006b64:	3c06a000 	lui	a2,0xa000
9d006b68:	24c60100 	addiu	a2,a2,256
9d006b6c:	8cc90008 	lw	t1,8(a2)
9d006b70:	7c030804 	ins	v1,zero,0x0,0x2
9d006b74:	14e9001a 	bne	a3,t1,9d006be0 <free+0xa4>
9d006b78:	31080001 	andi	t0,t0,0x1
9d006b7c:	15000008 	bnez	t0,9d006ba0 <free+0x64>
9d006b80:	00431021 	addu	v0,v0,v1
9d006b84:	8c83fff8 	lw	v1,-8(a0)
9d006b88:	00a32823 	subu	a1,a1,v1
9d006b8c:	8ca40008 	lw	a0,8(a1)
9d006b90:	00431021 	addu	v0,v0,v1
9d006b94:	8ca3000c 	lw	v1,12(a1)
9d006b98:	ac83000c 	sw	v1,12(a0)
9d006b9c:	ac640008 	sw	a0,8(v1)
9d006ba0:	34430001 	ori	v1,v0,0x1
9d006ba4:	aca30004 	sw	v1,4(a1)
9d006ba8:	3c03a000 	lui	v1,0xa000
9d006bac:	8c6300fc 	lw	v1,252(v1)
9d006bb0:	0043102b 	sltu	v0,v0,v1
9d006bb4:	14400079 	bnez	v0,9d006d9c <free+0x260>
9d006bb8:	acc50008 	sw	a1,8(a2)
9d006bbc:	3c02a000 	lui	v0,0xa000
9d006bc0:	8c440694 	lw	a0,1684(v0)
9d006bc4:	27bdffe8 	addiu	sp,sp,-24
9d006bc8:	afbf0014 	sw	ra,20(sp)
9d006bcc:	0f4021d4 	jal	9d008750 <malloc_trim>
9d006bd0:	00000000 	nop
9d006bd4:	8fbf0014 	lw	ra,20(sp)
9d006bd8:	03e00008 	jr	ra
9d006bdc:	27bd0018 	addiu	sp,sp,24
9d006be0:	ace30004 	sw	v1,4(a3)
9d006be4:	1500000c 	bnez	t0,9d006c18 <free+0xdc>
9d006be8:	00004825 	move	t1,zero
9d006bec:	8c84fff8 	lw	a0,-8(a0)
9d006bf0:	3c08a000 	lui	t0,0xa000
9d006bf4:	25080108 	addiu	t0,t0,264
9d006bf8:	00a42823 	subu	a1,a1,a0
9d006bfc:	00441021 	addu	v0,v0,a0
9d006c00:	8ca40008 	lw	a0,8(a1)
9d006c04:	50880004 	beql	a0,t0,9d006c18 <free+0xdc>
9d006c08:	24090001 	li	t1,1
9d006c0c:	8ca8000c 	lw	t0,12(a1)
9d006c10:	ac88000c 	sw	t0,12(a0)
9d006c14:	ad040008 	sw	a0,8(t0)
9d006c18:	00e32021 	addu	a0,a3,v1
9d006c1c:	8c840004 	lw	a0,4(a0)
9d006c20:	30840001 	andi	a0,a0,0x1
9d006c24:	5480000e 	bnezl	a0,9d006c60 <free+0x124>
9d006c28:	34430001 	ori	v1,v0,0x1
9d006c2c:	00431021 	addu	v0,v0,v1
9d006c30:	15200023 	bnez	t1,9d006cc0 <free+0x184>
9d006c34:	8ce30008 	lw	v1,8(a3)
9d006c38:	3c04a000 	lui	a0,0xa000
9d006c3c:	24840108 	addiu	a0,a0,264
9d006c40:	54640020 	bnel	v1,a0,9d006cc4 <free+0x188>
9d006c44:	8ce4000c 	lw	a0,12(a3)
9d006c48:	acc50014 	sw	a1,20(a2)
9d006c4c:	acc50010 	sw	a1,16(a2)
9d006c50:	24090001 	li	t1,1
9d006c54:	aca3000c 	sw	v1,12(a1)
9d006c58:	aca30008 	sw	v1,8(a1)
9d006c5c:	34430001 	ori	v1,v0,0x1
9d006c60:	aca30004 	sw	v1,4(a1)
9d006c64:	00a21821 	addu	v1,a1,v0
9d006c68:	1520004c 	bnez	t1,9d006d9c <free+0x260>
9d006c6c:	ac620000 	sw	v0,0(v1)
9d006c70:	2c430200 	sltiu	v1,v0,512
9d006c74:	50600016 	beqzl	v1,9d006cd0 <free+0x194>
9d006c78:	00021a42 	srl	v1,v0,0x9
9d006c7c:	000210c2 	srl	v0,v0,0x3
9d006c80:	00022083 	sra	a0,v0,0x2
9d006c84:	24030001 	li	v1,1
9d006c88:	00831804 	sllv	v1,v1,a0
9d006c8c:	8cc40004 	lw	a0,4(a2)
9d006c90:	24420001 	addiu	v0,v0,1
9d006c94:	000210c0 	sll	v0,v0,0x3
9d006c98:	00641825 	or	v1,v1,a0
9d006c9c:	00c21021 	addu	v0,a2,v0
9d006ca0:	acc30004 	sw	v1,4(a2)
9d006ca4:	8c430000 	lw	v1,0(v0)
9d006ca8:	2444fff8 	addiu	a0,v0,-8
9d006cac:	aca4000c 	sw	a0,12(a1)
9d006cb0:	aca30008 	sw	v1,8(a1)
9d006cb4:	ac450000 	sw	a1,0(v0)
9d006cb8:	03e00008 	jr	ra
9d006cbc:	ac65000c 	sw	a1,12(v1)
9d006cc0:	8ce4000c 	lw	a0,12(a3)
9d006cc4:	ac64000c 	sw	a0,12(v1)
9d006cc8:	1000ffe4 	b	9d006c5c <free+0x120>
9d006ccc:	ac830008 	sw	v1,8(a0)
9d006cd0:	2c640005 	sltiu	a0,v1,5
9d006cd4:	10800015 	beqz	a0,9d006d2c <free+0x1f0>
9d006cd8:	2c640015 	sltiu	a0,v1,21
9d006cdc:	00021982 	srl	v1,v0,0x6
9d006ce0:	24630038 	addiu	v1,v1,56
9d006ce4:	24640001 	addiu	a0,v1,1
9d006ce8:	000420c0 	sll	a0,a0,0x3
9d006cec:	00c42021 	addu	a0,a2,a0
9d006cf0:	2487fff8 	addiu	a3,a0,-8
9d006cf4:	8c840000 	lw	a0,0(a0)
9d006cf8:	14e40021 	bne	a3,a0,9d006d80 <free+0x244>
9d006cfc:	2408fffc 	li	t0,-4
9d006d00:	24020001 	li	v0,1
9d006d04:	00031883 	sra	v1,v1,0x2
9d006d08:	00621804 	sllv	v1,v0,v1
9d006d0c:	8cc20004 	lw	v0,4(a2)
9d006d10:	00621825 	or	v1,v1,v0
9d006d14:	acc30004 	sw	v1,4(a2)
9d006d18:	aca7000c 	sw	a3,12(a1)
9d006d1c:	aca40008 	sw	a0,8(a1)
9d006d20:	ace50008 	sw	a1,8(a3)
9d006d24:	03e00008 	jr	ra
9d006d28:	ac85000c 	sw	a1,12(a0)
9d006d2c:	10800003 	beqz	a0,9d006d3c <free+0x200>
9d006d30:	2c640055 	sltiu	a0,v1,85
9d006d34:	1000ffeb 	b	9d006ce4 <free+0x1a8>
9d006d38:	2463005b 	addiu	v1,v1,91
9d006d3c:	10800004 	beqz	a0,9d006d50 <free+0x214>
9d006d40:	2c640155 	sltiu	a0,v1,341
9d006d44:	00021b02 	srl	v1,v0,0xc
9d006d48:	1000ffe6 	b	9d006ce4 <free+0x1a8>
9d006d4c:	2463006e 	addiu	v1,v1,110
9d006d50:	10800004 	beqz	a0,9d006d64 <free+0x228>
9d006d54:	2c640555 	sltiu	a0,v1,1365
9d006d58:	00021bc2 	srl	v1,v0,0xf
9d006d5c:	1000ffe1 	b	9d006ce4 <free+0x1a8>
9d006d60:	24630077 	addiu	v1,v1,119
9d006d64:	1080ffdf 	beqz	a0,9d006ce4 <free+0x1a8>
9d006d68:	2403007e 	li	v1,126
9d006d6c:	00021c82 	srl	v1,v0,0x12
9d006d70:	1000ffdc 	b	9d006ce4 <free+0x1a8>
9d006d74:	2463007c 	addiu	v1,v1,124
9d006d78:	50e4ffe7 	beql	a3,a0,9d006d18 <free+0x1dc>
9d006d7c:	8c87000c 	lw	a3,12(a0)
9d006d80:	8c830004 	lw	v1,4(a0)
9d006d84:	01031824 	and	v1,t0,v1
9d006d88:	0043182b 	sltu	v1,v0,v1
9d006d8c:	5460fffa 	bnezl	v1,9d006d78 <free+0x23c>
9d006d90:	8c840008 	lw	a0,8(a0)
9d006d94:	1000ffe0 	b	9d006d18 <free+0x1dc>
9d006d98:	8c87000c 	lw	a3,12(a0)
9d006d9c:	03e00008 	jr	ra
9d006da0:	00000000 	nop

Disassembly of section .text.strtoull:

9d006da4 <strtoull>:
9d006da4:	27bdfff8 	addiu	sp,sp,-8
9d006da8:	3c039d01 	lui	v1,0x9d01
9d006dac:	afb00004 	sw	s0,4(sp)
9d006db0:	2463864d 	addiu	v1,v1,-31155
9d006db4:	80880000 	lb	t0,0(a0)
9d006db8:	1100000f 	beqz	t0,9d006df8 <strtoull+0x54>
9d006dbc:	00000000 	nop
9d006dc0:	01031021 	addu	v0,t0,v1
9d006dc4:	80420000 	lb	v0,0(v0)
9d006dc8:	30420088 	andi	v0,v0,0x88
9d006dcc:	5440fff9 	bnezl	v0,9d006db4 <strtoull+0x10>
9d006dd0:	24840001 	addiu	a0,a0,1
9d006dd4:	2402002b 	li	v0,43
9d006dd8:	51020005 	beql	t0,v0,9d006df0 <strtoull+0x4c>
9d006ddc:	3908002d 	xori	t0,t0,0x2d
9d006de0:	2402002d 	li	v0,45
9d006de4:	55020004 	bnel	t0,v0,9d006df8 <strtoull+0x54>
9d006de8:	00004025 	move	t0,zero
9d006dec:	3908002d 	xori	t0,t0,0x2d
9d006df0:	2d080001 	sltiu	t0,t0,1
9d006df4:	24840001 	addiu	a0,a0,1
9d006df8:	14c0002a 	bnez	a2,9d006ea4 <strtoull+0x100>
9d006dfc:	80820000 	lb	v0,0(a0)
9d006e00:	24030030 	li	v1,48
9d006e04:	14430008 	bne	v0,v1,9d006e28 <strtoull+0x84>
9d006e08:	2406000a 	li	a2,10
9d006e0c:	80820001 	lb	v0,1(a0)
9d006e10:	24030058 	li	v1,88
9d006e14:	7c022944 	ins	v0,zero,0x5,0x1
9d006e18:	50430020 	beql	v0,v1,9d006e9c <strtoull+0xf8>
9d006e1c:	24840002 	addiu	a0,a0,2
9d006e20:	24840001 	addiu	a0,a0,1
9d006e24:	24060008 	li	a2,8
9d006e28:	3c0e9d01 	lui	t6,0x9d01
9d006e2c:	00066fc3 	sra	t5,a2,0x1f
9d006e30:	2484ffff 	addiu	a0,a0,-1
9d006e34:	00006025 	move	t4,zero
9d006e38:	00001025 	move	v0,zero
9d006e3c:	00001825 	move	v1,zero
9d006e40:	25ce864d 	addiu	t6,t6,-31155
9d006e44:	240f0041 	li	t7,65
9d006e48:	24100061 	li	s0,97
9d006e4c:	24840001 	addiu	a0,a0,1
9d006e50:	80870000 	lb	a3,0(a0)
9d006e54:	14e0001f 	bnez	a3,9d006ed4 <strtoull+0x130>
9d006e58:	00ee4821 	addu	t1,a3,t6
9d006e5c:	1100005c 	beqz	t0,9d006fd0 <strtoull+0x22c>
9d006e60:	00000000 	nop
9d006e64:	5580005d 	bnezl	t4,9d006fdc <strtoull+0x238>
9d006e68:	3c02a000 	lui	v0,0xa000
9d006e6c:	00023023 	negu	a2,v0
9d006e70:	0006382b 	sltu	a3,zero,a2
9d006e74:	00034023 	negu	t0,v1
9d006e78:	00c01025 	move	v0,a2
9d006e7c:	01071823 	subu	v1,t0,a3
9d006e80:	54a00001 	bnezl	a1,9d006e88 <strtoull+0xe4>
9d006e84:	aca40000 	sw	a0,0(a1)
9d006e88:	8fb00004 	lw	s0,4(sp)
9d006e8c:	03e00008 	jr	ra
9d006e90:	27bd0008 	addiu	sp,sp,8
9d006e94:	1000ffd8 	b	9d006df8 <strtoull+0x54>
9d006e98:	00004025 	move	t0,zero
9d006e9c:	1000ffe2 	b	9d006e28 <strtoull+0x84>
9d006ea0:	24060010 	li	a2,16
9d006ea4:	24030010 	li	v1,16
9d006ea8:	14c3ffe0 	bne	a2,v1,9d006e2c <strtoull+0x88>
9d006eac:	3c0e9d01 	lui	t6,0x9d01
9d006eb0:	24030030 	li	v1,48
9d006eb4:	1443ffde 	bne	v0,v1,9d006e30 <strtoull+0x8c>
9d006eb8:	00066fc3 	sra	t5,a2,0x1f
9d006ebc:	80830001 	lb	v1,1(a0)
9d006ec0:	24020078 	li	v0,120
9d006ec4:	5062ffd9 	beql	v1,v0,9d006e2c <strtoull+0x88>
9d006ec8:	24840002 	addiu	a0,a0,2
9d006ecc:	1000ffd7 	b	9d006e2c <strtoull+0x88>
9d006ed0:	24840001 	addiu	a0,a0,1
9d006ed4:	91290000 	lbu	t1,0(t1)
9d006ed8:	312a0004 	andi	t2,t1,0x4
9d006edc:	51400017 	beqzl	t2,9d006f3c <strtoull+0x198>
9d006ee0:	312a0003 	andi	t2,t1,0x3
9d006ee4:	24e7ffd0 	addiu	a3,a3,-48
9d006ee8:	04e0ffdc 	bltz	a3,9d006e5c <strtoull+0xb8>
9d006eec:	00e6482a 	slt	t1,a3,a2
9d006ef0:	1120ffda 	beqz	t1,9d006e5c <strtoull+0xb8>
9d006ef4:	00000000 	nop
9d006ef8:	14600017 	bnez	v1,9d006f58 <strtoull+0x1b4>
9d006efc:	00000000 	nop
9d006f00:	11a0001a 	beqz	t5,9d006f6c <strtoull+0x1c8>
9d006f04:	01a04825 	move	t1,t5
9d006f08:	00405025 	move	t2,v0
9d006f0c:	01490019 	multu	t2,t1
9d006f10:	00005012 	mflo	t2
9d006f14:	00005810 	mfhi	t3
9d006f18:	00460019 	multu	v0,a2
9d006f1c:	0000c810 	mfhi	t9
9d006f20:	032a4821 	addu	t1,t9,t2
9d006f24:	012a482b 	sltu	t1,t1,t2
9d006f28:	012b4821 	addu	t1,t1,t3
9d006f2c:	1120000f 	beqz	t1,9d006f6c <strtoull+0x1c8>
9d006f30:	00000000 	nop
9d006f34:	1000ffc5 	b	9d006e4c <strtoull+0xa8>
9d006f38:	240c0001 	li	t4,1
9d006f3c:	1140ffc7 	beqz	t2,9d006e5c <strtoull+0xb8>
9d006f40:	31290001 	andi	t1,t1,0x1
9d006f44:	02005025 	move	t2,s0
9d006f48:	01e9500b 	movn	t2,t7,t1
9d006f4c:	00ea3823 	subu	a3,a3,t2
9d006f50:	1000ffe5 	b	9d006ee8 <strtoull+0x144>
9d006f54:	24e7000a 	addiu	a3,a3,10
9d006f58:	55a0ffbc 	bnezl	t5,9d006e4c <strtoull+0xa8>
9d006f5c:	240c0001 	li	t4,1
9d006f60:	00604825 	move	t1,v1
9d006f64:	1000ffe9 	b	9d006f0c <strtoull+0x168>
9d006f68:	00c05025 	move	t2,a2
9d006f6c:	5580ffb8 	bnezl	t4,9d006e50 <strtoull+0xac>
9d006f70:	24840001 	addiu	a0,a0,1
9d006f74:	01a20018 	mult	t5,v0
9d006f78:	70c30000 	madd	a2,v1
9d006f7c:	00004812 	mflo	t1
9d006f80:	00460019 	multu	v0,a2
9d006f84:	00001810 	mfhi	v1
9d006f88:	01231821 	addu	v1,t1,v1
9d006f8c:	00035827 	nor	t3,zero,v1
9d006f90:	00074fc3 	sra	t1,a3,0x1f
9d006f94:	00001012 	mflo	v0
9d006f98:	0169c02b 	sltu	t8,t3,t1
9d006f9c:	1700ffe5 	bnez	t8,9d006f34 <strtoull+0x190>
9d006fa0:	00025027 	nor	t2,zero,v0
9d006fa4:	552b0005 	bnel	t1,t3,9d006fbc <strtoull+0x218>
9d006fa8:	00e23821 	addu	a3,a3,v0
9d006fac:	0147502b 	sltu	t2,t2,a3
9d006fb0:	5540ffa6 	bnezl	t2,9d006e4c <strtoull+0xa8>
9d006fb4:	240c0001 	li	t4,1
9d006fb8:	00e23821 	addu	a3,a3,v0
9d006fbc:	00e2502b 	sltu	t2,a3,v0
9d006fc0:	00694821 	addu	t1,v1,t1
9d006fc4:	00e01025 	move	v0,a3
9d006fc8:	1000ffa0 	b	9d006e4c <strtoull+0xa8>
9d006fcc:	01491821 	addu	v1,t2,t1
9d006fd0:	1180ffab 	beqz	t4,9d006e80 <strtoull+0xdc>
9d006fd4:	00000000 	nop
9d006fd8:	3c02a000 	lui	v0,0xa000
9d006fdc:	24030022 	li	v1,34
9d006fe0:	ac430088 	sw	v1,136(v0)
9d006fe4:	2402ffff 	li	v0,-1
9d006fe8:	1000ffa5 	b	9d006e80 <strtoull+0xdc>
9d006fec:	2403ffff 	li	v1,-1

Disassembly of section .text:

9d006ff0 <main>:

} */


int main() 
{
9d006ff0:	27bdfef8 	addiu	sp,sp,-264
9d006ff4:	afbf0104 	sw	ra,260(sp)
9d006ff8:	afb40100 	sw	s4,256(sp)
9d006ffc:	afb300fc 	sw	s3,252(sp)
9d007000:	afb200f8 	sw	s2,248(sp)
9d007004:	afb100f4 	sw	s1,244(sp)
  char buffer[BUF_SIZE];
  NU32_Startup(); // cache on, min flash wait, interrupts on, LED/button init, UART init
9d007008:	0f401fe4 	jal	9d007f90 <NU32_Startup>
9d00700c:	afb000f0 	sw	s0,240(sp)
  NU32_LED1 = 1;  // turn off the LEDs
9d007010:	3c02bf88 	lui	v0,0xbf88
9d007014:	90436160 	lbu	v1,24928(v0)
9d007018:	24040001 	li	a0,1
9d00701c:	7c830004 	ins	v1,a0,0x0,0x1
9d007020:	a0436160 	sb	v1,24928(v0)
  NU32_LED2 = 1;        
9d007024:	90436160 	lbu	v1,24928(v0)
9d007028:	7c830844 	ins	v1,a0,0x1,0x1
9d00702c:	a0436160 	sb	v1,24928(v0)
  __builtin_disable_interrupts();
9d007030:	41626000 	di	v0
9d007034:	000000c0 	ehb
  // in future, initialize modules or peripherals here
  initialize_sfrs();
9d007038:	0f401d9f 	jal	9d00767c <initialize_sfrs>
9d00703c:	00000000 	nop
  __builtin_enable_interrupts();
9d007040:	41626020 	ei	v0

  while(1)
  {
    NU32_ReadUART3(buffer,BUF_SIZE); // we expect the next character to be a menu command
    NU32_LED2 = 1;                   // clear the error LED
9d007044:	3c10bf88 	lui	s0,0xbf88
    switch (buffer[0]) {
9d007048:	3c119d00 	lui	s1,0x9d00
9d00704c:	263171f8 	addiu	s1,s1,29176
      }
	  
	  case 'r':
	  {
		  //read what mode the motor is in
		  sprintf(buffer, "\nCurrent mode of program: %d \r\n", mode);
9d007050:	3c139d00 	lui	s3,0x9d00
9d007054:	26731e58 	addiu	s3,s3,7768
		  NU32_WriteUART3(buffer);
		  
		  sprintf(buffer,
9d007058:	3c129d00 	lui	s2,0x9d00
9d00705c:	26521e78 	addiu	s2,s2,7800
		  NU32_WriteUART3("\nMotor set to IDLE mode.\r\n\n");
9d007060:	10000053 	b	9d0071b0 <main+0x1c0>
9d007064:	3c149d00 	lui	s4,0x9d00
        int n = 0;
9d007068:	afa000e8 	sw	zero,232(sp)
        NU32_ReadUART3(buffer,BUF_SIZE);
9d00706c:	240500c8 	li	a1,200
9d007070:	0f402029 	jal	9d0080a4 <NU32_ReadUART3>
9d007074:	27a40020 	addiu	a0,sp,32
        sscanf(buffer, "%d", &n);
9d007078:	27a600e8 	addiu	a2,sp,232
9d00707c:	3c059d00 	lui	a1,0x9d00
9d007080:	24a51e00 	addiu	a1,a1,7680
9d007084:	0f40254e 	jal	9d009538 <_sscanf_cdnopuxX>
9d007088:	27a40020 	addiu	a0,sp,32
        sprintf(buffer,"%d\r\n", n + 1); // return the number + 1
9d00708c:	8fa600e8 	lw	a2,232(sp)
9d007090:	24c60001 	addiu	a2,a2,1
9d007094:	3c059d00 	lui	a1,0x9d00
9d007098:	24a51e04 	addiu	a1,a1,7684
9d00709c:	0f402583 	jal	9d00960c <_sprintf_cdnopuxX>
9d0070a0:	27a40020 	addiu	a0,sp,32
        NU32_WriteUART3(buffer);
9d0070a4:	0f402040 	jal	9d008100 <NU32_WriteUART3>
9d0070a8:	27a40020 	addiu	a0,sp,32
    NU32_ReadUART3(buffer,BUF_SIZE); // we expect the next character to be a menu command
9d0070ac:	10000041 	b	9d0071b4 <main+0x1c4>
9d0070b0:	240500c8 	li	a1,200
		  mode = PWM;
9d0070b4:	24020001 	li	v0,1
9d0070b8:	af82809c 	sw	v0,-32612(gp)
		  NU32_WriteUART3("\nSet PWM (-100 to 100): ");
9d0070bc:	3c049d00 	lui	a0,0x9d00
9d0070c0:	0f402040 	jal	9d008100 <NU32_WriteUART3>
9d0070c4:	24841e0c 	addiu	a0,a0,7692
		  NU32_ReadUART3(buffer, BUF_SIZE);
9d0070c8:	240500c8 	li	a1,200
9d0070cc:	0f402029 	jal	9d0080a4 <NU32_ReadUART3>
9d0070d0:	27a40020 	addiu	a0,sp,32
		  sscanf(buffer,"%d", &client_input);
9d0070d4:	278680a0 	addiu	a2,gp,-32608
9d0070d8:	3c059d00 	lui	a1,0x9d00
9d0070dc:	24a51e00 	addiu	a1,a1,7680
9d0070e0:	0f40254e 	jal	9d009538 <_sscanf_cdnopuxX>
9d0070e4:	27a40020 	addiu	a0,sp,32
		  sprintf(buffer, "\r\nPWM set as: %d \r\n", client_input);
9d0070e8:	8f8680a0 	lw	a2,-32608(gp)
9d0070ec:	3c059d00 	lui	a1,0x9d00
9d0070f0:	24a51e28 	addiu	a1,a1,7720
9d0070f4:	0f402583 	jal	9d00960c <_sprintf_cdnopuxX>
9d0070f8:	27a40020 	addiu	a0,sp,32
		  NU32_WriteUART3(buffer);
9d0070fc:	0f402040 	jal	9d008100 <NU32_WriteUART3>
9d007100:	27a40020 	addiu	a0,sp,32
		  break;
9d007104:	1000002b 	b	9d0071b4 <main+0x1c4>
9d007108:	240500c8 	li	a1,200
		  NU32_WriteUART3("\nMotor set to IDLE mode.\r\n\n");
9d00710c:	0f402040 	jal	9d008100 <NU32_WriteUART3>
9d007110:	26841e3c 	addiu	a0,s4,7740
		  break;
9d007114:	10000026 	b	9d0071b0 <main+0x1c0>
9d007118:	af80809c 	sw	zero,-32612(gp)
		mode = IDLE;
9d00711c:	af80809c 	sw	zero,-32612(gp)
9d007120:	3c02003d 	lui	v0,0x3d
9d007124:	24420900 	addiu	v0,v0,2304
		}
9d007128:	2442ffff 	addiu	v0,v0,-1
		for (int i = 0; i < 4000000; ++i){
9d00712c:	1440ffff 	bnez	v0,9d00712c <main+0x13c>
9d007130:	2442ffff 	addiu	v0,v0,-1
        break;
      }
    }
  }
  return 0;
}
9d007134:	00001025 	move	v0,zero
9d007138:	8fbf0104 	lw	ra,260(sp)
9d00713c:	8fb40100 	lw	s4,256(sp)
9d007140:	8fb300fc 	lw	s3,252(sp)
9d007144:	8fb200f8 	lw	s2,248(sp)
9d007148:	8fb100f4 	lw	s1,244(sp)
9d00714c:	8fb000f0 	lw	s0,240(sp)
9d007150:	03e00008 	jr	ra
9d007154:	27bd0108 	addiu	sp,sp,264
		  sprintf(buffer, "\nCurrent mode of program: %d \r\n", mode);
9d007158:	8f86809c 	lw	a2,-32612(gp)
9d00715c:	02602825 	move	a1,s3
9d007160:	0f402583 	jal	9d00960c <_sprintf_cdnopuxX>
9d007164:	27a40020 	addiu	a0,sp,32
		  NU32_WriteUART3(buffer);
9d007168:	0f402040 	jal	9d008100 <NU32_WriteUART3>
9d00716c:	27a40020 	addiu	a0,sp,32
		  sprintf(buffer,
9d007170:	24020004 	li	v0,4
9d007174:	afa20018 	sw	v0,24(sp)
9d007178:	24020003 	li	v0,3
9d00717c:	afa20014 	sw	v0,20(sp)
9d007180:	24020002 	li	v0,2
9d007184:	afa20010 	sw	v0,16(sp)
9d007188:	24070001 	li	a3,1
9d00718c:	00003025 	move	a2,zero
9d007190:	02402825 	move	a1,s2
9d007194:	0f402583 	jal	9d00960c <_sprintf_cdnopuxX>
9d007198:	27a40020 	addiu	a0,sp,32
		  NU32_WriteUART3(buffer);
9d00719c:	0f402040 	jal	9d008100 <NU32_WriteUART3>
9d0071a0:	27a40020 	addiu	a0,sp,32
        NU32_LED2 = 0;  // turn on LED2 to indicate an error
9d0071a4:	92026160 	lbu	v0,24928(s0)
9d0071a8:	7c020844 	ins	v0,zero,0x1,0x1
9d0071ac:	a2026160 	sb	v0,24928(s0)
    NU32_ReadUART3(buffer,BUF_SIZE); // we expect the next character to be a menu command
9d0071b0:	240500c8 	li	a1,200
9d0071b4:	0f402029 	jal	9d0080a4 <NU32_ReadUART3>
9d0071b8:	27a40020 	addiu	a0,sp,32
    NU32_LED2 = 1;                   // clear the error LED
9d0071bc:	92026160 	lbu	v0,24928(s0)
9d0071c0:	24030001 	li	v1,1
9d0071c4:	7c620844 	ins	v0,v1,0x1,0x1
9d0071c8:	a2026160 	sb	v0,24928(s0)
    switch (buffer[0]) {
9d0071cc:	93a20020 	lbu	v0,32(sp)
9d0071d0:	2442ff9c 	addiu	v0,v0,-100
9d0071d4:	304300ff 	andi	v1,v0,0xff
9d0071d8:	2c63000f 	sltiu	v1,v1,15
9d0071dc:	1060fff1 	beqz	v1,9d0071a4 <main+0x1b4>
9d0071e0:	304200ff 	andi	v0,v0,0xff
9d0071e4:	00021080 	sll	v0,v0,0x2
9d0071e8:	02221021 	addu	v0,s1,v0
9d0071ec:	8c420000 	lw	v0,0(v0)
9d0071f0:	00400008 	jr	v0
9d0071f4:	00000000 	nop

9d0071f8 <__jump_main_5>:
9d0071f8:	9d007068 9d0071a4 9d0070b4 9d0071a4     hp...q...p...q..
9d007208:	9d0071a4 9d0071a4 9d0071a4 9d0071a4     .q...q...q...q..
9d007218:	9d0071a4 9d0071a4 9d0071a4 9d0071a4     .q...q...q...q..
9d007228:	9d00710c 9d00711c 9d007158              .q...q..Xq..

Disassembly of section .text.fp32div:

9d007234 <__divsf3>:
9d007234:	3c0b8000 000445c2 310800ff 000555c2     ...<.E.....1.U..
9d007244:	314a00ff 00043a00 00eb3825 00054a00     ..J1.:..%8...J..
9d007254:	012b4825 00857026 016e5824 250effff     %H+.&p..$Xn....%
9d007264:	2dc100fe 1020003f 00000000              ...-?. .....

9d007270 <Dlab1>:
9d007270:	254effff 	addiu	t6,t2,-1
9d007274:	2dc100fe 	sltiu	at,t6,254
9d007278:	10200053 	beqz	at,9d0073c8 <DspecB>
9d00727c:	00000000 	nop

9d007280 <Dlab2>:
9d007280:	00e9082b 	sltu	at,a3,t1
9d007284:	14200003 	bnez	at,9d007294 <i27>
9d007288:	00000000 	nop
9d00728c:	00073842 	srl	a3,a3,0x1
9d007290:	25080001 	addiu	t0,t0,1

9d007294 <i27>:
9d007294:	00096382 	srl	t4,t1,0xe
9d007298:	018001f4 	teq	t4,zero,0x7
9d00729c:	00ec001b 	divu	zero,a3,t4
9d0072a0:	00002012 	mflo	a0
9d0072a4:	00003010 	mfhi	a2
9d0072a8:	312d3fff 	andi	t5,t1,0x3fff
9d0072ac:	01a40019 	multu	t5,a0
9d0072b0:	00002812 	mflo	a1
9d0072b4:	00063380 	sll	a2,a2,0xe
9d0072b8:	00c5702b 	sltu	t6,a2,a1
9d0072bc:	11c00004 	beqz	t6,9d0072d0 <i28>
9d0072c0:	00c53023 	subu	a2,a2,a1
9d0072c4:	2484ffff 	addiu	a0,a0,-1
9d0072c8:	00c93021 	addu	a2,a2,t1
9d0072cc:	00c9702b 	sltu	t6,a2,t1

9d0072d0 <i28>:
9d0072d0:	018001f4 	teq	t4,zero,0x7
9d0072d4:	00cc001b 	divu	zero,a2,t4
9d0072d8:	00003812 	mflo	a3
9d0072dc:	00003010 	mfhi	a2
9d0072e0:	01a70019 	multu	t5,a3
9d0072e4:	00002812 	mflo	a1
9d0072e8:	00063380 	sll	a2,a2,0xe
9d0072ec:	00c5702b 	sltu	t6,a2,a1
9d0072f0:	11c00004 	beqz	t6,9d007304 <i29>
9d0072f4:	00c53023 	subu	a2,a2,a1
9d0072f8:	24e7ffff 	addiu	a3,a3,-1
9d0072fc:	00c93021 	addu	a2,a2,t1
9d007300:	00c9702b 	sltu	t6,a2,t1

9d007304 <i29>:
9d007304:	00047380 	sll	t6,a0,0xe
9d007308:	00ee3821 	addu	a3,a3,t6
9d00730c:	10c00002 	beqz	a2,9d007318 <i30>
9d007310:	00073900 	sll	a3,a3,0x4
9d007314:	34e70001 	ori	a3,a3,0x1

9d007318 <i30>:
9d007318:	240e007e 	li	t6,126
9d00731c:	01ca7023 	subu	t6,t6,t2
9d007320:	010e4021 	addu	t0,t0,t6
9d007324:	250effff 	addiu	t6,t0,-1
9d007328:	2dc100fe 	sltiu	at,t6,254
9d00732c:	10200034 	beqz	at,9d007400 <Doveund>
9d007330:	00000000 	nop

9d007334 <Dlab8>:
9d007334:	24e70080 	addiu	a3,a3,128
9d007338:	2cee0080 	sltiu	t6,a3,128
9d00733c:	010e4021 	addu	t0,t0,t6
9d007340:	00077202 	srl	t6,a3,0x8
9d007344:	31ce0001 	andi	t6,t6,0x1
9d007348:	00ee3823 	subu	a3,a3,t6
9d00734c:	00073840 	sll	a3,a3,0x1
9d007350:	00073a42 	srl	a3,a3,0x9
9d007354:	000875c0 	sll	t6,t0,0x17
9d007358:	00ee3825 	or	a3,a3,t6
9d00735c:	00eb1025 	or	v0,a3,t3

9d007360 <D999>:
9d007360:	03e00008 	jr	ra
9d007364:	00000000 	nop

9d007368 <DspecA>:
9d007368:	15000008 	bnez	t0,9d00738c <i31>
9d00736c:	00000000 	nop
9d007370:	00e73821 	addu	a3,a3,a3
9d007374:	10e00005 	beqz	a3,9d00738c <i31>
9d007378:	00000000 	nop
9d00737c:	70ec6020 	clz	t4,a3
9d007380:	010c4023 	subu	t0,t0,t4
9d007384:	1000ffba 	b	9d007270 <Dlab1>
9d007388:	01873804 	sllv	a3,a3,t4

9d00738c <i31>:
9d00738c:	15480004 	bne	t2,t0,9d0073a0 <i33>
9d007390:	00000000 	nop
9d007394:	01297021 	addu	t6,t1,t1
9d007398:	11c0002f 	beqz	t6,9d007458 <Dnan>
9d00739c:	00000000 	nop

9d0073a0 <i33>:
9d0073a0:	240100ff 	li	at,255
9d0073a4:	11410008 	beq	t2,at,9d0073c8 <DspecB>
9d0073a8:	00000000 	nop
9d0073ac:	11000012 	beqz	t0,9d0073f8 <Dzer>
9d0073b0:	00000000 	nop
9d0073b4:	00e77021 	addu	t6,a3,a3
9d0073b8:	15c00027 	bnez	t6,9d007458 <Dnan>
9d0073bc:	00000000 	nop
9d0073c0:	10000022 	b	9d00744c <Dinf>
9d0073c4:	00000000 	nop

9d0073c8 <DspecB>:
9d0073c8:	15400008 	bnez	t2,9d0073ec <i34>
9d0073cc:	00000000 	nop
9d0073d0:	01294821 	addu	t1,t1,t1
9d0073d4:	1120001d 	beqz	t1,9d00744c <Dinf>
9d0073d8:	00000000 	nop
9d0073dc:	712c6020 	clz	t4,t1
9d0073e0:	014c5023 	subu	t2,t2,t4
9d0073e4:	1000ffa6 	b	9d007280 <Dlab2>
9d0073e8:	01894804 	sllv	t1,t1,t4

9d0073ec <i34>:
9d0073ec:	01297021 	addu	t6,t1,t1
9d0073f0:	15c00019 	bnez	t6,9d007458 <Dnan>
9d0073f4:	00000000 	nop

9d0073f8 <Dzer>:
9d0073f8:	1000ffd9 	b	9d007360 <D999>
9d0073fc:	000b1025 	or	v0,zero,t3

9d007400 <Doveund>:
9d007400:	1d000012 	bgtz	t0,9d00744c <Dinf>
9d007404:	00000000 	nop
9d007408:	240c0001 	li	t4,1
9d00740c:	01886023 	subu	t4,t4,t0
9d007410:	2d810020 	sltiu	at,t4,32
9d007414:	1020fff8 	beqz	at,9d0073f8 <Dzer>
9d007418:	00000000 	nop
9d00741c:	240e0020 	li	t6,32
9d007420:	01cc7023 	subu	t6,t6,t4
9d007424:	01c74004 	sllv	t0,a3,t6
9d007428:	11000002 	beqz	t0,9d007434 <i37>
9d00742c:	01873806 	srlv	a3,a3,t4
9d007430:	34e70002 	ori	a3,a3,0x2

9d007434 <i37>:
9d007434:	24080000 	li	t0,0
9d007438:	24ee0080 	addiu	t6,a3,128
9d00743c:	05c1ffbd 	bgez	t6,9d007334 <Dlab8>
9d007440:	00000000 	nop
9d007444:	1000ffbb 	b	9d007334 <Dlab8>
9d007448:	24080001 	li	t0,1

9d00744c <Dinf>:
9d00744c:	3c017f80 	lui	at,0x7f80
9d007450:	1000ffc3 	b	9d007360 <D999>
9d007454:	01611025 	or	v0,t3,at

9d007458 <Dnan>:
9d007458:	1000ffc1 	b	9d007360 <D999>
9d00745c:	3c02ffc0 	lui	v0,0xffc0
9d007460:	00000000 	nop

Disassembly of section .text._strtostr:

9d007464 <_strtostr>:
9d007464:	27bdfec8 	addiu	sp,sp,-312
9d007468:	24020002 	li	v0,2
9d00746c:	afb60128 	sw	s6,296(sp)
9d007470:	afb40120 	sw	s4,288(sp)
9d007474:	afb3011c 	sw	s3,284(sp)
9d007478:	afb20118 	sw	s2,280(sp)
9d00747c:	afb00110 	sw	s0,272(sp)
9d007480:	afbf0134 	sw	ra,308(sp)
9d007484:	afbe0130 	sw	s8,304(sp)
9d007488:	afb7012c 	sw	s7,300(sp)
9d00748c:	afb50124 	sw	s5,292(sp)
9d007490:	afb10114 	sw	s1,276(sp)
9d007494:	0080b025 	move	s6,a0
9d007498:	00a09025 	move	s2,a1
9d00749c:	00c0a025 	move	s4,a2
9d0074a0:	00e09825 	move	s3,a3
9d0074a4:	14820029 	bne	a0,v0,9d00754c <_strtostr+0xe8>
9d0074a8:	8fb00148 	lw	s0,328(sp)
9d0074ac:	8e020008 	lw	v0,8(s0)
9d0074b0:	2403005e 	li	v1,94
9d0074b4:	80440000 	lb	a0,0(v0)
9d0074b8:	14830004 	bne	a0,v1,9d0074cc <_strtostr+0x68>
9d0074bc:	00008825 	move	s1,zero
9d0074c0:	24420001 	addiu	v0,v0,1
9d0074c4:	ae020008 	sw	v0,8(s0)
9d0074c8:	24110001 	li	s1,1
9d0074cc:	02202825 	move	a1,s1
9d0074d0:	27a40010 	addiu	a0,sp,16
9d0074d4:	0f402707 	jal	9d009c1c <memset>
9d0074d8:	24060100 	li	a2,256
9d0074dc:	3a310001 	xori	s1,s1,0x1
9d0074e0:	2402ffff 	li	v0,-1
9d0074e4:	2407ffff 	li	a3,-1
9d0074e8:	2408002d 	li	t0,45
9d0074ec:	2404005d 	li	a0,93
9d0074f0:	8e030008 	lw	v1,8(s0)
9d0074f4:	1047004e 	beq	v0,a3,9d007630 <_strtostr+0x1cc>
9d0074f8:	80650000 	lb	a1,0(v1)
9d0074fc:	54a8004d 	bnel	a1,t0,9d007634 <_strtostr+0x1d0>
9d007500:	27a30010 	addiu	v1,sp,16
9d007504:	80660001 	lb	a2,1(v1)
9d007508:	50c4004a 	beql	a2,a0,9d007634 <_strtostr+0x1d0>
9d00750c:	27a30010 	addiu	v1,sp,16
9d007510:	24420001 	addiu	v0,v0,1
9d007514:	00c2282a 	slt	a1,a2,v0
9d007518:	10a00042 	beqz	a1,9d007624 <_strtostr+0x1c0>
9d00751c:	27a50010 	addiu	a1,sp,16
9d007520:	24630001 	addiu	v1,v1,1
9d007524:	ae030008 	sw	v1,8(s0)
9d007528:	2402ffff 	li	v0,-1
9d00752c:	8e030008 	lw	v1,8(s0)
9d007530:	24650001 	addiu	a1,v1,1
9d007534:	ae050008 	sw	a1,8(s0)
9d007538:	80650001 	lb	a1,1(v1)
9d00753c:	54a4ffed 	bnel	a1,a0,9d0074f4 <_strtostr+0x90>
9d007540:	8e030008 	lw	v1,8(s0)
9d007544:	24630002 	addiu	v1,v1,2
9d007548:	ae030008 	sw	v1,8(s0)
9d00754c:	32910001 	andi	s1,s4,0x1
9d007550:	16200005 	bnez	s1,9d007568 <_strtostr+0x104>
9d007554:	3c179d01 	lui	s7,0x9d01
9d007558:	8e02000c 	lw	v0,12(s0)
9d00755c:	24430004 	addiu	v1,v0,4
9d007560:	ae03000c 	sw	v1,12(s0)
9d007564:	8c550000 	lw	s5,0(v0)
9d007568:	0260a025 	move	s4,s3
9d00756c:	241effff 	li	s8,-1
9d007570:	26f7864d 	addiu	s7,s7,-31155
9d007574:	12800010 	beqz	s4,9d0075b8 <_strtostr+0x154>
9d007578:	2402ffff 	li	v0,-1
9d00757c:	0f4025e2 	jal	9d009788 <gsgetc>
9d007580:	02002025 	move	a0,s0
9d007584:	105e003b 	beq	v0,s8,9d007674 <_strtostr+0x210>
9d007588:	24050001 	li	a1,1
9d00758c:	16c5002d 	bne	s6,a1,9d007644 <_strtostr+0x1e0>
9d007590:	2684ffff 	addiu	a0,s4,-1
9d007594:	00571821 	addu	v1,v0,s7
9d007598:	80630000 	lb	v1,0(v1)
9d00759c:	30630088 	andi	v1,v1,0x88
9d0075a0:	1060002f 	beqz	v1,9d007660 <_strtostr+0x1fc>
9d0075a4:	00000000 	nop
9d0075a8:	8e030010 	lw	v1,16(s0)
9d0075ac:	ae020004 	sw	v0,4(s0)
9d0075b0:	2463ffff 	addiu	v1,v1,-1
9d0075b4:	ae030010 	sw	v1,16(s0)
9d0075b8:	8e030014 	lw	v1,20(s0)
9d0075bc:	24630001 	addiu	v1,v1,1
9d0075c0:	16200007 	bnez	s1,9d0075e0 <_strtostr+0x17c>
9d0075c4:	ae030014 	sw	v1,20(s0)
9d0075c8:	24030001 	li	v1,1
9d0075cc:	52430001 	beql	s2,v1,9d0075d4 <_strtostr+0x170>
9d0075d0:	a2a00000 	sb	zero,0(s5)
9d0075d4:	8e030018 	lw	v1,24(s0)
9d0075d8:	24630001 	addiu	v1,v1,1
9d0075dc:	ae030018 	sw	v1,24(s0)
9d0075e0:	56930004 	bnel	s4,s3,9d0075f4 <_strtostr+0x190>
9d0075e4:	00001025 	move	v0,zero
9d0075e8:	2403ffff 	li	v1,-1
9d0075ec:	54430001 	bnel	v0,v1,9d0075f4 <_strtostr+0x190>
9d0075f0:	24020001 	li	v0,1
9d0075f4:	8fbf0134 	lw	ra,308(sp)
9d0075f8:	8fbe0130 	lw	s8,304(sp)
9d0075fc:	8fb7012c 	lw	s7,300(sp)
9d007600:	8fb60128 	lw	s6,296(sp)
9d007604:	8fb50124 	lw	s5,292(sp)
9d007608:	8fb40120 	lw	s4,288(sp)
9d00760c:	8fb3011c 	lw	s3,284(sp)
9d007610:	8fb20118 	lw	s2,280(sp)
9d007614:	8fb10114 	lw	s1,276(sp)
9d007618:	8fb00110 	lw	s0,272(sp)
9d00761c:	03e00008 	jr	ra
9d007620:	27bd0138 	addiu	sp,sp,312
9d007624:	00a22821 	addu	a1,a1,v0
9d007628:	1000ffb9 	b	9d007510 <_strtostr+0xac>
9d00762c:	a0b10000 	sb	s1,0(a1)
9d007630:	27a30010 	addiu	v1,sp,16
9d007634:	00651821 	addu	v1,v1,a1
9d007638:	00a01025 	move	v0,a1
9d00763c:	1000ffbb 	b	9d00752c <_strtostr+0xc8>
9d007640:	a0710000 	sb	s1,0(v1)
9d007644:	24030002 	li	v1,2
9d007648:	16c30005 	bne	s6,v1,9d007660 <_strtostr+0x1fc>
9d00764c:	27a30010 	addiu	v1,sp,16
9d007650:	00621821 	addu	v1,v1,v0
9d007654:	80630000 	lb	v1,0(v1)
9d007658:	5060ffd4 	beqzl	v1,9d0075ac <_strtostr+0x148>
9d00765c:	8e030010 	lw	v1,16(s0)
9d007660:	1620ffc4 	bnez	s1,9d007574 <_strtostr+0x110>
9d007664:	0080a025 	move	s4,a0
9d007668:	a2a20000 	sb	v0,0(s5)
9d00766c:	1000ffc1 	b	9d007574 <_strtostr+0x110>
9d007670:	26b50001 	addiu	s5,s5,1
9d007674:	1000ffd0 	b	9d0075b8 <_strtostr+0x154>
9d007678:	2402ffff 	li	v0,-1

Disassembly of section .text:

9d00767c <initialize_sfrs>:
	
	//SPI communication
	//encoder_init(); //change this to new I2C communication
	
	//ADC input for current sensor: AN5
 	AD1CON1bits.ON = 1;
9d00767c:	3c03bf81 	lui	v1,0xbf81
9d007680:	94649000 	lhu	a0,-28672(v1)
9d007684:	24020001 	li	v0,1
9d007688:	7c447bc4 	ins	a0,v0,0xf,0x1
9d00768c:	a4649000 	sh	a0,-28672(v1)
	AD1CON1bits.SIDL = 1;
9d007690:	94649000 	lhu	a0,-28672(v1)
9d007694:	7c446b44 	ins	a0,v0,0xd,0x1
9d007698:	a4649000 	sh	a0,-28672(v1)
	AD1PCFGbits.PCFG5 = 0; //pin 5 analog
9d00769c:	3c03bf81 	lui	v1,0xbf81
9d0076a0:	94649060 	lhu	a0,-28576(v1)
9d0076a4:	7c042944 	ins	a0,zero,0x5,0x1
9d0076a8:	a4649060 	sh	a0,-28576(v1)
	TRISDbits.TRISD5 = 1; //pin 5 input
9d0076ac:	3c03bf88 	lui	v1,0xbf88
9d0076b0:	946460c0 	lhu	a0,24768(v1)
9d0076b4:	7c442944 	ins	a0,v0,0x5,0x1
9d0076b8:	a46460c0 	sh	a0,24768(v1)
	
 	//Digital output for H-bridge control: D4
	TRISDbits.TRISD4 = 0;
9d0076bc:	946460c0 	lhu	a0,24768(v1)
9d0076c0:	7c042104 	ins	a0,zero,0x4,0x1
9d0076c4:	a46460c0 	sh	a0,24768(v1)
	LATDbits.LATD4 = 0; //direction of motor 
9d0076c8:	3c03bf88 	lui	v1,0xbf88
9d0076cc:	946460e0 	lhu	a0,24800(v1)
9d0076d0:	7c042104 	ins	a0,zero,0x4,0x1
9d0076d4:	a46460e0 	sh	a0,24800(v1)
	
	//Timer initialization (3 timers)
	
	T2CONbits.TCKPS = 0b001; //prescaler of 2, use PR = 2000
9d0076d8:	3c05bf80 	lui	a1,0xbf80
9d0076dc:	94a30800 	lhu	v1,2048(a1)
9d0076e0:	7c433104 	ins	v1,v0,0x4,0x3
9d0076e4:	a4a30800 	sh	v1,2048(a1)
	T2CONbits.T32 = 0;
9d0076e8:	94a30800 	lhu	v1,2048(a1)
9d0076ec:	7c0318c4 	ins	v1,zero,0x3,0x1
9d0076f0:	a4a30800 	sh	v1,2048(a1)
	PR2 = 2000;
9d0076f4:	240307d0 	li	v1,2000
9d0076f8:	3c04bf80 	lui	a0,0xbf80
9d0076fc:	ac830820 	sw	v1,2080(a0)

	T3CONbits.TCKPS = 0b011; //prescaler of 8, use PR = 2000
9d007700:	3c06bf80 	lui	a2,0xbf80
9d007704:	94c40a00 	lhu	a0,2560(a2)
9d007708:	24070003 	li	a3,3
9d00770c:	7ce43104 	ins	a0,a3,0x4,0x3
9d007710:	a4c40a00 	sh	a0,2560(a2)
	PR3 = 2000;
9d007714:	3c04bf80 	lui	a0,0xbf80
9d007718:	ac830a20 	sw	v1,2592(a0)
	
	T4CONbits.TCKPS = 0b100; //prescaler of 16, use PR = 25000
9d00771c:	3c04bf80 	lui	a0,0xbf80
9d007720:	94830c00 	lhu	v1,3072(a0)
9d007724:	24090004 	li	t1,4
9d007728:	7d233104 	ins	v1,t1,0x4,0x3
9d00772c:	a4830c00 	sh	v1,3072(a0)
	T4CONbits.T32 = 0;
9d007730:	94830c00 	lhu	v1,3072(a0)
9d007734:	7c0318c4 	ins	v1,zero,0x3,0x1
9d007738:	a4830c00 	sh	v1,3072(a0)
	PR4 = 25000;
9d00773c:	3c03bf80 	lui	v1,0xbf80
9d007740:	240761a8 	li	a3,25000
9d007744:	ac670c20 	sw	a3,3104(v1)
	
 	//OC PWM for H-bridge operation
	OC3CONbits.SIDL = 1;
9d007748:	3c03bf80 	lui	v1,0xbf80
9d00774c:	94673400 	lhu	a3,13312(v1)
9d007750:	7c476b44 	ins	a3,v0,0xd,0x1
9d007754:	a4673400 	sh	a3,13312(v1)
	OC3CONbits.OCTSEL = 0; //timer2
9d007758:	94673400 	lhu	a3,13312(v1)
9d00775c:	7c0718c4 	ins	a3,zero,0x3,0x1
9d007760:	a4673400 	sh	a3,13312(v1)
	OC3CONbits.OCM = 0b110; //PWM mode; fault pin disabled
9d007764:	94673400 	lhu	a3,13312(v1)
9d007768:	24080006 	li	t0,6
9d00776c:	7d071004 	ins	a3,t0,0x0,0x3
9d007770:	a4673400 	sh	a3,13312(v1)
	OC3CONbits.OC32 = 0; //16 bit mode
9d007774:	94673400 	lhu	a3,13312(v1)
9d007778:	7c072944 	ins	a3,zero,0x5,0x1
9d00777c:	a4673400 	sh	a3,13312(v1)
	OC3R = 0; //initialize at 25% PR2 
9d007780:	3c07bf80 	lui	a3,0xbf80
9d007784:	ace03410 	sw	zero,13328(a3)
	
	//Interrupt setup for ISRs on timers 3 and 4
	IPC3bits.T3IP = 5;
9d007788:	3c07bf88 	lui	a3,0xbf88
9d00778c:	8ce810c0 	lw	t0,4288(a3)
9d007790:	240a0005 	li	t2,5
9d007794:	7d482084 	ins	t0,t2,0x2,0x3
9d007798:	ace810c0 	sw	t0,4288(a3)
	IPC3bits.T3IS = 0;
9d00779c:	8ce810c0 	lw	t0,4288(a3)
9d0077a0:	7c080804 	ins	t0,zero,0x0,0x2
9d0077a4:	ace810c0 	sw	t0,4288(a3)
		
	IPC4bits.T4IP = 4;
9d0077a8:	3c07bf88 	lui	a3,0xbf88
9d0077ac:	8ce810d0 	lw	t0,4304(a3)
9d0077b0:	7d282084 	ins	t0,t1,0x2,0x3
9d0077b4:	ace810d0 	sw	t0,4304(a3)
	IPC4bits.T4IS = 0;
9d0077b8:	8ce810d0 	lw	t0,4304(a3)
9d0077bc:	7c080804 	ins	t0,zero,0x0,0x2
9d0077c0:	ace810d0 	sw	t0,4304(a3)
	
	OC3CONbits.ON = 1;
9d0077c4:	94673400 	lhu	a3,13312(v1)
9d0077c8:	7c477bc4 	ins	a3,v0,0xf,0x1
9d0077cc:	a4673400 	sh	a3,13312(v1)
	T2CONbits.ON = 1; //for 20KHz OC PWM
9d0077d0:	94a30800 	lhu	v1,2048(a1)
9d0077d4:	7c437bc4 	ins	v1,v0,0xf,0x1
9d0077d8:	a4a30800 	sh	v1,2048(a1)
	T3CONbits.ON = 1; //for 5KHz current control ISR
9d0077dc:	94c30a00 	lhu	v1,2560(a2)
9d0077e0:	7c437bc4 	ins	v1,v0,0xf,0x1
9d0077e4:	a4c30a00 	sh	v1,2560(a2)
	T4CONbits.ON = 1; //for 200Hz position control ISR
9d0077e8:	94830c00 	lhu	v1,3072(a0)
9d0077ec:	7c437bc4 	ins	v1,v0,0xf,0x1
9d0077f0:	a4830c00 	sh	v1,3072(a0)

	
	IEC0bits.T3IE = 1;
9d0077f4:	3c03bf88 	lui	v1,0xbf88
9d0077f8:	8c641060 	lw	a0,4192(v1)
9d0077fc:	7c446304 	ins	a0,v0,0xc,0x1
9d007800:	ac641060 	sw	a0,4192(v1)
	IEC0bits.T4IE = 1;
9d007804:	8c641060 	lw	a0,4192(v1)
9d007808:	7c448404 	ins	a0,v0,0x10,0x1
9d00780c:	ac641060 	sw	a0,4192(v1)

}
9d007810:	03e00008 	jr	ra
9d007814:	00000000 	nop

9d007818 <adc_sample_convert>:

unsigned int adc_sample_convert(int pin) { // sample & convert the value on the given 
9d007818:	27bdfff8 	addiu	sp,sp,-8
9d00781c:	afbf0004 	sw	ra,4(sp)
                                           // adc pin the pin should be configured as an 
                                           // analog input in AD1PCFG
    unsigned int elapsed = 0, finish_time = 0;
    AD1CHSbits.CH0SA = pin;                // connect chosen pin to MUXA for sampling
9d007820:	3c02bf81 	lui	v0,0xbf81
9d007824:	8c439040 	lw	v1,-28608(v0)
9d007828:	7c839c04 	ins	v1,a0,0x10,0x4
9d00782c:	ac439040 	sw	v1,-28608(v0)
    AD1CON1bits.SAMP = 1;                  // start sampling
9d007830:	3c02bf81 	lui	v0,0xbf81
9d007834:	94439000 	lhu	v1,-28672(v0)
9d007838:	24040001 	li	a0,1
9d00783c:	7c830844 	ins	v1,a0,0x1,0x1
9d007840:	a4439000 	sh	v1,-28672(v0)
    elapsed = _CP0_GET_COUNT();
9d007844:	40034800 	mfc0	v1,c0_count
    finish_time = elapsed + SAMPLE_TIME;
9d007848:	2463000a 	addiu	v1,v1,10
    while (_CP0_GET_COUNT() < finish_time) { 
9d00784c:	40024800 	mfc0	v0,c0_count
9d007850:	0043102b 	sltu	v0,v0,v1
9d007854:	1440fffd 	bnez	v0,9d00784c <adc_sample_convert+0x34>
9d007858:	3c02bf81 	lui	v0,0xbf81
      ;                                   // sample for more than 250 ns
    }
    AD1CON1bits.SAMP = 0;                 // stop sampling and start converting
9d00785c:	94439000 	lhu	v1,-28672(v0)
9d007860:	7c030844 	ins	v1,zero,0x1,0x1
9d007864:	a4439000 	sh	v1,-28672(v0)
    while (!AD1CON1bits.DONE) {
9d007868:	00401825 	move	v1,v0
9d00786c:	8c629000 	lw	v0,-28672(v1)
9d007870:	30420001 	andi	v0,v0,0x1
9d007874:	1040fffd 	beqz	v0,9d00786c <adc_sample_convert+0x54>
9d007878:	3c02bf81 	lui	v0,0xbf81
      ;                                   // wait for the conversion process to finish
    }
    return ADC1BUF0;                      // read the buffer with the result
9d00787c:	8c429070 	lw	v0,-28560(v0)
9d007880:	8fbf0004 	lw	ra,4(sp)
9d007884:	03e00008 	jr	ra
9d007888:	27bd0008 	addiu	sp,sp,8

Disassembly of section .text.strtol:

9d00788c <strtol>:
9d00788c:	3c079d01 	lui	a3,0x9d01
9d007890:	00801025 	move	v0,a0
9d007894:	24e7864d 	addiu	a3,a3,-31155
9d007898:	804a0000 	lb	t2,0(v0)
9d00789c:	1140000f 	beqz	t2,9d0078dc <strtol+0x50>
9d0078a0:	00000000 	nop
9d0078a4:	01471821 	addu	v1,t2,a3
9d0078a8:	80630000 	lb	v1,0(v1)
9d0078ac:	30630088 	andi	v1,v1,0x88
9d0078b0:	5460fff9 	bnezl	v1,9d007898 <strtol+0xc>
9d0078b4:	24420001 	addiu	v0,v0,1
9d0078b8:	2403002b 	li	v1,43
9d0078bc:	51430005 	beql	t2,v1,9d0078d4 <strtol+0x48>
9d0078c0:	394a002d 	xori	t2,t2,0x2d
9d0078c4:	2403002d 	li	v1,45
9d0078c8:	55430004 	bnel	t2,v1,9d0078dc <strtol+0x50>
9d0078cc:	00005025 	move	t2,zero
9d0078d0:	394a002d 	xori	t2,t2,0x2d
9d0078d4:	2d4a0001 	sltiu	t2,t2,1
9d0078d8:	24420001 	addiu	v0,v0,1
9d0078dc:	14c0002e 	bnez	a2,9d007998 <strtol+0x10c>
9d0078e0:	80430000 	lb	v1,0(v0)
9d0078e4:	24060030 	li	a2,48
9d0078e8:	14660039 	bne	v1,a2,9d0079d0 <strtol+0x144>
9d0078ec:	00005825 	move	t3,zero
9d0078f0:	80430001 	lb	v1,1(v0)
9d0078f4:	24060058 	li	a2,88
9d0078f8:	7c032944 	ins	v1,zero,0x5,0x1
9d0078fc:	50660023 	beql	v1,a2,9d00798c <strtol+0x100>
9d007900:	24420002 	addiu	v0,v0,2
9d007904:	24420001 	addiu	v0,v0,1
9d007908:	240b0001 	li	t3,1
9d00790c:	24060008 	li	a2,8
9d007910:	3c077fff 	lui	a3,0x7fff
9d007914:	34e7ffff 	ori	a3,a3,0xffff
9d007918:	00e6001a 	div	zero,a3,a2
9d00791c:	00c001f4 	teq	a2,zero,0x7
9d007920:	3c0d9d01 	lui	t5,0x9d01
9d007924:	2443ffff 	addiu	v1,v0,-1
9d007928:	00006025 	move	t4,zero
9d00792c:	00001025 	move	v0,zero
9d007930:	25ad864d 	addiu	t5,t5,-31155
9d007934:	240e0041 	li	t6,65
9d007938:	240f0061 	li	t7,97
9d00793c:	00e04825 	move	t1,a3
9d007940:	0000c812 	mflo	t9
9d007944:	24630001 	addiu	v1,v1,1
9d007948:	80670000 	lb	a3,0(v1)
9d00794c:	14e00022 	bnez	a3,9d0079d8 <strtol+0x14c>
9d007950:	00ed4021 	addu	t0,a3,t5
9d007954:	1140003c 	beqz	t2,9d007a48 <strtol+0x1bc>
9d007958:	00000000 	nop
9d00795c:	1180003c 	beqz	t4,9d007a50 <strtol+0x1c4>
9d007960:	00021023 	negu	v0,v0
9d007964:	3c02a000 	lui	v0,0xa000
9d007968:	24060022 	li	a2,34
9d00796c:	ac460088 	sw	a2,136(v0)
9d007970:	15400037 	bnez	t2,9d007a50 <strtol+0x1c4>
9d007974:	3c028000 	lui	v0,0x8000
9d007978:	3c027fff 	lui	v0,0x7fff
9d00797c:	10000034 	b	9d007a50 <strtol+0x1c4>
9d007980:	3442ffff 	ori	v0,v0,0xffff
9d007984:	1000ffd5 	b	9d0078dc <strtol+0x50>
9d007988:	00005025 	move	t2,zero
9d00798c:	240b0001 	li	t3,1
9d007990:	1000ffdf 	b	9d007910 <strtol+0x84>
9d007994:	24060010 	li	a2,16
9d007998:	24070010 	li	a3,16
9d00799c:	14c7ffdc 	bne	a2,a3,9d007910 <strtol+0x84>
9d0079a0:	00005825 	move	t3,zero
9d0079a4:	24070030 	li	a3,48
9d0079a8:	1467ffda 	bne	v1,a3,9d007914 <strtol+0x88>
9d0079ac:	3c077fff 	lui	a3,0x7fff
9d0079b0:	80430001 	lb	v1,1(v0)
9d0079b4:	24070058 	li	a3,88
9d0079b8:	7c032944 	ins	v1,zero,0x5,0x1
9d0079bc:	50670002 	beql	v1,a3,9d0079c8 <strtol+0x13c>
9d0079c0:	24420002 	addiu	v0,v0,2
9d0079c4:	24420001 	addiu	v0,v0,1
9d0079c8:	1000ffd1 	b	9d007910 <strtol+0x84>
9d0079cc:	240b0001 	li	t3,1
9d0079d0:	1000ffcf 	b	9d007910 <strtol+0x84>
9d0079d4:	2406000a 	li	a2,10
9d0079d8:	91080000 	lbu	t0,0(t0)
9d0079dc:	31180004 	andi	t8,t0,0x4
9d0079e0:	13000012 	beqz	t8,9d007a2c <strtol+0x1a0>
9d0079e4:	31180003 	andi	t8,t0,0x3
9d0079e8:	24e7ffd0 	addiu	a3,a3,-48
9d0079ec:	04e0ffd9 	bltz	a3,9d007954 <strtol+0xc8>
9d0079f0:	00e6402a 	slt	t0,a3,a2
9d0079f4:	1100ffd7 	beqz	t0,9d007954 <strtol+0xc8>
9d0079f8:	0322402a 	slt	t0,t9,v0
9d0079fc:	55000009 	bnezl	t0,9d007a24 <strtol+0x198>
9d007a00:	240c0001 	li	t4,1
9d007a04:	5580ffcf 	bnezl	t4,9d007944 <strtol+0xb8>
9d007a08:	240b0001 	li	t3,1
9d007a0c:	70461002 	mul	v0,v0,a2
9d007a10:	01224023 	subu	t0,t1,v0
9d007a14:	0107402a 	slt	t0,t0,a3
9d007a18:	55000002 	bnezl	t0,9d007a24 <strtol+0x198>
9d007a1c:	240c0001 	li	t4,1
9d007a20:	00471021 	addu	v0,v0,a3
9d007a24:	1000ffc7 	b	9d007944 <strtol+0xb8>
9d007a28:	240b0001 	li	t3,1
9d007a2c:	1300ffc9 	beqz	t8,9d007954 <strtol+0xc8>
9d007a30:	31080001 	andi	t0,t0,0x1
9d007a34:	01e0c025 	move	t8,t7
9d007a38:	01c8c00b 	movn	t8,t6,t0
9d007a3c:	00f83823 	subu	a3,a3,t8
9d007a40:	1000ffea 	b	9d0079ec <strtol+0x160>
9d007a44:	24e7000a 	addiu	a3,a3,10
9d007a48:	5580ffc7 	bnezl	t4,9d007968 <strtol+0xdc>
9d007a4c:	3c02a000 	lui	v0,0xa000
9d007a50:	10a00002 	beqz	a1,9d007a5c <strtol+0x1d0>
9d007a54:	006b200b 	movn	a0,v1,t3
9d007a58:	aca40000 	sw	a0,0(a1)
9d007a5c:	03e00008 	jr	ra
9d007a60:	00000000 	nop

Disassembly of section .text.strtoul:

9d007a64 <strtoul>:
9d007a64:	3c079d01 	lui	a3,0x9d01
9d007a68:	00801025 	move	v0,a0
9d007a6c:	24e7864d 	addiu	a3,a3,-31155
9d007a70:	80480000 	lb	t0,0(v0)
9d007a74:	1100000f 	beqz	t0,9d007ab4 <strtoul+0x50>
9d007a78:	00000000 	nop
9d007a7c:	01071821 	addu	v1,t0,a3
9d007a80:	80630000 	lb	v1,0(v1)
9d007a84:	30630088 	andi	v1,v1,0x88
9d007a88:	5460fff9 	bnezl	v1,9d007a70 <strtoul+0xc>
9d007a8c:	24420001 	addiu	v0,v0,1
9d007a90:	2403002b 	li	v1,43
9d007a94:	51030005 	beql	t0,v1,9d007aac <strtoul+0x48>
9d007a98:	3908002d 	xori	t0,t0,0x2d
9d007a9c:	2403002d 	li	v1,45
9d007aa0:	55030004 	bnel	t0,v1,9d007ab4 <strtoul+0x50>
9d007aa4:	00004025 	move	t0,zero
9d007aa8:	3908002d 	xori	t0,t0,0x2d
9d007aac:	2d080001 	sltiu	t0,t0,1
9d007ab0:	24420001 	addiu	v0,v0,1
9d007ab4:	14c00025 	bnez	a2,9d007b4c <strtoul+0xe8>
9d007ab8:	80430000 	lb	v1,0(v0)
9d007abc:	24060030 	li	a2,48
9d007ac0:	14660030 	bne	v1,a2,9d007b84 <strtoul+0x120>
9d007ac4:	00004825 	move	t1,zero
9d007ac8:	80430001 	lb	v1,1(v0)
9d007acc:	24060058 	li	a2,88
9d007ad0:	7c032944 	ins	v1,zero,0x5,0x1
9d007ad4:	5066001a 	beql	v1,a2,9d007b40 <strtoul+0xdc>
9d007ad8:	24420002 	addiu	v0,v0,2
9d007adc:	24420001 	addiu	v0,v0,1
9d007ae0:	24090001 	li	t1,1
9d007ae4:	24060008 	li	a2,8
9d007ae8:	3c0c9d01 	lui	t4,0x9d01
9d007aec:	2443ffff 	addiu	v1,v0,-1
9d007af0:	00005825 	move	t3,zero
9d007af4:	00001025 	move	v0,zero
9d007af8:	258c864d 	addiu	t4,t4,-31155
9d007afc:	240d0041 	li	t5,65
9d007b00:	240e0061 	li	t6,97
9d007b04:	24630001 	addiu	v1,v1,1
9d007b08:	80670000 	lb	a3,0(v1)
9d007b0c:	14e0001f 	bnez	a3,9d007b8c <strtoul+0x128>
9d007b10:	00ec5021 	addu	t2,a3,t4
9d007b14:	1100003b 	beqz	t0,9d007c04 <strtoul+0x1a0>
9d007b18:	00000000 	nop
9d007b1c:	1160003b 	beqz	t3,9d007c0c <strtoul+0x1a8>
9d007b20:	00021023 	negu	v0,v0
9d007b24:	3c02a000 	lui	v0,0xa000
9d007b28:	24060022 	li	a2,34
9d007b2c:	ac460088 	sw	a2,136(v0)
9d007b30:	10000036 	b	9d007c0c <strtoul+0x1a8>
9d007b34:	2402ffff 	li	v0,-1
9d007b38:	1000ffde 	b	9d007ab4 <strtoul+0x50>
9d007b3c:	00004025 	move	t0,zero
9d007b40:	24090001 	li	t1,1
9d007b44:	1000ffe8 	b	9d007ae8 <strtoul+0x84>
9d007b48:	24060010 	li	a2,16
9d007b4c:	24070010 	li	a3,16
9d007b50:	14c7ffe5 	bne	a2,a3,9d007ae8 <strtoul+0x84>
9d007b54:	00004825 	move	t1,zero
9d007b58:	24070030 	li	a3,48
9d007b5c:	1467ffe3 	bne	v1,a3,9d007aec <strtoul+0x88>
9d007b60:	3c0c9d01 	lui	t4,0x9d01
9d007b64:	80430001 	lb	v1,1(v0)
9d007b68:	24070058 	li	a3,88
9d007b6c:	7c032944 	ins	v1,zero,0x5,0x1
9d007b70:	50670002 	beql	v1,a3,9d007b7c <strtoul+0x118>
9d007b74:	24420002 	addiu	v0,v0,2
9d007b78:	24420001 	addiu	v0,v0,1
9d007b7c:	1000ffda 	b	9d007ae8 <strtoul+0x84>
9d007b80:	24090001 	li	t1,1
9d007b84:	1000ffd8 	b	9d007ae8 <strtoul+0x84>
9d007b88:	2406000a 	li	a2,10
9d007b8c:	914a0000 	lbu	t2,0(t2)
9d007b90:	314f0004 	andi	t7,t2,0x4
9d007b94:	11e00014 	beqz	t7,9d007be8 <strtoul+0x184>
9d007b98:	314f0003 	andi	t7,t2,0x3
9d007b9c:	24e7ffd0 	addiu	a3,a3,-48
9d007ba0:	04e0ffdc 	bltz	a3,9d007b14 <strtoul+0xb0>
9d007ba4:	00e6502a 	slt	t2,a3,a2
9d007ba8:	1140ffda 	beqz	t2,9d007b14 <strtoul+0xb0>
9d007bac:	00460019 	multu	v0,a2
9d007bb0:	00004810 	mfhi	t1
9d007bb4:	5520000a 	bnezl	t1,9d007be0 <strtoul+0x17c>
9d007bb8:	240b0001 	li	t3,1
9d007bbc:	15600008 	bnez	t3,9d007be0 <strtoul+0x17c>
9d007bc0:	240b0001 	li	t3,1
9d007bc4:	70461002 	mul	v0,v0,a2
9d007bc8:	00024827 	nor	t1,zero,v0
9d007bcc:	0127482b 	sltu	t1,t1,a3
9d007bd0:	5520ffcc 	bnezl	t1,9d007b04 <strtoul+0xa0>
9d007bd4:	24090001 	li	t1,1
9d007bd8:	00471021 	addu	v0,v0,a3
9d007bdc:	00005825 	move	t3,zero
9d007be0:	1000ffc8 	b	9d007b04 <strtoul+0xa0>
9d007be4:	24090001 	li	t1,1
9d007be8:	11e0ffca 	beqz	t7,9d007b14 <strtoul+0xb0>
9d007bec:	314a0001 	andi	t2,t2,0x1
9d007bf0:	01c07825 	move	t7,t6
9d007bf4:	01aa780b 	movn	t7,t5,t2
9d007bf8:	00ef3823 	subu	a3,a3,t7
9d007bfc:	1000ffe8 	b	9d007ba0 <strtoul+0x13c>
9d007c00:	24e7000a 	addiu	a3,a3,10
9d007c04:	5560ffc8 	bnezl	t3,9d007b28 <strtoul+0xc4>
9d007c08:	3c02a000 	lui	v0,0xa000
9d007c0c:	10a00002 	beqz	a1,9d007c18 <strtoul+0x1b4>
9d007c10:	0069200b 	movn	a0,v1,t1
9d007c14:	aca40000 	sw	a0,0(a1)
9d007c18:	03e00008 	jr	ra
9d007c1c:	00000000 	nop

Disassembly of section .text.fp32mul:

9d007c20 <__mulsf3>:
9d007c20:	00043dc2 30e700ff 00054dc2 312900ff     .=.....0.M....)1
9d007c30:	3c0a8000 00043200 00ca3025 00054200     ...<.2..%0...B..
9d007c40:	010a4025 00856026 014c5024 24ecffff     %@..&`..$PL....$
9d007c50:	2d8100fe 10200021 00000000              ...-!. .....

9d007c5c <Clab1>:
9d007c5c:	252cffff 	addiu	t4,t1,-1
9d007c60:	2d8100fe 	sltiu	at,t4,254
9d007c64:	10200036 	beqz	at,9d007d40 <CspecB>
9d007c68:	00000000 	nop

9d007c6c <Clab2>:
9d007c6c:	00c80019 	multu	a2,t0
9d007c70:	00005812 	mflo	t3
9d007c74:	11600002 	beqz	t3,9d007c80 <i17>
9d007c78:	00003010 	mfhi	a2
9d007c7c:	34c60001 	ori	a2,a2,0x1

9d007c80 <i17>:
9d007c80:	04c00003 	bltz	a2,9d007c90 <i18>
9d007c84:	00000000 	nop
9d007c88:	00063040 	sll	a2,a2,0x1
9d007c8c:	24e7ffff 	addiu	a3,a3,-1

9d007c90 <i18>:
9d007c90:	252cff82 	addiu	t4,t1,-126
9d007c94:	00ec3821 	addu	a3,a3,t4
9d007c98:	24ecffff 	addiu	t4,a3,-1
9d007c9c:	2d8100fe 	sltiu	at,t4,254
9d007ca0:	1020003a 	beqz	at,9d007d8c <Coveund>
9d007ca4:	00000000 	nop

9d007ca8 <Clab8>:
9d007ca8:	24c60080 	addiu	a2,a2,128
9d007cac:	2ccc0080 	sltiu	t4,a2,128
9d007cb0:	00ec3821 	addu	a3,a3,t4
9d007cb4:	00066202 	srl	t4,a2,0x8
9d007cb8:	318c0001 	andi	t4,t4,0x1
9d007cbc:	00cc3023 	subu	a2,a2,t4
9d007cc0:	00063040 	sll	a2,a2,0x1
9d007cc4:	00063242 	srl	a2,a2,0x9
9d007cc8:	000765c0 	sll	t4,a3,0x17
9d007ccc:	00cc3025 	or	a2,a2,t4
9d007cd0:	00ca1025 	or	v0,a2,t2

9d007cd4 <C999>:
9d007cd4:	03e00008 	jr	ra
9d007cd8:	00000000 	nop

9d007cdc <CspecA>:
9d007cdc:	14e0000d 	bnez	a3,9d007d14 <i19>
9d007ce0:	00000000 	nop
9d007ce4:	00c63021 	addu	a2,a2,a2
9d007ce8:	10c00005 	beqz	a2,9d007d00 <i20>
9d007cec:	00000000 	nop
9d007cf0:	70cb5820 	clz	t3,a2
9d007cf4:	00eb3823 	subu	a3,a3,t3
9d007cf8:	1000ffd8 	b	9d007c5c <Clab1>
9d007cfc:	01663004 	sllv	a2,a2,t3

9d007d00 <i20>:
9d007d00:	240100ff 	li	at,255
9d007d04:	1121001f 	beq	t1,at,9d007d84 <Cnan>
9d007d08:	00000000 	nop
9d007d0c:	10000015 	b	9d007d64 <Czer>
9d007d10:	00000000 	nop

9d007d14 <i19>:
9d007d14:	00c66021 	addu	t4,a2,a2
9d007d18:	1580001a 	bnez	t4,9d007d84 <Cnan>
9d007d1c:	00000000 	nop
9d007d20:	15200004 	bnez	t1,9d007d34 <i21>
9d007d24:	00000000 	nop
9d007d28:	01086021 	addu	t4,t0,t0
9d007d2c:	11800015 	beqz	t4,9d007d84 <Cnan>
9d007d30:	00000000 	nop

9d007d34 <i21>:
9d007d34:	240100ff 	li	at,255
9d007d38:	1521000f 	bne	t1,at,9d007d78 <Cinf>
9d007d3c:	00000000 	nop

9d007d40 <CspecB>:
9d007d40:	1520000a 	bnez	t1,9d007d6c <i22>
9d007d44:	00000000 	nop
9d007d48:	01084021 	addu	t0,t0,t0
9d007d4c:	11000005 	beqz	t0,9d007d64 <Czer>
9d007d50:	00000000 	nop
9d007d54:	710b5820 	clz	t3,t0
9d007d58:	012b4823 	subu	t1,t1,t3
9d007d5c:	1000ffc3 	b	9d007c6c <Clab2>
9d007d60:	01684004 	sllv	t0,t0,t3

9d007d64 <Czer>:
9d007d64:	1000ffdb 	b	9d007cd4 <C999>
9d007d68:	000a1025 	or	v0,zero,t2

9d007d6c <i22>:
9d007d6c:	01086021 	addu	t4,t0,t0
9d007d70:	15800004 	bnez	t4,9d007d84 <Cnan>
9d007d74:	00000000 	nop

9d007d78 <Cinf>:
9d007d78:	3c017f80 	lui	at,0x7f80
9d007d7c:	1000ffd5 	b	9d007cd4 <C999>
9d007d80:	01411025 	or	v0,t2,at

9d007d84 <Cnan>:
9d007d84:	1000ffd3 	b	9d007cd4 <C999>
9d007d88:	3c02ffc0 	lui	v0,0xffc0

9d007d8c <Coveund>:
9d007d8c:	1ce0fffa 	bgtz	a3,9d007d78 <Cinf>
9d007d90:	00000000 	nop
9d007d94:	240b0001 	li	t3,1
9d007d98:	01675823 	subu	t3,t3,a3
9d007d9c:	2d610020 	sltiu	at,t3,32
9d007da0:	1020fff0 	beqz	at,9d007d64 <Czer>
9d007da4:	00000000 	nop
9d007da8:	240c0020 	li	t4,32
9d007dac:	018b6023 	subu	t4,t4,t3
9d007db0:	01863804 	sllv	a3,a2,t4
9d007db4:	10e00002 	beqz	a3,9d007dc0 <i25>
9d007db8:	01663006 	srlv	a2,a2,t3
9d007dbc:	34c60002 	ori	a2,a2,0x2

9d007dc0 <i25>:
9d007dc0:	24070000 	li	a3,0
9d007dc4:	24cc0080 	addiu	t4,a2,128
9d007dc8:	0581ffb7 	bgez	t4,9d007ca8 <Clab8>
9d007dcc:	00000000 	nop
9d007dd0:	1000ffb5 	b	9d007ca8 <Clab8>
9d007dd4:	24070001 	li	a3,1
9d007dd8:	00000000 	nop

Disassembly of section .text.__ldexp:

9d007ddc <__ldexp>:
9d007ddc:	7ca25500 	ext	v0,a1,0x14,0xb
9d007de0:	2447ffff 	addiu	a3,v0,-1
9d007de4:	2ce707fe 	sltiu	a3,a3,2046
9d007de8:	00054fc2 	srl	t1,a1,0x1f
9d007dec:	10e00018 	beqz	a3,9d007e50 <__ldexp+0x74>
9d007df0:	7ca39800 	ext	v1,a1,0x0,0x14
9d007df4:	3c050010 	lui	a1,0x10
9d007df8:	2442fc01 	addiu	v0,v0,-1023
9d007dfc:	00651825 	or	v1,v1,a1
9d007e00:	00463021 	addu	a2,v0,a2
9d007e04:	000340c0 	sll	t0,v1,0x3
9d007e08:	00041742 	srl	v0,a0,0x1d
9d007e0c:	24c703ff 	addiu	a3,a2,1023
9d007e10:	00484025 	or	t0,v0,t0
9d007e14:	000450c0 	sll	t2,a0,0x3
9d007e18:	18e00015 	blez	a3,9d007e70 <__ldexp+0x94>
9d007e1c:	00092ac0 	sll	a1,t1,0xb
9d007e20:	28e207ff 	slti	v0,a3,2047
9d007e24:	10400031 	beqz	v0,9d007eec <__ldexp+0x110>
9d007e28:	7c63e000 	ext	v1,v1,0x0,0x1d
9d007e2c:	7c620500 	ext	v0,v1,0x14,0x1
9d007e30:	50400004 	beqzl	v0,9d007e44 <__ldexp+0x68>
9d007e34:	00052d00 	sll	a1,a1,0x14
9d007e38:	7c639800 	ext	v1,v1,0x0,0x14
9d007e3c:	00a72825 	or	a1,a1,a3
9d007e40:	00052d00 	sll	a1,a1,0x14
9d007e44:	00801025 	move	v0,a0
9d007e48:	03e00008 	jr	ra
9d007e4c:	00a31825 	or	v1,a1,v1
9d007e50:	14400005 	bnez	v0,9d007e68 <__ldexp+0x8c>
9d007e54:	00801025 	move	v0,a0
9d007e58:	00641025 	or	v0,v1,a0
9d007e5c:	14400029 	bnez	v0,9d007f04 <__ldexp+0x128>
9d007e60:	00000000 	nop
9d007e64:	00801025 	move	v0,a0
9d007e68:	03e00008 	jr	ra
9d007e6c:	00a01825 	move	v1,a1
9d007e70:	24030001 	li	v1,1
9d007e74:	00673823 	subu	a3,v1,a3
9d007e78:	28e20038 	slti	v0,a3,56
9d007e7c:	1040001f 	beqz	v0,9d007efc <__ldexp+0x120>
9d007e80:	00002025 	move	a0,zero
9d007e84:	00071827 	nor	v1,zero,a3
9d007e88:	00081040 	sll	v0,t0,0x1
9d007e8c:	00621004 	sllv	v0,v0,v1
9d007e90:	24c603fe 	addiu	a2,a2,1022
9d007e94:	00ea1806 	srlv	v1,t2,a3
9d007e98:	30e40020 	andi	a0,a3,0x20
9d007e9c:	00431825 	or	v1,v0,v1
9d007ea0:	00e83806 	srlv	a3,t0,a3
9d007ea4:	30c90020 	andi	t1,a2,0x20
9d007ea8:	00e4180b 	movn	v1,a3,a0
9d007eac:	00ca1004 	sllv	v0,t2,a2
9d007eb0:	15200003 	bnez	t1,9d007ec0 <__ldexp+0xe4>
9d007eb4:	0004380b 	movn	a3,zero,a0
9d007eb8:	00c83004 	sllv	a2,t0,a2
9d007ebc:	00ca1025 	or	v0,a2,t2
9d007ec0:	0002202b 	sltu	a0,zero,v0
9d007ec4:	00832025 	or	a0,a0,v1
9d007ec8:	30820007 	andi	v0,a0,0x7
9d007ecc:	1440001e 	bnez	v0,9d007f48 <__ldexp+0x16c>
9d007ed0:	7c8200c0 	ext	v0,a0,0x3,0x1
9d007ed4:	00071740 	sll	v0,a3,0x1d
9d007ed8:	000420c2 	srl	a0,a0,0x3
9d007edc:	000718c2 	srl	v1,a3,0x3
9d007ee0:	00442025 	or	a0,v0,a0
9d007ee4:	1000ffd1 	b	9d007e2c <__ldexp+0x50>
9d007ee8:	24070001 	li	a3,1
9d007eec:	34a307ff 	ori	v1,a1,0x7ff
9d007ef0:	00031d00 	sll	v1,v1,0x14
9d007ef4:	03e00008 	jr	ra
9d007ef8:	00001025 	move	v0,zero
9d007efc:	1000ffd0 	b	9d007e40 <__ldexp+0x64>
9d007f00:	00001825 	move	v1,zero
9d007f04:	14600003 	bnez	v1,9d007f14 <__ldexp+0x138>
9d007f08:	70621020 	clz	v0,v1
9d007f0c:	70821020 	clz	v0,a0
9d007f10:	24420020 	addiu	v0,v0,32
9d007f14:	2442fff5 	addiu	v0,v0,-11
9d007f18:	00023827 	nor	a3,zero,v0
9d007f1c:	00042842 	srl	a1,a0,0x1
9d007f20:	00e52806 	srlv	a1,a1,a3
9d007f24:	00431804 	sllv	v1,v1,v0
9d007f28:	30480020 	andi	t0,v0,0x20
9d007f2c:	00442004 	sllv	a0,a0,v0
9d007f30:	00a31825 	or	v1,a1,v1
9d007f34:	2407fc02 	li	a3,-1022
9d007f38:	0088180b 	movn	v1,a0,t0
9d007f3c:	00e21023 	subu	v0,a3,v0
9d007f40:	1000ffaf 	b	9d007e00 <__ldexp+0x24>
9d007f44:	0008200b 	movn	a0,zero,t0
9d007f48:	24420003 	addiu	v0,v0,3
9d007f4c:	00442021 	addu	a0,v0,a0
9d007f50:	0082102b 	sltu	v0,a0,v0
9d007f54:	00471821 	addu	v1,v0,a3
9d007f58:	7c620600 	ext	v0,v1,0x18,0x1
9d007f5c:	10400006 	beqz	v0,9d007f78 <__ldexp+0x19c>
9d007f60:	00031700 	sll	v0,v1,0x1c
9d007f64:	00042102 	srl	a0,a0,0x4
9d007f68:	00442025 	or	a0,v0,a0
9d007f6c:	00031902 	srl	v1,v1,0x4
9d007f70:	1000ffae 	b	9d007e2c <__ldexp+0x50>
9d007f74:	24070002 	li	a3,2
9d007f78:	00031740 	sll	v0,v1,0x1d
9d007f7c:	000420c2 	srl	a0,a0,0x3
9d007f80:	00442025 	or	a0,v0,a0
9d007f84:	000318c2 	srl	v1,v1,0x3
9d007f88:	1000ffa8 	b	9d007e2c <__ldexp+0x50>
9d007f8c:	24070001 	li	a3,1

Disassembly of section .text:

9d007f90 <NU32_Startup>:

// Perform startup routines:
//  Make NU32_LED1 and NU32_LED2 pins outputs (NU32_USER is by default an input)
//  Initialize the serial port - UART3 (no interrupt) 
//  Enable interrupts
void NU32_Startup() {
9d007f90:	27bdfff8 	addiu	sp,sp,-8
9d007f94:	afbf0004 	sw	ra,4(sp)
  // disable interrupts
  __builtin_disable_interrupts();
9d007f98:	41626000 	di	v0
9d007f9c:	000000c0 	ehb
  // see Chapter 2 "CPU for Devices with M4K Core" of the PIC32 reference manual
  // most of the other bits have prescribed values
  // microchip does not provide a _CP0_SET_CONFIG macro, so we directly use
  // the compiler built-in command _mtc0
  // to disable cache, use 0xa4210582 
  __builtin_mtc0(_CP0_CONFIG, _CP0_CONFIG_SELECT, 0xa4210583); 
9d007fa0:	3c02a421 	lui	v0,0xa421
9d007fa4:	24420583 	addiu	v0,v0,1411
9d007fa8:	40828000 	mtc0	v0,c0_config
9d007fac:	000000c0 	ehb
  
  // set the prefectch cache wait state to 2, as per the
  // electrical characteristics data sheet
  CHECONbits.PFMWS = 0x2;   
9d007fb0:	3c02bf88 	lui	v0,0xbf88
9d007fb4:	8c434000 	lw	v1,16384(v0)
9d007fb8:	24050002 	li	a1,2
9d007fbc:	7ca31004 	ins	v1,a1,0x0,0x3
9d007fc0:	ac434000 	sw	v1,16384(v0)

  //enable prefetch for cacheable and noncacheable memory
  CHECONbits.PREFEN = 0x3; 
9d007fc4:	8c434000 	lw	v1,16384(v0)
9d007fc8:	24040003 	li	a0,3
9d007fcc:	7c832904 	ins	v1,a0,0x4,0x2
9d007fd0:	ac434000 	sw	v1,16384(v0)

  // 0 data RAM access wait states
  BMXCONbits.BMXWSDRM = 0x0;
9d007fd4:	3c02bf88 	lui	v0,0xbf88
9d007fd8:	8c432000 	lw	v1,8192(v0)
9d007fdc:	7c033184 	ins	v1,zero,0x6,0x1
9d007fe0:	ac432000 	sw	v1,8192(v0)
  
  // enable multi vector interrupts
  INTCONbits.MVEC = 0x1;
9d007fe4:	3c02bf88 	lui	v0,0xbf88
9d007fe8:	8c461000 	lw	a2,4096(v0)
9d007fec:	24030001 	li	v1,1
9d007ff0:	7c666304 	ins	a2,v1,0xc,0x1
9d007ff4:	ac461000 	sw	a2,4096(v0)

  // disable JTAG to get B10, B11, B12 and B13 back
  DDPCONbits.JTAGEN = 0;
9d007ff8:	3c02bf81 	lui	v0,0xbf81
9d007ffc:	9046f200 	lbu	a2,-3584(v0)
9d008000:	7c0618c4 	ins	a2,zero,0x3,0x1
9d008004:	a046f200 	sb	a2,-3584(v0)

  TRISFCLR = 0x0003;  // Make F0 and F1 outputs (LED1 and LED2)
9d008008:	3c02bf88 	lui	v0,0xbf88
9d00800c:	ac446144 	sw	a0,24900(v0)
  NU32_LED1 = 1;      // LED1 is off
9d008010:	3c02bf88 	lui	v0,0xbf88
9d008014:	90446160 	lbu	a0,24928(v0)
9d008018:	7c640004 	ins	a0,v1,0x0,0x1
9d00801c:	a0446160 	sb	a0,24928(v0)
  NU32_LED2 = 0;      // LED2 is on
9d008020:	90446160 	lbu	a0,24928(v0)
9d008024:	7c040844 	ins	a0,zero,0x1,0x1
9d008028:	a0446160 	sb	a0,24928(v0)

  // turn on UART3 without an interrupt
  U3MODEbits.BRGH = 0; // set baud to NU32_DESIRED_BAUD
9d00802c:	3c02bf80 	lui	v0,0xbf80
9d008030:	94446400 	lhu	a0,25600(v0)
9d008034:	7c0418c4 	ins	a0,zero,0x3,0x1
9d008038:	a4446400 	sh	a0,25600(v0)
  U3BRG = ((NU32_SYS_FREQ / NU32_DESIRED_BAUD) / 16) - 1;
9d00803c:	3c04bf80 	lui	a0,0xbf80
9d008040:	24060014 	li	a2,20
9d008044:	ac866440 	sw	a2,25664(a0)

  // 8 bit, no parity bit, and 1 stop bit (8N1 setup)
  U3MODEbits.PDSEL = 0;
9d008048:	94446400 	lhu	a0,25600(v0)
9d00804c:	7c041044 	ins	a0,zero,0x1,0x2
9d008050:	a4446400 	sh	a0,25600(v0)
  U3MODEbits.STSEL = 0;
9d008054:	94446400 	lhu	a0,25600(v0)
9d008058:	7c040004 	ins	a0,zero,0x0,0x1
9d00805c:	a4446400 	sh	a0,25600(v0)

  // configure TX & RX pins as output & input pins
  U3STAbits.UTXEN = 1;
9d008060:	3c04bf80 	lui	a0,0xbf80
9d008064:	8c866410 	lw	a2,25616(a0)
9d008068:	7c665284 	ins	a2,v1,0xa,0x1
9d00806c:	ac866410 	sw	a2,25616(a0)
  U3STAbits.URXEN = 1;
9d008070:	8c866410 	lw	a2,25616(a0)
9d008074:	7c666304 	ins	a2,v1,0xc,0x1
9d008078:	ac866410 	sw	a2,25616(a0)
  // configure hardware flow control using RTS and CTS
  U3MODEbits.UEN = 2;
9d00807c:	94446400 	lhu	a0,25600(v0)
9d008080:	7ca44a04 	ins	a0,a1,0x8,0x2
9d008084:	a4446400 	sh	a0,25600(v0)

  // enable the uart
  U3MODEbits.ON = 1;
9d008088:	94446400 	lhu	a0,25600(v0)
9d00808c:	7c647bc4 	ins	a0,v1,0xf,0x1
9d008090:	a4446400 	sh	a0,25600(v0)

  __builtin_enable_interrupts();
9d008094:	41626020 	ei	v0
}
9d008098:	8fbf0004 	lw	ra,4(sp)
9d00809c:	03e00008 	jr	ra
9d0080a0:	27bd0008 	addiu	sp,sp,8

9d0080a4 <NU32_ReadUART3>:
// Read from UART3
// block other functions until you get a '\r' or '\n'
// send the pointer to your char array and the number of elements in the array
void NU32_ReadUART3(char * message, int maxLength) {
  char data = 0;
  int complete = 0, num_bytes = 0;
9d0080a4:	00003025 	move	a2,zero
  // loop until you get a '\r' or '\n'
  while (!complete) {
    if (U3STAbits.URXDA) { // if data is available
9d0080a8:	3c03bf80 	lui	v1,0xbf80
      data = U3RXREG;      // read the data
9d0080ac:	3c09bf80 	lui	t1,0xbf80
      if ((data == '\n') || (data == '\r')) {
9d0080b0:	2408000a 	li	t0,10
9d0080b4:	240a000d 	li	t2,13
    if (U3STAbits.URXDA) { // if data is available
9d0080b8:	8c626410 	lw	v0,25616(v1)
9d0080bc:	30420001 	andi	v0,v0,0x1
9d0080c0:	1040fffd 	beqz	v0,9d0080b8 <NU32_ReadUART3+0x14>
9d0080c4:	00000000 	nop
      data = U3RXREG;      // read the data
9d0080c8:	8d226430 	lw	v0,25648(t1)
9d0080cc:	7c021420 	seb	v0,v0
      if ((data == '\n') || (data == '\r')) {
9d0080d0:	50480009 	beql	v0,t0,9d0080f8 <NU32_ReadUART3+0x54>
9d0080d4:	00862021 	addu	a0,a0,a2
9d0080d8:	104a0006 	beq	v0,t2,9d0080f4 <NU32_ReadUART3+0x50>
9d0080dc:	00863821 	addu	a3,a0,a2
        complete = 1;
      } else {
        message[num_bytes] = data;
9d0080e0:	a0e20000 	sb	v0,0(a3)
        ++num_bytes;
9d0080e4:	24c60001 	addiu	a2,a2,1
        // roll over if the array is too small
        if (num_bytes >= maxLength) {
9d0080e8:	00c5102a 	slt	v0,a2,a1
9d0080ec:	1000fff2 	b	9d0080b8 <NU32_ReadUART3+0x14>
9d0080f0:	0002300a 	movz	a2,zero,v0
        }
      }
    }
  }
  // end the string
  message[num_bytes] = '\0';
9d0080f4:	00862021 	addu	a0,a0,a2
}
9d0080f8:	03e00008 	jr	ra
9d0080fc:	a0800000 	sb	zero,0(a0)

9d008100 <NU32_WriteUART3>:

// Write a character array using UART3
void NU32_WriteUART3(const char * string) {
  while (*string != '\0') {
9d008100:	80850000 	lb	a1,0(a0)
9d008104:	10a0000b 	beqz	a1,9d008134 <NU32_WriteUART3+0x34>
9d008108:	3c03bf80 	lui	v1,0xbf80
    while (U3STAbits.UTXBF) {
      ; // wait until tx buffer isn't full
    }
    U3TXREG = *string;
9d00810c:	3c06bf80 	lui	a2,0xbf80
    while (U3STAbits.UTXBF) {
9d008110:	8c626410 	lw	v0,25616(v1)
9d008114:	7c420240 	ext	v0,v0,0x9,0x1
9d008118:	1440fffd 	bnez	v0,9d008110 <NU32_WriteUART3+0x10>
9d00811c:	00000000 	nop
    U3TXREG = *string;
9d008120:	acc56420 	sw	a1,25632(a2)
    ++string;
9d008124:	24840001 	addiu	a0,a0,1
  while (*string != '\0') {
9d008128:	80850000 	lb	a1,0(a0)
9d00812c:	14a0fff8 	bnez	a1,9d008110 <NU32_WriteUART3+0x10>
9d008130:	00000000 	nop
  }
}
9d008134:	03e00008 	jr	ra
9d008138:	00000000 	nop

9d00813c <CurrentControl>:

#include "current.h"

//5KHz ISR to control current going to motor
void __ISR(_TIMER_3_VECTOR, IPL5SOFT) CurrentControl(void) {
9d00813c:	415de800 	rdpgpr	sp,sp
9d008140:	401a7000 	mfc0	k0,c0_epc
9d008144:	401b6000 	mfc0	k1,c0_status
9d008148:	27bdffd8 	addiu	sp,sp,-40
9d00814c:	afba0024 	sw	k0,36(sp)
9d008150:	401a6002 	mfc0	k0,c0_srsctl
9d008154:	afbb0020 	sw	k1,32(sp)
9d008158:	afba001c 	sw	k0,28(sp)
9d00815c:	7c1b7844 	ins	k1,zero,0x1,0xf
9d008160:	377b1400 	ori	k1,k1,0x1400
9d008164:	409b6000 	mtc0	k1,c0_status
9d008168:	afa5000c 	sw	a1,12(sp)
9d00816c:	afa40008 	sw	a0,8(sp)
9d008170:	afa30004 	sw	v1,4(sp)
9d008174:	afa20000 	sw	v0,0(sp)
9d008178:	00001012 	mflo	v0
9d00817c:	afa20014 	sw	v0,20(sp)
9d008180:	00001810 	mfhi	v1
9d008184:	afa30010 	sw	v1,16(sp)
	//adcval = adc_sample_convert(ADC_PIN);
	
	//PI controller for current
	
 	//set OC3RS at 25% of PR at first, modify later
	OC3RS = 500;
9d008188:	3c02bf80 	lui	v0,0xbf80
9d00818c:	240301f4 	li	v1,500
9d008190:	ac433420 	sw	v1,13344(v0)
	//invert directional output of motor
	//LATDINV = 0b1 << 4; //invert digital output at pin 4
	
	
	//set PWM and motor direction based on mode flag
	switch (mode) {
9d008194:	8f82809c 	lw	v0,-32612(gp)
9d008198:	1040001a 	beqz	v0,9d008204 <CurrentControl+0xc8>
9d00819c:	24030001 	li	v1,1
9d0081a0:	1043001c 	beq	v0,v1,9d008214 <CurrentControl+0xd8>
9d0081a4:	8f8280a0 	lw	v0,-32608(gp)
		
	}
	
	
	//clear interrupt flag
	IFS0bits.T3IF = 0;
9d0081a8:	3c02bf88 	lui	v0,0xbf88
9d0081ac:	8c431030 	lw	v1,4144(v0)
9d0081b0:	7c036304 	ins	v1,zero,0xc,0x1
9d0081b4:	ac431030 	sw	v1,4144(v0)

9d0081b8:	8fa20014 	lw	v0,20(sp)
9d0081bc:	00400013 	mtlo	v0
9d0081c0:	8fa30010 	lw	v1,16(sp)
9d0081c4:	00600011 	mthi	v1
9d0081c8:	8fa5000c 	lw	a1,12(sp)
9d0081cc:	8fa40008 	lw	a0,8(sp)
9d0081d0:	8fa30004 	lw	v1,4(sp)
9d0081d4:	8fa20000 	lw	v0,0(sp)
9d0081d8:	41606000 	di
9d0081dc:	000000c0 	ehb
9d0081e0:	8fba0024 	lw	k0,36(sp)
9d0081e4:	8fbb0020 	lw	k1,32(sp)
9d0081e8:	409a7000 	mtc0	k0,c0_epc
9d0081ec:	8fba001c 	lw	k0,28(sp)
9d0081f0:	27bd0028 	addiu	sp,sp,40
9d0081f4:	409a6002 	mtc0	k0,c0_srsctl
9d0081f8:	41dde800 	wrpgpr	sp,sp
9d0081fc:	409b6000 	mtc0	k1,c0_status
9d008200:	42000018 	eret
			OC3RS = 0;
9d008204:	3c02bf80 	lui	v0,0xbf80
9d008208:	ac403420 	sw	zero,13344(v0)
			break;
9d00820c:	1000ffe7 	b	9d0081ac <CurrentControl+0x70>
9d008210:	3c02bf88 	lui	v0,0xbf88
			if (client_input < 0) {
9d008214:	04400011 	bltz	v0,9d00825c <CurrentControl+0x120>
9d008218:	3c03bf88 	lui	v1,0xbf88
				LATDbits.LATD4 = 1;
9d00821c:	946460e0 	lhu	a0,24800(v1)
9d008220:	24050001 	li	a1,1
9d008224:	7ca42104 	ins	a0,a1,0x4,0x1
9d008228:	a46460e0 	sh	a0,24800(v1)
				OC3RS = (unsigned int) client_input * PR2/100;			
9d00822c:	3c03bf80 	lui	v1,0xbf80
9d008230:	8c630820 	lw	v1,2080(v1)
9d008234:	70431002 	mul	v0,v0,v1
9d008238:	3c0351eb 	lui	v1,0x51eb
9d00823c:	3463851f 	ori	v1,v1,0x851f
9d008240:	00430019 	multu	v0,v1
9d008244:	00001010 	mfhi	v0
9d008248:	00021142 	srl	v0,v0,0x5
9d00824c:	3c03bf80 	lui	v1,0xbf80
9d008250:	ac623420 	sw	v0,13344(v1)
	IFS0bits.T3IF = 0;
9d008254:	1000ffd5 	b	9d0081ac <CurrentControl+0x70>
9d008258:	3c02bf88 	lui	v0,0xbf88
				LATDbits.LATD4 = 0;
9d00825c:	946460e0 	lhu	a0,24800(v1)
9d008260:	7c042104 	ins	a0,zero,0x4,0x1
9d008264:	a46460e0 	sh	a0,24800(v1)
				OC3RS = (unsigned int) -client_input * PR2/100;			
9d008268:	3c03bf80 	lui	v1,0xbf80
9d00826c:	8c630820 	lw	v1,2080(v1)
9d008270:	00021023 	negu	v0,v0
9d008274:	70431002 	mul	v0,v0,v1
9d008278:	3c0351eb 	lui	v1,0x51eb
9d00827c:	3463851f 	ori	v1,v1,0x851f
9d008280:	00430019 	multu	v0,v1
9d008284:	00001010 	mfhi	v0
9d008288:	00021142 	srl	v0,v0,0x5
9d00828c:	3c03bf80 	lui	v1,0xbf80
9d008290:	ac623420 	sw	v0,13344(v1)
9d008294:	1000ffc5 	b	9d0081ac <CurrentControl+0x70>
9d008298:	3c02bf88 	lui	v0,0xbf88

Disassembly of section .text._sbrk_init:

9d00829c <_sbrk_init>:
9d00829c:	27bdffd8 	addiu	sp,sp,-40
9d0082a0:	afb40020 	sw	s4,32(sp)
9d0082a4:	3c14a000 	lui	s4,0xa000
9d0082a8:	8e8206b0 	lw	v0,1712(s4)
9d0082ac:	afbf0024 	sw	ra,36(sp)
9d0082b0:	afb3001c 	sw	s3,28(sp)
9d0082b4:	afb20018 	sw	s2,24(sp)
9d0082b8:	afb10014 	sw	s1,20(sp)
9d0082bc:	1440002e 	bnez	v0,9d008378 <_sbrk_init+0xdc>
9d0082c0:	afb00010 	sw	s0,16(sp)
9d0082c4:	3c12a000 	lui	s2,0xa000
9d0082c8:	8e5106b8 	lw	s1,1720(s2)
9d0082cc:	16200003 	bnez	s1,9d0082dc <_sbrk_init+0x40>
9d0082d0:	3c13a000 	lui	s3,0xa000
9d0082d4:	3c11a000 	lui	s1,0xa000
9d0082d8:	263106e8 	addiu	s1,s1,1768
9d0082dc:	8e7006b4 	lw	s0,1716(s3)
9d0082e0:	16000006 	bnez	s0,9d0082fc <_sbrk_init+0x60>
9d0082e4:	00111f82 	srl	v1,s1,0x1e
9d0082e8:	3c10a000 	lui	s0,0xa000
9d0082ec:	3c020000 	lui	v0,0x0
9d0082f0:	261006e8 	addiu	s0,s0,1768
9d0082f4:	24420000 	addiu	v0,v0,0
9d0082f8:	02028021 	addu	s0,s0,v0
9d0082fc:	24020002 	li	v0,2
9d008300:	50620001 	beql	v1,v0,9d008308 <_sbrk_init+0x6c>
9d008304:	7e31e000 	ext	s1,s1,0x0,0x1d
9d008308:	00101f82 	srl	v1,s0,0x1e
9d00830c:	24020002 	li	v0,2
9d008310:	50620001 	beql	v1,v0,9d008318 <_sbrk_init+0x7c>
9d008314:	7e10e000 	ext	s0,s0,0x0,0x1d
9d008318:	0f4026f3 	jal	9d009bcc <_stub_sbd_memlayout>
9d00831c:	00000000 	nop
9d008320:	8c430000 	lw	v1,0(v0)
9d008324:	8c420004 	lw	v0,4(v0)
9d008328:	0223202b 	sltu	a0,s1,v1
9d00832c:	14800004 	bnez	a0,9d008340 <_sbrk_init+0xa4>
9d008330:	00621021 	addu	v0,v1,v0
9d008334:	0222202b 	sltu	a0,s1,v0
9d008338:	54800029 	bnezl	a0,9d0083e0 <_sbrk_init+0x144>
9d00833c:	0211182b 	sltu	v1,s0,s1
9d008340:	3c04a000 	lui	a0,0xa000
9d008344:	248400f8 	addiu	a0,a0,248
9d008348:	7c84e000 	ext	a0,a0,0x0,0x1d
9d00834c:	0064202b 	sltu	a0,v1,a0
9d008350:	14800009 	bnez	a0,9d008378 <_sbrk_init+0xdc>
9d008354:	0203202b 	sltu	a0,s0,v1
9d008358:	14800005 	bnez	a0,9d008370 <_sbrk_init+0xd4>
9d00835c:	0062202b 	sltu	a0,v1,v0
9d008360:	0202202b 	sltu	a0,s0,v0
9d008364:	5480000c 	bnezl	a0,9d008398 <_sbrk_init+0xfc>
9d008368:	02001025 	move	v0,s0
9d00836c:	0062202b 	sltu	a0,v1,v0
9d008370:	1480000a 	bnez	a0,9d00839c <_sbrk_init+0x100>
9d008374:	3c04a000 	lui	a0,0xa000
9d008378:	8fbf0024 	lw	ra,36(sp)
9d00837c:	8fb40020 	lw	s4,32(sp)
9d008380:	8fb3001c 	lw	s3,28(sp)
9d008384:	8fb20018 	lw	s2,24(sp)
9d008388:	8fb10014 	lw	s1,20(sp)
9d00838c:	8fb00010 	lw	s0,16(sp)
9d008390:	03e00008 	jr	ra
9d008394:	27bd0028 	addiu	sp,sp,40
9d008398:	3c04a000 	lui	a0,0xa000
9d00839c:	248400f8 	addiu	a0,a0,248
9d0083a0:	00042742 	srl	a0,a0,0x1d
9d0083a4:	24050005 	li	a1,5
9d0083a8:	14850009 	bne	a0,a1,9d0083d0 <_sbrk_init+0x134>
9d0083ac:	24050004 	li	a1,4
9d0083b0:	3c04a000 	lui	a0,0xa000
9d0083b4:	00641825 	or	v1,v1,a0
9d0083b8:	00441025 	or	v0,v0,a0
9d0083bc:	ae4306b8 	sw	v1,1720(s2)
9d0083c0:	ae6206b4 	sw	v0,1716(s3)
9d0083c4:	8e4206b8 	lw	v0,1720(s2)
9d0083c8:	1000ffeb 	b	9d008378 <_sbrk_init+0xdc>
9d0083cc:	ae8206b0 	sw	v0,1712(s4)
9d0083d0:	5485fffc 	bnel	a0,a1,9d0083c4 <_sbrk_init+0x128>
9d0083d4:	ae4206b8 	sw	v0,1720(s2)
9d0083d8:	1000fff6 	b	9d0083b4 <_sbrk_init+0x118>
9d0083dc:	3c048000 	lui	a0,0x8000
9d0083e0:	1460ffed 	bnez	v1,9d008398 <_sbrk_init+0xfc>
9d0083e4:	02201825 	move	v1,s1
9d0083e8:	1000ffde 	b	9d008364 <_sbrk_init+0xc8>
9d0083ec:	0202202b 	sltu	a0,s0,v0

Disassembly of section .text._mon_getc:

9d0083f0 <_mon_getc>:
9d0083f0:	3c02a000 	lui	v0,0xa000
9d0083f4:	8c450004 	lw	a1,4(v0)
9d0083f8:	14a00013 	bnez	a1,9d008448 <_mon_getc+0x58>
9d0083fc:	3c02bf80 	lui	v0,0xbf80
9d008400:	3c020000 	lui	v0,0x0
9d008404:	27bdffe8 	addiu	sp,sp,-24
9d008408:	24420000 	addiu	v0,v0,0
9d00840c:	10400006 	beqz	v0,9d008428 <_mon_getc+0x38>
9d008410:	afbf0014 	sw	ra,20(sp)
9d008414:	0c000000 	jal	90000000 <_bmxdudba_address+0x8ffe0000>
9d008418:	00000000 	nop
9d00841c:	8fbf0014 	lw	ra,20(sp)
9d008420:	03e00008 	jr	ra
9d008424:	27bd0018 	addiu	sp,sp,24
9d008428:	3c020000 	lui	v0,0x0
9d00842c:	24420000 	addiu	v0,v0,0
9d008430:	50400027 	beqzl	v0,9d0084d0 <_mon_getc+0xe0>
9d008434:	3c02bf80 	lui	v0,0xbf80
9d008438:	0c000000 	jal	90000000 <_bmxdudba_address+0x8ffe0000>
9d00843c:	00000000 	nop
9d008440:	1000fff7 	b	9d008420 <_mon_getc+0x30>
9d008444:	8fbf0014 	lw	ra,20(sp)
9d008448:	24436010 	addiu	v1,v0,24592
9d00844c:	10600018 	beqz	v1,9d0084b0 <_mon_getc+0xc0>
9d008450:	2402ffff 	li	v0,-1
9d008454:	24020002 	li	v0,2
9d008458:	10a20017 	beq	a1,v0,9d0084b8 <_mon_getc+0xc8>
9d00845c:	3c02bf80 	lui	v0,0xbf80
9d008460:	3c02bf80 	lui	v0,0xbf80
9d008464:	3c04bf80 	lui	a0,0xbf80
9d008468:	8c456000 	lw	a1,24576(v0)
9d00846c:	24846030 	addiu	a0,a0,24624
9d008470:	00601025 	move	v0,v1
9d008474:	30a58000 	andi	a1,a1,0x8000
9d008478:	14a00005 	bnez	a1,9d008490 <_mon_getc+0xa0>
9d00847c:	240300a1 	li	v1,161
9d008480:	3c03bf80 	lui	v1,0xbf80
9d008484:	34058000 	li	a1,0x8000
9d008488:	ac656008 	sw	a1,24584(v1)
9d00848c:	240300a1 	li	v1,161
9d008490:	8c450000 	lw	a1,0(v0)
9d008494:	30a50001 	andi	a1,a1,0x1
9d008498:	14a00004 	bnez	a1,9d0084ac <_mon_getc+0xbc>
9d00849c:	00000000 	nop
9d0084a0:	2463ffff 	addiu	v1,v1,-1
9d0084a4:	1460fffa 	bnez	v1,9d008490 <_mon_getc+0xa0>
9d0084a8:	00000000 	nop
9d0084ac:	8c820000 	lw	v0,0(a0)
9d0084b0:	03e00008 	jr	ra
9d0084b4:	00000000 	nop
9d0084b8:	8c456800 	lw	a1,26624(v0)
9d0084bc:	3c04bf80 	lui	a0,0xbf80
9d0084c0:	3c02bf80 	lui	v0,0xbf80
9d0084c4:	24846830 	addiu	a0,a0,26672
9d0084c8:	1000ffea 	b	9d008474 <_mon_getc+0x84>
9d0084cc:	24426810 	addiu	v0,v0,26640
9d0084d0:	8c456000 	lw	a1,24576(v0)
9d0084d4:	3c04bf80 	lui	a0,0xbf80
9d0084d8:	3c02bf80 	lui	v0,0xbf80
9d0084dc:	30a58000 	andi	a1,a1,0x8000
9d0084e0:	24846030 	addiu	a0,a0,24624
9d0084e4:	14a00004 	bnez	a1,9d0084f8 <_mon_getc+0x108>
9d0084e8:	24426010 	addiu	v0,v0,24592
9d0084ec:	3c03bf80 	lui	v1,0xbf80
9d0084f0:	34058000 	li	a1,0x8000
9d0084f4:	ac656008 	sw	a1,24584(v1)
9d0084f8:	240300a1 	li	v1,161
9d0084fc:	8c450000 	lw	a1,0(v0)
9d008500:	30a50001 	andi	a1,a1,0x1
9d008504:	14a00004 	bnez	a1,9d008518 <_mon_getc+0x128>
9d008508:	00000000 	nop
9d00850c:	2463ffff 	addiu	v1,v1,-1
9d008510:	1460fffa 	bnez	v1,9d0084fc <_mon_getc+0x10c>
9d008514:	00000000 	nop
9d008518:	8c820000 	lw	v0,0(a0)
9d00851c:	1000ffc0 	b	9d008420 <_mon_getc+0x30>
9d008520:	8fbf0014 	lw	ra,20(sp)

Disassembly of section .text._mon_putc:

9d008524 <_mon_putc>:
9d008524:	3c02a000 	lui	v0,0xa000
9d008528:	8c430004 	lw	v1,4(v0)
9d00852c:	14600013 	bnez	v1,9d00857c <_mon_putc+0x58>
9d008530:	00803025 	move	a2,a0
9d008534:	3c020000 	lui	v0,0x0
9d008538:	27bdffe8 	addiu	sp,sp,-24
9d00853c:	24420000 	addiu	v0,v0,0
9d008540:	10400006 	beqz	v0,9d00855c <_mon_putc+0x38>
9d008544:	afbf0014 	sw	ra,20(sp)
9d008548:	0c000000 	jal	90000000 <_bmxdudba_address+0x8ffe0000>
9d00854c:	00000000 	nop
9d008550:	8fbf0014 	lw	ra,20(sp)
9d008554:	03e00008 	jr	ra
9d008558:	27bd0018 	addiu	sp,sp,24
9d00855c:	3c020000 	lui	v0,0x0
9d008560:	24420000 	addiu	v0,v0,0
9d008564:	10400025 	beqz	v0,9d0085fc <_mon_putc+0xd8>
9d008568:	3c05bf80 	lui	a1,0xbf80
9d00856c:	0c000000 	jal	90000000 <_bmxdudba_address+0x8ffe0000>
9d008570:	00000000 	nop
9d008574:	1000fff7 	b	9d008554 <_mon_putc+0x30>
9d008578:	8fbf0014 	lw	ra,20(sp)
9d00857c:	3c02bf80 	lui	v0,0xbf80
9d008580:	24426010 	addiu	v0,v0,24592
9d008584:	1040002f 	beqz	v0,9d008644 <_mon_putc+0x120>
9d008588:	00000000 	nop
9d00858c:	24040001 	li	a0,1
9d008590:	14640012 	bne	v1,a0,9d0085dc <_mon_putc+0xb8>
9d008594:	3c03bf80 	lui	v1,0xbf80
9d008598:	3c03bf80 	lui	v1,0xbf80
9d00859c:	3c04bf80 	lui	a0,0xbf80
9d0085a0:	3c05bf80 	lui	a1,0xbf80
9d0085a4:	24636020 	addiu	v1,v1,24608
9d0085a8:	24846018 	addiu	a0,a0,24600
9d0085ac:	24a56008 	addiu	a1,a1,24584
9d0085b0:	34078000 	li	a3,0x8000
9d0085b4:	aca70000 	sw	a3,0(a1)
9d0085b8:	24050400 	li	a1,1024
9d0085bc:	ac850000 	sw	a1,0(a0)
9d0085c0:	8c440000 	lw	a0,0(v0)
9d0085c4:	30840100 	andi	a0,a0,0x100
9d0085c8:	1080fffd 	beqz	a0,9d0085c0 <_mon_putc+0x9c>
9d0085cc:	00000000 	nop
9d0085d0:	ac660000 	sw	a2,0(v1)
9d0085d4:	03e00008 	jr	ra
9d0085d8:	00000000 	nop
9d0085dc:	3c04bf80 	lui	a0,0xbf80
9d0085e0:	3c05bf80 	lui	a1,0xbf80
9d0085e4:	3c02bf80 	lui	v0,0xbf80
9d0085e8:	24636820 	addiu	v1,v1,26656
9d0085ec:	24846818 	addiu	a0,a0,26648
9d0085f0:	24a56808 	addiu	a1,a1,26632
9d0085f4:	1000ffee 	b	9d0085b0 <_mon_putc+0x8c>
9d0085f8:	24426810 	addiu	v0,v0,26640
9d0085fc:	24a56808 	addiu	a1,a1,26632
9d008600:	3c04bf80 	lui	a0,0xbf80
9d008604:	34078000 	li	a3,0x8000
9d008608:	aca70000 	sw	a3,0(a1)
9d00860c:	3c03bf80 	lui	v1,0xbf80
9d008610:	24846818 	addiu	a0,a0,26648
9d008614:	3c02bf80 	lui	v0,0xbf80
9d008618:	24050400 	li	a1,1024
9d00861c:	24636820 	addiu	v1,v1,26656
9d008620:	24426810 	addiu	v0,v0,26640
9d008624:	ac850000 	sw	a1,0(a0)
9d008628:	8c440000 	lw	a0,0(v0)
9d00862c:	30840100 	andi	a0,a0,0x100
9d008630:	1080fffd 	beqz	a0,9d008628 <_mon_putc+0x104>
9d008634:	00000000 	nop
9d008638:	ac660000 	sw	a2,0(v1)
9d00863c:	1000ffc5 	b	9d008554 <_mon_putc+0x30>
9d008640:	8fbf0014 	lw	ra,20(sp)
9d008644:	03e00008 	jr	ra
9d008648:	00000000 	nop

Disassembly of section .rodata:

9d00864c <_ctype>:
9d00864c:	20202000 20202020 28282020 20282828     .         ((((( 
9d00865c:	20202020 20202020 20202020 20202020                     
9d00866c:	10108020 10101010 10101010 10101010      ...............
9d00867c:	04040410 04040404 10040404 10101010     ................
9d00868c:	41411010 41414141 01010101 01010101     ..AAAAAA........
9d00869c:	01010101 01010101 01010101 10101010     ................
9d0086ac:	42421010 42424242 02020202 02020202     ..BBBBBB........
9d0086bc:	02020202 02020202 02020202 10101010     ................
9d0086cc:	00000020 00000000 00000000 00000000      ...............
	...
9d00874c:	0c000000                                ....

Disassembly of section .text.malloc_trim:

9d008750 <malloc_trim>:
9d008750:	27bdffe0 	addiu	sp,sp,-32
9d008754:	afb20018 	sw	s2,24(sp)
9d008758:	3c12a000 	lui	s2,0xa000
9d00875c:	26520100 	addiu	s2,s2,256
9d008760:	afb10014 	sw	s1,20(sp)
9d008764:	afb00010 	sw	s0,16(sp)
9d008768:	afbf001c 	sw	ra,28(sp)
9d00876c:	0f4027b5 	jal	9d009ed4 <getpagesize>
9d008770:	00808025 	move	s0,a0
9d008774:	8e430008 	lw	v1,8(s2)
9d008778:	8c710004 	lw	s1,4(v1)
9d00877c:	7c110804 	ins	s1,zero,0x0,0x2
9d008780:	02308023 	subu	s0,s1,s0
9d008784:	2610ffef 	addiu	s0,s0,-17
9d008788:	02028021 	addu	s0,s0,v0
9d00878c:	0202001b 	divu	zero,s0,v0
9d008790:	004001f4 	teq	v0,zero,0x7
9d008794:	00008012 	mflo	s0
9d008798:	2610ffff 	addiu	s0,s0,-1
9d00879c:	72028002 	mul	s0,s0,v0
9d0087a0:	0202102a 	slt	v0,s0,v0
9d0087a4:	10400008 	beqz	v0,9d0087c8 <malloc_trim+0x78>
9d0087a8:	00000000 	nop
9d0087ac:	00001025 	move	v0,zero
9d0087b0:	8fbf001c 	lw	ra,28(sp)
9d0087b4:	8fb20018 	lw	s2,24(sp)
9d0087b8:	8fb10014 	lw	s1,20(sp)
9d0087bc:	8fb00010 	lw	s0,16(sp)
9d0087c0:	03e00008 	jr	ra
9d0087c4:	27bd0020 	addiu	sp,sp,32
9d0087c8:	0f402637 	jal	9d0098dc <sbrk>
9d0087cc:	00002025 	move	a0,zero
9d0087d0:	8e430008 	lw	v1,8(s2)
9d0087d4:	00711821 	addu	v1,v1,s1
9d0087d8:	1443fff5 	bne	v0,v1,9d0087b0 <malloc_trim+0x60>
9d0087dc:	00001025 	move	v0,zero
9d0087e0:	0f402637 	jal	9d0098dc <sbrk>
9d0087e4:	00102023 	negu	a0,s0
9d0087e8:	2403ffff 	li	v1,-1
9d0087ec:	54430010 	bnel	v0,v1,9d008830 <malloc_trim+0xe0>
9d0087f0:	8e420008 	lw	v0,8(s2)
9d0087f4:	0f402637 	jal	9d0098dc <sbrk>
9d0087f8:	00002025 	move	a0,zero
9d0087fc:	8e440008 	lw	a0,8(s2)
9d008800:	00441823 	subu	v1,v0,a0
9d008804:	28650010 	slti	a1,v1,16
9d008808:	54a0ffe9 	bnezl	a1,9d0087b0 <malloc_trim+0x60>
9d00880c:	00001025 	move	v0,zero
9d008810:	3c05a000 	lui	a1,0xa000
9d008814:	8ca500f8 	lw	a1,248(a1)
9d008818:	34630001 	ori	v1,v1,0x1
9d00881c:	ac830004 	sw	v1,4(a0)
9d008820:	00451023 	subu	v0,v0,a1
9d008824:	3c05a000 	lui	a1,0xa000
9d008828:	1000ffe0 	b	9d0087ac <malloc_trim+0x5c>
9d00882c:	aca20664 	sw	v0,1636(a1)
9d008830:	02308823 	subu	s1,s1,s0
9d008834:	3c03a000 	lui	v1,0xa000
9d008838:	36310001 	ori	s1,s1,0x1
9d00883c:	ac510004 	sw	s1,4(v0)
9d008840:	8c620664 	lw	v0,1636(v1)
9d008844:	00508023 	subu	s0,v0,s0
9d008848:	ac700664 	sw	s0,1636(v1)
9d00884c:	1000ffd8 	b	9d0087b0 <malloc_trim+0x60>
9d008850:	24020001 	li	v0,1

Disassembly of section .text.__ldexpf:

9d008854 <__ldexpf>:
9d008854:	7c863dc0 	ext	a2,a0,0x17,0x8
9d008858:	24c7ffff 	addiu	a3,a2,-1
9d00885c:	2ce700fe 	sltiu	a3,a3,254
9d008860:	000447c2 	srl	t0,a0,0x1f
9d008864:	10e0002a 	beqz	a3,9d008910 <__ldexpf+0xbc>
9d008868:	7c82b000 	ext	v0,a0,0x0,0x17
9d00886c:	3c040080 	lui	a0,0x80
9d008870:	24c6ff81 	addiu	a2,a2,-127
9d008874:	00441025 	or	v0,v0,a0
9d008878:	00c52821 	addu	a1,a2,a1
9d00887c:	24a6007f 	addiu	a2,a1,127
9d008880:	000238c0 	sll	a3,v0,0x3
9d008884:	1cc00017 	bgtz	a2,9d0088e4 <__ldexpf+0x90>
9d008888:	00081a00 	sll	v1,t0,0x8
9d00888c:	24040001 	li	a0,1
9d008890:	00863023 	subu	a2,a0,a2
9d008894:	28c4001b 	slti	a0,a2,27
9d008898:	1080001a 	beqz	a0,9d008904 <__ldexpf+0xb0>
9d00889c:	00001025 	move	v0,zero
9d0088a0:	24a4009e 	addiu	a0,a1,158
9d0088a4:	00872004 	sllv	a0,a3,a0
9d0088a8:	0004202b 	sltu	a0,zero,a0
9d0088ac:	00c73806 	srlv	a3,a3,a2
9d0088b0:	00872025 	or	a0,a0,a3
9d0088b4:	30850007 	andi	a1,a0,0x7
9d0088b8:	10a00024 	beqz	a1,9d00894c <__ldexpf+0xf8>
9d0088bc:	000410c2 	srl	v0,a0,0x3
9d0088c0:	24840003 	addiu	a0,a0,3
9d0088c4:	30420001 	andi	v0,v0,0x1
9d0088c8:	00821021 	addu	v0,a0,v0
9d0088cc:	000226c2 	srl	a0,v0,0x1b
9d0088d0:	5080001e 	beqzl	a0,9d00894c <__ldexpf+0xf8>
9d0088d4:	000210c2 	srl	v0,v0,0x3
9d0088d8:	00021102 	srl	v0,v0,0x4
9d0088dc:	10000004 	b	9d0088f0 <__ldexpf+0x9c>
9d0088e0:	24060002 	li	a2,2
9d0088e4:	28c500ff 	slti	a1,a2,255
9d0088e8:	10a00014 	beqz	a1,9d00893c <__ldexpf+0xe8>
9d0088ec:	7c42e000 	ext	v0,v0,0x0,0x1d
9d0088f0:	7c4405c0 	ext	a0,v0,0x17,0x1
9d0088f4:	10800004 	beqz	a0,9d008908 <__ldexpf+0xb4>
9d0088f8:	000325c0 	sll	a0,v1,0x17
9d0088fc:	7c42b000 	ext	v0,v0,0x0,0x17
9d008900:	00661825 	or	v1,v1,a2
9d008904:	000325c0 	sll	a0,v1,0x17
9d008908:	03e00008 	jr	ra
9d00890c:	00821025 	or	v0,a0,v0
9d008910:	14c00003 	bnez	a2,9d008920 <__ldexpf+0xcc>
9d008914:	00000000 	nop
9d008918:	14400003 	bnez	v0,9d008928 <__ldexpf+0xd4>
9d00891c:	70463020 	clz	a2,v0
9d008920:	03e00008 	jr	ra
9d008924:	00801025 	move	v0,a0
9d008928:	24c3fff8 	addiu	v1,a2,-8
9d00892c:	2406ff82 	li	a2,-126
9d008930:	00621004 	sllv	v0,v0,v1
9d008934:	1000ffd0 	b	9d008878 <__ldexpf+0x24>
9d008938:	00c33023 	subu	a2,a2,v1
9d00893c:	000817c0 	sll	v0,t0,0x1f
9d008940:	3c047f80 	lui	a0,0x7f80
9d008944:	03e00008 	jr	ra
9d008948:	00441025 	or	v0,v0,a0
9d00894c:	1000ffe8 	b	9d0088f0 <__ldexpf+0x9c>
9d008950:	24060001 	li	a2,1

Disassembly of section .text._outcnvrt:

9d008954 <_outcnvrt>:
9d008954:	27bdffd0 	addiu	sp,sp,-48
9d008958:	afb3001c 	sw	s3,28(sp)
9d00895c:	97b30040 	lhu	s3,64(sp)
9d008960:	afb40020 	sw	s4,32(sp)
9d008964:	afb20018 	sw	s2,24(sp)
9d008968:	32730008 	andi	s3,s3,0x8
9d00896c:	afb10014 	sw	s1,20(sp)
9d008970:	afb00010 	sw	s0,16(sp)
9d008974:	afbf002c 	sw	ra,44(sp)
9d008978:	afb60028 	sw	s6,40(sp)
9d00897c:	afb50024 	sw	s5,36(sp)
9d008980:	0080a025 	move	s4,a0
9d008984:	00a09025 	move	s2,a1
9d008988:	00c08025 	move	s0,a2
9d00898c:	1260000f 	beqz	s3,9d0089cc <_outcnvrt+0x78>
9d008990:	00e08825 	move	s1,a3
9d008994:	0250a821 	addu	s5,s2,s0
9d008998:	2416ffff 	li	s6,-1
9d00899c:	56550020 	bnel	s2,s5,9d008a20 <_outcnvrt+0xcc>
9d0089a0:	26520001 	addiu	s2,s2,1
9d0089a4:	12600012 	beqz	s3,9d0089f0 <_outcnvrt+0x9c>
9d0089a8:	8fbf002c 	lw	ra,44(sp)
9d0089ac:	0211102a 	slt	v0,s0,s1
9d0089b0:	50400011 	beqzl	v0,9d0089f8 <_outcnvrt+0xa4>
9d0089b4:	0202880a 	movz	s1,s0,v0
9d0089b8:	02302823 	subu	a1,s1,s0
9d0089bc:	0f402394 	jal	9d008e50 <repl.constprop.0>
9d0089c0:	02802025 	move	a0,s4
9d0089c4:	1000000a 	b	9d0089f0 <_outcnvrt+0x9c>
9d0089c8:	8fbf002c 	lw	ra,44(sp)
9d0089cc:	00c7102a 	slt	v0,a2,a3
9d0089d0:	1040fff1 	beqz	v0,9d008998 <_outcnvrt+0x44>
9d0089d4:	0250a821 	addu	s5,s2,s0
9d0089d8:	0f402394 	jal	9d008e50 <repl.constprop.0>
9d0089dc:	00e62823 	subu	a1,a3,a2
9d0089e0:	2403ffff 	li	v1,-1
9d0089e4:	1443ffec 	bne	v0,v1,9d008998 <_outcnvrt+0x44>
9d0089e8:	0250a821 	addu	s5,s2,s0
9d0089ec:	8fbf002c 	lw	ra,44(sp)
9d0089f0:	0211102a 	slt	v0,s0,s1
9d0089f4:	0202880a 	movz	s1,s0,v0
9d0089f8:	02201025 	move	v0,s1
9d0089fc:	8fb60028 	lw	s6,40(sp)
9d008a00:	8fb50024 	lw	s5,36(sp)
9d008a04:	8fb40020 	lw	s4,32(sp)
9d008a08:	8fb3001c 	lw	s3,28(sp)
9d008a0c:	8fb20018 	lw	s2,24(sp)
9d008a10:	8fb10014 	lw	s1,20(sp)
9d008a14:	8fb00010 	lw	s0,16(sp)
9d008a18:	03e00008 	jr	ra
9d008a1c:	27bd0030 	addiu	sp,sp,48
9d008a20:	8244ffff 	lb	a0,-1(s2)
9d008a24:	0f4023e7 	jal	9d008f9c <fputc>
9d008a28:	02802825 	move	a1,s4
9d008a2c:	1456ffdb 	bne	v0,s6,9d00899c <_outcnvrt+0x48>
9d008a30:	8fbf002c 	lw	ra,44(sp)
9d008a34:	1000ffef 	b	9d0089f4 <_outcnvrt+0xa0>
9d008a38:	0211102a 	slt	v0,s0,s1

Disassembly of section .text.ungetc:

9d008a3c <ungetc>:
9d008a3c:	27bdffe0 	addiu	sp,sp,-32
9d008a40:	afb20018 	sw	s2,24(sp)
9d008a44:	2412ffff 	li	s2,-1
9d008a48:	afbf001c 	sw	ra,28(sp)
9d008a4c:	afb10014 	sw	s1,20(sp)
9d008a50:	14920009 	bne	a0,s2,9d008a78 <ungetc+0x3c>
9d008a54:	afb00010 	sw	s0,16(sp)
9d008a58:	2411ffff 	li	s1,-1
9d008a5c:	8fbf001c 	lw	ra,28(sp)
9d008a60:	02201025 	move	v0,s1
9d008a64:	8fb20018 	lw	s2,24(sp)
9d008a68:	8fb10014 	lw	s1,20(sp)
9d008a6c:	8fb00010 	lw	s0,16(sp)
9d008a70:	03e00008 	jr	ra
9d008a74:	27bd0020 	addiu	sp,sp,32
9d008a78:	8ca20018 	lw	v0,24(a1)
9d008a7c:	00a08025 	move	s0,a1
9d008a80:	00808825 	move	s1,a0
9d008a84:	8c420010 	lw	v0,16(v0)
9d008a88:	24050002 	li	a1,2
9d008a8c:	0040f809 	jalr	v0
9d008a90:	02002025 	move	a0,s0
9d008a94:	5040fff1 	beqzl	v0,9d008a5c <ungetc+0x20>
9d008a98:	2411ffff 	li	s1,-1
9d008a9c:	8e020000 	lw	v0,0(s0)
9d008aa0:	54520004 	bnel	v0,s2,9d008ab4 <ungetc+0x78>
9d008aa4:	8e03000c 	lw	v1,12(s0)
9d008aa8:	0f402459 	jal	9d009164 <_i_init>
9d008aac:	02002025 	move	a0,s0
9d008ab0:	8e03000c 	lw	v1,12(s0)
9d008ab4:	14600009 	bnez	v1,9d008adc <ungetc+0xa0>
9d008ab8:	8e020004 	lw	v0,4(s0)
9d008abc:	2403ffff 	li	v1,-1
9d008ac0:	5443ffe6 	bnel	v0,v1,9d008a5c <ungetc+0x20>
9d008ac4:	2411ffff 	li	s1,-1
9d008ac8:	ae110004 	sw	s1,4(s0)
9d008acc:	96020010 	lhu	v0,16(s0)
9d008ad0:	3042ffdf 	andi	v0,v0,0xffdf
9d008ad4:	1000ffe1 	b	9d008a5c <ungetc+0x20>
9d008ad8:	a6020010 	sh	v0,16(s0)
9d008adc:	8e040008 	lw	a0,8(s0)
9d008ae0:	0082202b 	sltu	a0,a0,v0
9d008ae4:	1480000b 	bnez	a0,9d008b14 <ungetc+0xd8>
9d008ae8:	8e030000 	lw	v1,0(s0)
9d008aec:	1460ffdc 	bnez	v1,9d008a60 <ungetc+0x24>
9d008af0:	8fbf001c 	lw	ra,28(sp)
9d008af4:	8e020004 	lw	v0,4(s0)
9d008af8:	24630001 	addiu	v1,v1,1
9d008afc:	ae030000 	sw	v1,0(s0)
9d008b00:	90430000 	lbu	v1,0(v0)
9d008b04:	5471fff1 	bnel	v1,s1,9d008acc <ungetc+0x90>
9d008b08:	a0510000 	sb	s1,0(v0)
9d008b0c:	1000fff0 	b	9d008ad0 <ungetc+0x94>
9d008b10:	96020010 	lhu	v0,16(s0)
9d008b14:	2442ffff 	addiu	v0,v0,-1
9d008b18:	1000fff6 	b	9d008af4 <ungetc+0xb8>
9d008b1c:	ae020004 	sw	v0,4(s0)

Disassembly of section .text.general_exception:

9d008b20 <_general_exception_context>:
9d008b20:	27bdffa8 	addiu	sp,sp,-88
9d008b24:	afa10004 	sw	at,4(sp)
9d008b28:	afa20008 	sw	v0,8(sp)
9d008b2c:	afa3000c 	sw	v1,12(sp)
9d008b30:	afa40010 	sw	a0,16(sp)
9d008b34:	afa50014 	sw	a1,20(sp)
9d008b38:	afa60018 	sw	a2,24(sp)
9d008b3c:	afa7001c 	sw	a3,28(sp)
9d008b40:	afa80020 	sw	t0,32(sp)
9d008b44:	afa90024 	sw	t1,36(sp)
9d008b48:	afaa0028 	sw	t2,40(sp)
9d008b4c:	afab002c 	sw	t3,44(sp)
9d008b50:	afac0030 	sw	t4,48(sp)
9d008b54:	afad0034 	sw	t5,52(sp)
9d008b58:	afae0038 	sw	t6,56(sp)
9d008b5c:	afaf003c 	sw	t7,60(sp)
9d008b60:	afb80040 	sw	t8,64(sp)
9d008b64:	afb90044 	sw	t9,68(sp)
9d008b68:	afbf0048 	sw	ra,72(sp)
9d008b6c:	00004012 	mflo	t0
9d008b70:	afa8004c 	sw	t0,76(sp)
9d008b74:	00004010 	mfhi	t0
9d008b78:	afa80050 	sw	t0,80(sp)
9d008b7c:	3c1a9d01 	lui	k0,0x9d01
9d008b80:	275a9970 	addiu	k0,k0,-26256
9d008b84:	00000000 	nop
9d008b88:	40046800 	mfc0	a0,c0_cause
9d008b8c:	40056000 	mfc0	a1,c0_status
9d008b90:	0340f809 	jalr	k0
9d008b94:	00000000 	nop
9d008b98:	8fa80050 	lw	t0,80(sp)
9d008b9c:	01000011 	mthi	t0
9d008ba0:	8fa8004c 	lw	t0,76(sp)
9d008ba4:	01000013 	mtlo	t0
9d008ba8:	8fa10004 	lw	at,4(sp)
9d008bac:	8fa20008 	lw	v0,8(sp)
9d008bb0:	8fa3000c 	lw	v1,12(sp)
9d008bb4:	8fa40010 	lw	a0,16(sp)
9d008bb8:	8fa50014 	lw	a1,20(sp)
9d008bbc:	8fa60018 	lw	a2,24(sp)
9d008bc0:	8fa7001c 	lw	a3,28(sp)
9d008bc4:	8fa80020 	lw	t0,32(sp)
9d008bc8:	8fa90024 	lw	t1,36(sp)
9d008bcc:	8faa0028 	lw	t2,40(sp)
9d008bd0:	8fab002c 	lw	t3,44(sp)
9d008bd4:	8fac0030 	lw	t4,48(sp)
9d008bd8:	8fad0034 	lw	t5,52(sp)
9d008bdc:	8fae0038 	lw	t6,56(sp)
9d008be0:	8faf003c 	lw	t7,60(sp)
9d008be4:	8fb80040 	lw	t8,64(sp)
9d008be8:	8fb90044 	lw	t9,68(sp)
9d008bec:	8fbf0048 	lw	ra,72(sp)
9d008bf0:	27bd0058 	addiu	sp,sp,88
9d008bf4:	000000c0 	ehb
9d008bf8:	42000018 	eret

Disassembly of section .text._flsbuf_simple:

9d008bfc <_flsbuf_simple>:
9d008bfc:	8ca2000c 	lw	v0,12(a1)
9d008c00:	27bdffd8 	addiu	sp,sp,-40
9d008c04:	afb10020 	sw	s1,32(sp)
9d008c08:	afb0001c 	sw	s0,28(sp)
9d008c0c:	afbf0024 	sw	ra,36(sp)
9d008c10:	00808825 	move	s1,a0
9d008c14:	1440000c 	bnez	v0,9d008c48 <_flsbuf_simple+0x4c>
9d008c18:	00a08025 	move	s0,a1
9d008c1c:	a3a40010 	sb	a0,16(sp)
9d008c20:	24050001 	li	a1,1
9d008c24:	0f402622 	jal	9d009888 <_mon_write>
9d008c28:	27a40010 	addiu	a0,sp,16
9d008c2c:	ae000000 	sw	zero,0(s0)
9d008c30:	8fbf0024 	lw	ra,36(sp)
9d008c34:	02201025 	move	v0,s1
9d008c38:	8fb0001c 	lw	s0,28(sp)
9d008c3c:	8fb10020 	lw	s1,32(sp)
9d008c40:	03e00008 	jr	ra
9d008c44:	27bd0028 	addiu	sp,sp,40
9d008c48:	8ca20000 	lw	v0,0(a1)
9d008c4c:	2403ffff 	li	v1,-1
9d008c50:	24420001 	addiu	v0,v0,1
9d008c54:	1443000a 	bne	v0,v1,9d008c80 <_flsbuf_simple+0x84>
9d008c58:	aca20000 	sw	v0,0(a1)
9d008c5c:	8ca20008 	lw	v0,8(a1)
9d008c60:	14400007 	bnez	v0,9d008c80 <_flsbuf_simple+0x84>
9d008c64:	00000000 	nop
9d008c68:	94a20010 	lhu	v0,16(a1)
9d008c6c:	aca00004 	sw	zero,4(a1)
9d008c70:	aca0000c 	sw	zero,12(a1)
9d008c74:	34420010 	ori	v0,v0,0x10
9d008c78:	aca00000 	sw	zero,0(a1)
9d008c7c:	a4a20010 	sh	v0,16(a1)
9d008c80:	0f402532 	jal	9d0094c8 <_fflush_simple>
9d008c84:	02002025 	move	a0,s0
9d008c88:	8e020000 	lw	v0,0(s0)
9d008c8c:	2442ffff 	addiu	v0,v0,-1
9d008c90:	ae020000 	sw	v0,0(s0)
9d008c94:	8e020004 	lw	v0,4(s0)
9d008c98:	24430001 	addiu	v1,v0,1
9d008c9c:	ae030004 	sw	v1,4(s0)
9d008ca0:	a0510000 	sb	s1,0(v0)
9d008ca4:	2402000a 	li	v0,10
9d008ca8:	1622ffe2 	bne	s1,v0,9d008c34 <_flsbuf_simple+0x38>
9d008cac:	8fbf0024 	lw	ra,36(sp)
9d008cb0:	96020010 	lhu	v0,16(s0)
9d008cb4:	30420008 	andi	v0,v0,0x8
9d008cb8:	1040ffdf 	beqz	v0,9d008c38 <_flsbuf_simple+0x3c>
9d008cbc:	02201025 	move	v0,s1
9d008cc0:	0f402532 	jal	9d0094c8 <_fflush_simple>
9d008cc4:	02002025 	move	a0,s0
9d008cc8:	1000ffda 	b	9d008c34 <_flsbuf_simple+0x38>
9d008ccc:	8fbf0024 	lw	ra,36(sp)

Disassembly of section .text.putget.2903:

9d008cd0 <putget.2903>:
9d008cd0:	8de20010 	lw	v0,16(t7)
9d008cd4:	8de50014 	lw	a1,20(t7)
9d008cd8:	27bdffe0 	addiu	sp,sp,-32
9d008cdc:	afb10018 	sw	s1,24(sp)
9d008ce0:	afb00014 	sw	s0,20(sp)
9d008ce4:	afbf001c 	sw	ra,28(sp)
9d008ce8:	00808825 	move	s1,a0
9d008cec:	14a2000a 	bne	a1,v0,9d008d18 <putget.2903+0x48>
9d008cf0:	01e08025 	move	s0,t7
9d008cf4:	8de4000c 	lw	a0,12(t7)
9d008cf8:	24a50080 	addiu	a1,a1,128
9d008cfc:	1080001f 	beqz	a0,9d008d7c <putget.2903+0xac>
9d008d00:	ade50010 	sw	a1,16(t7)
9d008d04:	0f400f6d 	jal	9d003db4 <realloc>
9d008d08:	00000000 	nop
9d008d0c:	ae02000c 	sw	v0,12(s0)
9d008d10:	8e02000c 	lw	v0,12(s0)
9d008d14:	ae020008 	sw	v0,8(s0)
9d008d18:	8e030014 	lw	v1,20(s0)
9d008d1c:	24620001 	addiu	v0,v1,1
9d008d20:	ae020014 	sw	v0,20(s0)
9d008d24:	8e020008 	lw	v0,8(s0)
9d008d28:	00431021 	addu	v0,v0,v1
9d008d2c:	1220000d 	beqz	s1,9d008d64 <putget.2903+0x94>
9d008d30:	a0510000 	sb	s1,0(v0)
9d008d34:	8e020004 	lw	v0,4(s0)
9d008d38:	1040000a 	beqz	v0,9d008d64 <putget.2903+0x94>
9d008d3c:	2411ffff 	li	s1,-1
9d008d40:	0f4025e2 	jal	9d009788 <gsgetc>
9d008d44:	8e040000 	lw	a0,0(s0)
9d008d48:	00408825 	move	s1,v0
9d008d4c:	2402ffff 	li	v0,-1
9d008d50:	12220005 	beq	s1,v0,9d008d68 <putget.2903+0x98>
9d008d54:	8fbf001c 	lw	ra,28(sp)
9d008d58:	8e020004 	lw	v0,4(s0)
9d008d5c:	2442ffff 	addiu	v0,v0,-1
9d008d60:	ae020004 	sw	v0,4(s0)
9d008d64:	8fbf001c 	lw	ra,28(sp)
9d008d68:	02201025 	move	v0,s1
9d008d6c:	8fb00014 	lw	s0,20(sp)
9d008d70:	8fb10018 	lw	s1,24(sp)
9d008d74:	03e00008 	jr	ra
9d008d78:	27bd0020 	addiu	sp,sp,32
9d008d7c:	0f400c45 	jal	9d003114 <malloc>
9d008d80:	00a02025 	move	a0,a1
9d008d84:	8e050008 	lw	a1,8(s0)
9d008d88:	ae02000c 	sw	v0,12(s0)
9d008d8c:	24060080 	li	a2,128
9d008d90:	0f4026e8 	jal	9d009ba0 <memcpy>
9d008d94:	00402025 	move	a0,v0
9d008d98:	1000ffde 	b	9d008d14 <putget.2903+0x44>
9d008d9c:	8e02000c 	lw	v0,12(s0)

Disassembly of section .text._sbrk:

9d008da0 <_sbrk>:
9d008da0:	27bdffe0 	addiu	sp,sp,-32
9d008da4:	afb00014 	sw	s0,20(sp)
9d008da8:	3c10a000 	lui	s0,0xa000
9d008dac:	8e0206b0 	lw	v0,1712(s0)
9d008db0:	afb10018 	sw	s1,24(sp)
9d008db4:	afbf001c 	sw	ra,28(sp)
9d008db8:	1440000f 	bnez	v0,9d008df8 <_sbrk+0x58>
9d008dbc:	00808825 	move	s1,a0
9d008dc0:	0f4020a7 	jal	9d00829c <_sbrk_init>
9d008dc4:	00000000 	nop
9d008dc8:	8e0206b0 	lw	v0,1712(s0)
9d008dcc:	1440000b 	bnez	v0,9d008dfc <_sbrk+0x5c>
9d008dd0:	00000000 	nop
9d008dd4:	3c02a000 	lui	v0,0xa000
9d008dd8:	2403000c 	li	v1,12
9d008ddc:	ac430088 	sw	v1,136(v0)
9d008de0:	2402ffff 	li	v0,-1
9d008de4:	8fbf001c 	lw	ra,28(sp)
9d008de8:	8fb10018 	lw	s1,24(sp)
9d008dec:	8fb00014 	lw	s0,20(sp)
9d008df0:	03e00008 	jr	ra
9d008df4:	27bd0020 	addiu	sp,sp,32
9d008df8:	8e0206b0 	lw	v0,1712(s0)
9d008dfc:	1a20000a 	blez	s1,9d008e28 <_sbrk+0x88>
9d008e00:	00511821 	addu	v1,v0,s1
9d008e04:	0062202b 	sltu	a0,v1,v0
9d008e08:	1480fff2 	bnez	a0,9d008dd4 <_sbrk+0x34>
9d008e0c:	3c04a000 	lui	a0,0xa000
9d008e10:	8c8406b4 	lw	a0,1716(a0)
9d008e14:	0083202b 	sltu	a0,a0,v1
9d008e18:	5480ffef 	bnezl	a0,9d008dd8 <_sbrk+0x38>
9d008e1c:	3c02a000 	lui	v0,0xa000
9d008e20:	1000fff0 	b	9d008de4 <_sbrk+0x44>
9d008e24:	ae0306b0 	sw	v1,1712(s0)
9d008e28:	0043202b 	sltu	a0,v0,v1
9d008e2c:	14800005 	bnez	a0,9d008e44 <_sbrk+0xa4>
9d008e30:	3c04a000 	lui	a0,0xa000
9d008e34:	8c8406b8 	lw	a0,1720(a0)
9d008e38:	0064202b 	sltu	a0,v1,a0
9d008e3c:	5080ffe9 	beqzl	a0,9d008de4 <_sbrk+0x44>
9d008e40:	ae0306b0 	sw	v1,1712(s0)
9d008e44:	3c02a000 	lui	v0,0xa000
9d008e48:	1000ffe4 	b	9d008ddc <_sbrk+0x3c>
9d008e4c:	24030016 	li	v1,22

Disassembly of section .text.repl.constprop.0:

9d008e50 <repl.constprop.0>:
9d008e50:	27bdffd0 	addiu	sp,sp,-48
9d008e54:	afb60028 	sw	s6,40(sp)
9d008e58:	afb50024 	sw	s5,36(sp)
9d008e5c:	afb40020 	sw	s4,32(sp)
9d008e60:	afb3001c 	sw	s3,28(sp)
9d008e64:	afb10014 	sw	s1,20(sp)
9d008e68:	afbf002c 	sw	ra,44(sp)
9d008e6c:	afb20018 	sw	s2,24(sp)
9d008e70:	afb00010 	sw	s0,16(sp)
9d008e74:	0080a025 	move	s4,a0
9d008e78:	00a08825 	move	s1,a1
9d008e7c:	24160020 	li	s6,32
9d008e80:	3c159d01 	lui	s5,0x9d01
9d008e84:	2413ffff 	li	s3,-1
9d008e88:	2e300021 	sltiu	s0,s1,33
9d008e8c:	02c01025 	move	v0,s6
9d008e90:	0230100b 	movn	v0,s1,s0
9d008e94:	00408025 	move	s0,v0
9d008e98:	02228823 	subu	s1,s1,v0
9d008e9c:	26b29c64 	addiu	s2,s5,-25500
9d008ea0:	2610ffff 	addiu	s0,s0,-1
9d008ea4:	16130005 	bne	s0,s3,9d008ebc <repl.constprop.0+0x6c>
9d008ea8:	26520001 	addiu	s2,s2,1
9d008eac:	1620fff7 	bnez	s1,9d008e8c <repl.constprop.0+0x3c>
9d008eb0:	2e300021 	sltiu	s0,s1,33
9d008eb4:	10000006 	b	9d008ed0 <repl.constprop.0+0x80>
9d008eb8:	00001025 	move	v0,zero
9d008ebc:	8244ffff 	lb	a0,-1(s2)
9d008ec0:	0f4023e7 	jal	9d008f9c <fputc>
9d008ec4:	02802825 	move	a1,s4
9d008ec8:	1453fff6 	bne	v0,s3,9d008ea4 <repl.constprop.0+0x54>
9d008ecc:	2610ffff 	addiu	s0,s0,-1
9d008ed0:	8fbf002c 	lw	ra,44(sp)
9d008ed4:	8fb60028 	lw	s6,40(sp)
9d008ed8:	8fb50024 	lw	s5,36(sp)
9d008edc:	8fb40020 	lw	s4,32(sp)
9d008ee0:	8fb3001c 	lw	s3,28(sp)
9d008ee4:	8fb20018 	lw	s2,24(sp)
9d008ee8:	8fb10014 	lw	s1,20(sp)
9d008eec:	8fb00010 	lw	s0,16(sp)
9d008ef0:	03e00008 	jr	ra
9d008ef4:	27bd0030 	addiu	sp,sp,48

Disassembly of section .text._o_init:

9d008ef8 <_o_init>:
9d008ef8:	3c02a000 	lui	v0,0xa000
9d008efc:	8c430000 	lw	v1,0(v0)
9d008f00:	3c029d01 	lui	v0,0x9d01
9d008f04:	27bdffe8 	addiu	sp,sp,-24
9d008f08:	24429b3c 	addiu	v0,v0,-25796
9d008f0c:	afb00010 	sw	s0,16(sp)
9d008f10:	afbf0014 	sw	ra,20(sp)
9d008f14:	ac620034 	sw	v0,52(v1)
9d008f18:	8c820008 	lw	v0,8(a0)
9d008f1c:	14400003 	bnez	v0,9d008f2c <_o_init+0x34>
9d008f20:	00808025 	move	s0,a0
9d008f24:	0f40260d 	jal	9d009834 <_bufalloc>
9d008f28:	00000000 	nop
9d008f2c:	8e02000c 	lw	v0,12(s0)
9d008f30:	50400004 	beqzl	v0,9d008f44 <_o_init+0x4c>
9d008f34:	ae020000 	sw	v0,0(s0)
9d008f38:	8e030008 	lw	v1,8(s0)
9d008f3c:	ae030004 	sw	v1,4(s0)
9d008f40:	ae020000 	sw	v0,0(s0)
9d008f44:	96020010 	lhu	v0,16(s0)
9d008f48:	34430002 	ori	v1,v0,0x2
9d008f4c:	a6030010 	sh	v1,16(s0)
9d008f50:	30431000 	andi	v1,v0,0x1000
9d008f54:	1060000e 	beqz	v1,9d008f90 <_o_init+0x98>
9d008f58:	8fbf0014 	lw	ra,20(sp)
9d008f5c:	30420008 	andi	v0,v0,0x8
9d008f60:	50400008 	beqzl	v0,9d008f84 <_o_init+0x8c>
9d008f64:	96020010 	lhu	v0,16(s0)
9d008f68:	0f4027b9 	jal	9d009ee4 <isatty>
9d008f6c:	86040012 	lh	a0,18(s0)
9d008f70:	14400004 	bnez	v0,9d008f84 <_o_init+0x8c>
9d008f74:	96020010 	lhu	v0,16(s0)
9d008f78:	3042fff7 	andi	v0,v0,0xfff7
9d008f7c:	a6020010 	sh	v0,16(s0)
9d008f80:	96020010 	lhu	v0,16(s0)
9d008f84:	3042efff 	andi	v0,v0,0xefff
9d008f88:	a6020010 	sh	v0,16(s0)
9d008f8c:	8fbf0014 	lw	ra,20(sp)
9d008f90:	8fb00010 	lw	s0,16(sp)
9d008f94:	03e00008 	jr	ra
9d008f98:	27bd0018 	addiu	sp,sp,24

Disassembly of section .text.fputc:

9d008f9c <fputc>:
9d008f9c:	8ca20018 	lw	v0,24(a1)
9d008fa0:	27bdffe0 	addiu	sp,sp,-32
9d008fa4:	afb00014 	sw	s0,20(sp)
9d008fa8:	8c420010 	lw	v0,16(v0)
9d008fac:	00a08025 	move	s0,a1
9d008fb0:	afb10018 	sw	s1,24(sp)
9d008fb4:	afbf001c 	sw	ra,28(sp)
9d008fb8:	00808825 	move	s1,a0
9d008fbc:	24050001 	li	a1,1
9d008fc0:	0040f809 	jalr	v0
9d008fc4:	02002025 	move	a0,s0
9d008fc8:	50400012 	beqzl	v0,9d009014 <fputc+0x78>
9d008fcc:	2411ffff 	li	s1,-1
9d008fd0:	8e020000 	lw	v0,0(s0)
9d008fd4:	2442ffff 	addiu	v0,v0,-1
9d008fd8:	04400008 	bltz	v0,9d008ffc <fputc+0x60>
9d008fdc:	ae020000 	sw	v0,0(s0)
9d008fe0:	96020010 	lhu	v0,16(s0)
9d008fe4:	30420008 	andi	v0,v0,0x8
9d008fe8:	50400010 	beqzl	v0,9d00902c <fputc+0x90>
9d008fec:	8e020004 	lw	v0,4(s0)
9d008ff0:	2402000a 	li	v0,10
9d008ff4:	5622000d 	bnel	s1,v0,9d00902c <fputc+0x90>
9d008ff8:	8e020004 	lw	v0,4(s0)
9d008ffc:	8e020018 	lw	v0,24(s0)
9d009000:	02202025 	move	a0,s1
9d009004:	8c420004 	lw	v0,4(v0)
9d009008:	0040f809 	jalr	v0
9d00900c:	02002825 	move	a1,s0
9d009010:	00408825 	move	s1,v0
9d009014:	8fbf001c 	lw	ra,28(sp)
9d009018:	02201025 	move	v0,s1
9d00901c:	8fb00014 	lw	s0,20(sp)
9d009020:	8fb10018 	lw	s1,24(sp)
9d009024:	03e00008 	jr	ra
9d009028:	27bd0020 	addiu	sp,sp,32
9d00902c:	24430001 	addiu	v1,v0,1
9d009030:	ae030004 	sw	v1,4(s0)
9d009034:	1000fff7 	b	9d009014 <fputc+0x78>
9d009038:	a0510000 	sb	s1,0(v0)

Disassembly of section .text._fullexit:

9d00903c <_fullexit>:
9d00903c:	27bdffe0 	addiu	sp,sp,-32
9d009040:	afb00010 	sw	s0,16(sp)
9d009044:	3c10a000 	lui	s0,0xa000
9d009048:	afb20018 	sw	s2,24(sp)
9d00904c:	afb10014 	sw	s1,20(sp)
9d009050:	00809025 	move	s2,a0
9d009054:	3c11a000 	lui	s1,0xa000
9d009058:	afbf001c 	sw	ra,28(sp)
9d00905c:	0f40278f 	jal	9d009e3c <_weak_pthread_mutex_lock>
9d009060:	260406bc 	addiu	a0,s0,1724
9d009064:	8e220000 	lw	v0,0(s1)
9d009068:	24030001 	li	v1,1
9d00906c:	260406bc 	addiu	a0,s0,1724
9d009070:	0f402793 	jal	9d009e4c <_weak_pthread_mutex_unlock>
9d009074:	ac430038 	sw	v1,56(v0)
9d009078:	8e220000 	lw	v0,0(s1)
9d00907c:	8c500010 	lw	s0,16(v0)
9d009080:	56000010 	bnezl	s0,9d0090c4 <_fullexit+0x88>
9d009084:	8e020004 	lw	v0,4(s0)
9d009088:	8e220000 	lw	v0,0(s1)
9d00908c:	8c420034 	lw	v0,52(v0)
9d009090:	10400003 	beqz	v0,9d0090a0 <_fullexit+0x64>
9d009094:	00000000 	nop
9d009098:	0040f809 	jalr	v0
9d00909c:	00000000 	nop
9d0090a0:	0f4027b7 	jal	9d009edc <_exit>
9d0090a4:	02402025 	move	a0,s2
9d0090a8:	24420001 	addiu	v0,v0,1
9d0090ac:	00021080 	sll	v0,v0,0x2
9d0090b0:	02021021 	addu	v0,s0,v0
9d0090b4:	8c420000 	lw	v0,0(v0)
9d0090b8:	0040f809 	jalr	v0
9d0090bc:	ae030004 	sw	v1,4(s0)
9d0090c0:	8e020004 	lw	v0,4(s0)
9d0090c4:	1c40fff8 	bgtz	v0,9d0090a8 <_fullexit+0x6c>
9d0090c8:	2443ffff 	addiu	v1,v0,-1
9d0090cc:	1000ffec 	b	9d009080 <_fullexit+0x44>
9d0090d0:	8e100000 	lw	s0,0(s0)

Disassembly of section .text.strchr:

9d0090d4 <strchr>:
9d0090d4:	30820003 	andi	v0,a0,0x3
9d0090d8:	10400009 	beqz	v0,9d009100 <strchr+0x2c>
9d0090dc:	30a900ff 	andi	t1,a1,0xff
9d0090e0:	00801025 	move	v0,a0
9d0090e4:	90430000 	lbu	v1,0(v0)
9d0090e8:	1069001c 	beq	v1,t1,9d00915c <strchr+0x88>
9d0090ec:	00000000 	nop
9d0090f0:	5060001a 	beqzl	v1,9d00915c <strchr+0x88>
9d0090f4:	00001025 	move	v0,zero
9d0090f8:	1000fffa 	b	9d0090e4 <strchr+0x10>
9d0090fc:	24420001 	addiu	v0,v0,1
9d009100:	30a500ff 	andi	a1,a1,0xff
9d009104:	00051200 	sll	v0,a1,0x8
9d009108:	00452825 	or	a1,v0,a1
9d00910c:	00051400 	sll	v0,a1,0x10
9d009110:	3c07fefe 	lui	a3,0xfefe
9d009114:	3c088080 	lui	t0,0x8080
9d009118:	00452825 	or	a1,v0,a1
9d00911c:	34e7feff 	ori	a3,a3,0xfeff
9d009120:	35088080 	ori	t0,t0,0x8080
9d009124:	8c830000 	lw	v1,0(a0)
9d009128:	00653026 	xor	a2,v1,a1
9d00912c:	00671021 	addu	v0,v1,a3
9d009130:	00031827 	nor	v1,zero,v1
9d009134:	00431024 	and	v0,v0,v1
9d009138:	00c71821 	addu	v1,a2,a3
9d00913c:	00063027 	nor	a2,zero,a2
9d009140:	00663024 	and	a2,v1,a2
9d009144:	00461025 	or	v0,v0,a2
9d009148:	00481024 	and	v0,v0,t0
9d00914c:	1440ffe5 	bnez	v0,9d0090e4 <strchr+0x10>
9d009150:	00801025 	move	v0,a0
9d009154:	1000fff3 	b	9d009124 <strchr+0x50>
9d009158:	24840004 	addiu	a0,a0,4
9d00915c:	03e00008 	jr	ra
9d009160:	00000000 	nop

Disassembly of section .text._i_init:

9d009164 <_i_init>:
9d009164:	8c820008 	lw	v0,8(a0)
9d009168:	27bdffe8 	addiu	sp,sp,-24
9d00916c:	afb00010 	sw	s0,16(sp)
9d009170:	afbf0014 	sw	ra,20(sp)
9d009174:	14400003 	bnez	v0,9d009184 <_i_init+0x20>
9d009178:	00808025 	move	s0,a0
9d00917c:	0f40260d 	jal	9d009834 <_bufalloc>
9d009180:	00000000 	nop
9d009184:	8e02000c 	lw	v0,12(s0)
9d009188:	54400002 	bnezl	v0,9d009194 <_i_init+0x30>
9d00918c:	8e020008 	lw	v0,8(s0)
9d009190:	2402ffff 	li	v0,-1
9d009194:	ae020004 	sw	v0,4(s0)
9d009198:	96020010 	lhu	v0,16(s0)
9d00919c:	ae000000 	sw	zero,0(s0)
9d0091a0:	34430001 	ori	v1,v0,0x1
9d0091a4:	a6030010 	sh	v1,16(s0)
9d0091a8:	30431000 	andi	v1,v0,0x1000
9d0091ac:	1060000e 	beqz	v1,9d0091e8 <_i_init+0x84>
9d0091b0:	8fbf0014 	lw	ra,20(sp)
9d0091b4:	30420008 	andi	v0,v0,0x8
9d0091b8:	50400008 	beqzl	v0,9d0091dc <_i_init+0x78>
9d0091bc:	96020010 	lhu	v0,16(s0)
9d0091c0:	0f4027b9 	jal	9d009ee4 <isatty>
9d0091c4:	86040012 	lh	a0,18(s0)
9d0091c8:	14400004 	bnez	v0,9d0091dc <_i_init+0x78>
9d0091cc:	96020010 	lhu	v0,16(s0)
9d0091d0:	3042fff7 	andi	v0,v0,0xfff7
9d0091d4:	a6020010 	sh	v0,16(s0)
9d0091d8:	96020010 	lhu	v0,16(s0)
9d0091dc:	3042efff 	andi	v0,v0,0xefff
9d0091e0:	a6020010 	sh	v0,16(s0)
9d0091e4:	8fbf0014 	lw	ra,20(sp)
9d0091e8:	8fb00010 	lw	s0,16(sp)
9d0091ec:	03e00008 	jr	ra
9d0091f0:	27bd0018 	addiu	sp,sp,24

Disassembly of section .text:

9d0091f4 <__pic32_data_init>:
9d0091f4:	03e01825 	move	v1,ra

9d0091f8 <_dinit_init>:
9d0091f8:	3c089d00 	lui	t0,0x9d00
9d0091fc:	250837e4 	addiu	t0,t0,14308
9d009200:	8d090000 	lw	t1,0(t0)
9d009204:	11200018 	beqz	t1,9d009268 <_dinit_end+0x18>
9d009208:	25080004 	addiu	t0,t0,4
9d00920c:	8d0a0000 	lw	t2,0(t0)
9d009210:	25080004 	addiu	t0,t0,4
9d009214:	8d0b0000 	lw	t3,0(t0)
9d009218:	11600009 	beqz	t3,9d009240 <_dinit_clear>
9d00921c:	25080004 	addiu	t0,t0,4

9d009220 <_dinit_copy>:
9d009220:	910c0000 	lbu	t4,0(t0)
9d009224:	254affff 	addiu	t2,t2,-1
9d009228:	25080001 	addiu	t0,t0,1
9d00922c:	a12c0000 	sb	t4,0(t1)
9d009230:	1540fffb 	bnez	t2,9d009220 <_dinit_copy>
9d009234:	25290001 	addiu	t1,t1,1
9d009238:	10000005 	b	9d009250 <_dinit_end>
9d00923c:	00000000 	nop

9d009240 <_dinit_clear>:
9d009240:	a1200000 	sb	zero,0(t1)
9d009244:	254affff 	addiu	t2,t2,-1
9d009248:	1540fffd 	bnez	t2,9d009240 <_dinit_clear>
9d00924c:	25290001 	addiu	t1,t1,1

9d009250 <_dinit_end>:
9d009250:	25080003 	addiu	t0,t0,3
9d009254:	240afffc 	li	t2,-4
9d009258:	01484024 	and	t0,t2,t0
9d00925c:	8d090000 	lw	t1,0(t0)
9d009260:	1520ffe7 	bnez	t1,9d009200 <_dinit_init+0x8>
9d009264:	00000000 	nop
9d009268:	0060f825 	move	ra,v1
9d00926c:	03e00008 	jr	ra
9d009270:	00000000 	nop
9d009274:	00000000 	nop

9d009278 <PositionControl>:

#include "posn.h"

//200Hz ISR to control torque/motor commands
void __ISR(_TIMER_4_VECTOR, IPL4SOFT) PositionControl(void) {
9d009278:	415de800 	rdpgpr	sp,sp
9d00927c:	401a7000 	mfc0	k0,c0_epc
9d009280:	401b6000 	mfc0	k1,c0_status
9d009284:	27bdffe8 	addiu	sp,sp,-24
9d009288:	afba0014 	sw	k0,20(sp)
9d00928c:	401a6002 	mfc0	k0,c0_srsctl
9d009290:	afbb0010 	sw	k1,16(sp)
9d009294:	afba000c 	sw	k0,12(sp)
9d009298:	7c1b7844 	ins	k1,zero,0x1,0xf
9d00929c:	377b1000 	ori	k1,k1,0x1000
9d0092a0:	409b6000 	mtc0	k1,c0_status
9d0092a4:	afa30004 	sw	v1,4(sp)
9d0092a8:	afa20000 	sw	v0,0(sp)
	//takes position data from the encoder via SPI



	//clear interrupt flag
	IFS0bits.T4IF = 0;
9d0092ac:	3c02bf88 	lui	v0,0xbf88
9d0092b0:	8c431030 	lw	v1,4144(v0)
9d0092b4:	7c038404 	ins	v1,zero,0x10,0x1
9d0092b8:	ac431030 	sw	v1,4144(v0)

9d0092bc:	8fa30004 	lw	v1,4(sp)
9d0092c0:	8fa20000 	lw	v0,0(sp)
9d0092c4:	41606000 	di
9d0092c8:	000000c0 	ehb
9d0092cc:	8fba0014 	lw	k0,20(sp)
9d0092d0:	8fbb0010 	lw	k1,16(sp)
9d0092d4:	409a7000 	mtc0	k0,c0_epc
9d0092d8:	8fba000c 	lw	k0,12(sp)
9d0092dc:	27bd0018 	addiu	sp,sp,24
9d0092e0:	409a6002 	mtc0	k0,c0_srsctl
9d0092e4:	41dde800 	wrpgpr	sp,sp
9d0092e8:	409b6000 	mtc0	k1,c0_status
9d0092ec:	42000018 	eret

Disassembly of section .text._eat_white:

9d0092f0 <_eat_white>:
9d0092f0:	27bdffe0 	addiu	sp,sp,-32
9d0092f4:	afb10014 	sw	s1,20(sp)
9d0092f8:	3c119d01 	lui	s1,0x9d01
9d0092fc:	afb20018 	sw	s2,24(sp)
9d009300:	afb00010 	sw	s0,16(sp)
9d009304:	afbf001c 	sw	ra,28(sp)
9d009308:	00808025 	move	s0,a0
9d00930c:	2412ffff 	li	s2,-1
9d009310:	2631864d 	addiu	s1,s1,-31155
9d009314:	0f4025e2 	jal	9d009788 <gsgetc>
9d009318:	02002025 	move	a0,s0
9d00931c:	10520005 	beq	v0,s2,9d009334 <_eat_white+0x44>
9d009320:	00511821 	addu	v1,v0,s1
9d009324:	80630000 	lb	v1,0(v1)
9d009328:	30630088 	andi	v1,v1,0x88
9d00932c:	1460fff9 	bnez	v1,9d009314 <_eat_white+0x24>
9d009330:	00000000 	nop
9d009334:	8e030010 	lw	v1,16(s0)
9d009338:	8fbf001c 	lw	ra,28(sp)
9d00933c:	ae020004 	sw	v0,4(s0)
9d009340:	24420001 	addiu	v0,v0,1
9d009344:	2463ffff 	addiu	v1,v1,-1
9d009348:	2c420001 	sltiu	v0,v0,1
9d00934c:	ae030010 	sw	v1,16(s0)
9d009350:	00021023 	negu	v0,v0
9d009354:	8fb20018 	lw	s2,24(sp)
9d009358:	8fb10014 	lw	s1,20(sp)
9d00935c:	8fb00010 	lw	s0,16(sp)
9d009360:	03e00008 	jr	ra
9d009364:	27bd0020 	addiu	sp,sp,32

Disassembly of section .text.litodp:

9d009368 <__floatsidf>:
9d009368:	24050000 00054825 00053825 00043025     ...$%H..%8..%0..
9d009378:	10c0000c 00000000 04c10006 00000000     ................
9d009388:	3c098000 0005502b 00052823 00063023     ...<+P..#(..#0..
9d009398:	00ca3023                                #0..

9d00939c <i40>:
9d00939c:	2407041e 	li	a3,1054
9d0093a0:	70c84020 	clz	t0,a2
9d0093a4:	00e83823 	subu	a3,a3,t0
9d0093a8:	01063004 	sllv	a2,a2,t0

9d0093ac <i39>:
9d0093ac:	000542c2 	srl	t0,a1,0xb
9d0093b0:	00065540 	sll	t2,a2,0x15
9d0093b4:	010a4025 	or	t0,t0,t2
9d0093b8:	00065040 	sll	t2,a2,0x1
9d0093bc:	000a5302 	srl	t2,t2,0xc
9d0093c0:	012a4825 	or	t1,t1,t2
9d0093c4:	00075500 	sll	t2,a3,0x14
9d0093c8:	012a4825 	or	t1,t1,t2
9d0093cc:	00081025 	or	v0,zero,t0
9d0093d0:	00091825 	or	v1,zero,t1

9d0093d4 <E999>:
9d0093d4:	03e00008 	jr	ra
9d0093d8:	00000000 	nop
9d0093dc:	00000000 	nop

Disassembly of section .text._fwrite_simple:

9d0093e0 <_fwrite_simple>:
9d0093e0:	27bdffe0 	addiu	sp,sp,-32
9d0093e4:	afb10014 	sw	s1,20(sp)
9d0093e8:	70c58802 	mul	s1,a2,a1
9d0093ec:	afbf001c 	sw	ra,28(sp)
9d0093f0:	afb20018 	sw	s2,24(sp)
9d0093f4:	12200007 	beqz	s1,9d009414 <_fwrite_simple+0x34>
9d0093f8:	afb00010 	sw	s0,16(sp)
9d0093fc:	94e20010 	lhu	v0,16(a3)
9d009400:	30420001 	andi	v0,v0,0x1
9d009404:	10400005 	beqz	v0,9d00941c <_fwrite_simple+0x3c>
9d009408:	3c02a000 	lui	v0,0xa000
9d00940c:	24030009 	li	v1,9
9d009410:	ac430088 	sw	v1,136(v0)
9d009414:	10000008 	b	9d009438 <_fwrite_simple+0x58>
9d009418:	00008025 	move	s0,zero
9d00941c:	00809025 	move	s2,a0
9d009420:	00e02025 	move	a0,a3
9d009424:	0f402532 	jal	9d0094c8 <_fflush_simple>
9d009428:	00c08025 	move	s0,a2
9d00942c:	02202825 	move	a1,s1
9d009430:	0f402622 	jal	9d009888 <_mon_write>
9d009434:	02402025 	move	a0,s2
9d009438:	8fbf001c 	lw	ra,28(sp)
9d00943c:	02001025 	move	v0,s0
9d009440:	8fb20018 	lw	s2,24(sp)
9d009444:	8fb10014 	lw	s1,20(sp)
9d009448:	8fb00010 	lw	s0,16(sp)
9d00944c:	03e00008 	jr	ra
9d009450:	27bd0020 	addiu	sp,sp,32

Disassembly of section .text.fgetc:

9d009454 <fgetc>:
9d009454:	8c820018 	lw	v0,24(a0)
9d009458:	27bdffe8 	addiu	sp,sp,-24
9d00945c:	afb00010 	sw	s0,16(sp)
9d009460:	8c420010 	lw	v0,16(v0)
9d009464:	afbf0014 	sw	ra,20(sp)
9d009468:	24050002 	li	a1,2
9d00946c:	0040f809 	jalr	v0
9d009470:	00808025 	move	s0,a0
9d009474:	10400009 	beqz	v0,9d00949c <fgetc+0x48>
9d009478:	2403ffff 	li	v1,-1
9d00947c:	8e020000 	lw	v0,0(s0)
9d009480:	2442ffff 	addiu	v0,v0,-1
9d009484:	0440000a 	bltz	v0,9d0094b0 <fgetc+0x5c>
9d009488:	ae020000 	sw	v0,0(s0)
9d00948c:	8e020004 	lw	v0,4(s0)
9d009490:	24430001 	addiu	v1,v0,1
9d009494:	ae030004 	sw	v1,4(s0)
9d009498:	90430000 	lbu	v1,0(v0)
9d00949c:	8fbf0014 	lw	ra,20(sp)
9d0094a0:	00601025 	move	v0,v1
9d0094a4:	8fb00010 	lw	s0,16(sp)
9d0094a8:	03e00008 	jr	ra
9d0094ac:	27bd0018 	addiu	sp,sp,24
9d0094b0:	8e020018 	lw	v0,24(s0)
9d0094b4:	8c420000 	lw	v0,0(v0)
9d0094b8:	0040f809 	jalr	v0
9d0094bc:	02002025 	move	a0,s0
9d0094c0:	1000fff6 	b	9d00949c <fgetc+0x48>
9d0094c4:	00401825 	move	v1,v0

Disassembly of section .text._fflush_simple:

9d0094c8 <_fflush_simple>:
9d0094c8:	94820010 	lhu	v0,16(a0)
9d0094cc:	30420002 	andi	v0,v0,0x2
9d0094d0:	10400016 	beqz	v0,9d00952c <_fflush_simple+0x64>
9d0094d4:	2402ffff 	li	v0,-1
9d0094d8:	8c820000 	lw	v0,0(a0)
9d0094dc:	04400014 	bltz	v0,9d009530 <_fflush_simple+0x68>
9d0094e0:	00000000 	nop
9d0094e4:	8c85000c 	lw	a1,12(a0)
9d0094e8:	27bdffe8 	addiu	sp,sp,-24
9d0094ec:	afb00010 	sw	s0,16(sp)
9d0094f0:	afbf0014 	sw	ra,20(sp)
9d0094f4:	10450004 	beq	v0,a1,9d009508 <_fflush_simple+0x40>
9d0094f8:	00808025 	move	s0,a0
9d0094fc:	8c840008 	lw	a0,8(a0)
9d009500:	0f402622 	jal	9d009888 <_mon_write>
9d009504:	00a22823 	subu	a1,a1,v0
9d009508:	8e020008 	lw	v0,8(s0)
9d00950c:	8fbf0014 	lw	ra,20(sp)
9d009510:	ae020004 	sw	v0,4(s0)
9d009514:	8e02000c 	lw	v0,12(s0)
9d009518:	ae020000 	sw	v0,0(s0)
9d00951c:	00001025 	move	v0,zero
9d009520:	8fb00010 	lw	s0,16(sp)
9d009524:	03e00008 	jr	ra
9d009528:	27bd0018 	addiu	sp,sp,24
9d00952c:	ac820004 	sw	v0,4(a0)
9d009530:	03e00008 	jr	ra
9d009534:	00001025 	move	v0,zero

Disassembly of section .text._sscanf_cdnopuxX:

9d009538 <_sscanf_cdnopuxX>:
9d009538:	3c02ffff 	lui	v0,0xffff
9d00953c:	27bdffc8 	addiu	sp,sp,-56
9d009540:	24420081 	addiu	v0,v0,129
9d009544:	afbf0034 	sw	ra,52(sp)
9d009548:	afb00030 	sw	s0,48(sp)
9d00954c:	afa5003c 	sw	a1,60(sp)
9d009550:	00808025 	move	s0,a0
9d009554:	afa60040 	sw	a2,64(sp)
9d009558:	afa70044 	sw	a3,68(sp)
9d00955c:	0f4025cb 	jal	9d00972c <strlen>
9d009560:	afa20020 	sw	v0,32(sp)
9d009564:	8fa5003c 	lw	a1,60(sp)
9d009568:	afa20010 	sw	v0,16(sp)
9d00956c:	afa2001c 	sw	v0,28(sp)
9d009570:	3c029d01 	lui	v0,0x9d01
9d009574:	27a60040 	addiu	a2,sp,64
9d009578:	24429dcc 	addiu	v0,v0,-25140
9d00957c:	27a40010 	addiu	a0,sp,16
9d009580:	afb00018 	sw	s0,24(sp)
9d009584:	afb00014 	sw	s0,20(sp)
9d009588:	afa20028 	sw	v0,40(sp)
9d00958c:	0f4007c9 	jal	9d001f24 <do_scan>
9d009590:	afa6002c 	sw	a2,44(sp)
9d009594:	8fbf0034 	lw	ra,52(sp)
9d009598:	8fb00030 	lw	s0,48(sp)
9d00959c:	03e00008 	jr	ra
9d0095a0:	27bd0038 	addiu	sp,sp,56

Disassembly of section .text.memmove:

9d0095a4 <memmove>:
9d0095a4:	0085182b 	sltu	v1,a0,a1
9d0095a8:	14600005 	bnez	v1,9d0095c0 <memmove+0x1c>
9d0095ac:	00801025 	move	v0,a0
9d0095b0:	00a61821 	addu	v1,a1,a2
9d0095b4:	0083182b 	sltu	v1,a0,v1
9d0095b8:	14600008 	bnez	v1,9d0095dc <memmove+0x38>
9d0095bc:	24c7ffff 	addiu	a3,a2,-1
9d0095c0:	27bdffe8 	addiu	sp,sp,-24
9d0095c4:	afbf0014 	sw	ra,20(sp)
9d0095c8:	0f4026e8 	jal	9d009ba0 <memcpy>
9d0095cc:	00402025 	move	a0,v0
9d0095d0:	8fbf0014 	lw	ra,20(sp)
9d0095d4:	03e00008 	jr	ra
9d0095d8:	27bd0018 	addiu	sp,sp,24
9d0095dc:	00001825 	move	v1,zero
9d0095e0:	00063023 	negu	a2,a2
9d0095e4:	14c30003 	bne	a2,v1,9d0095f4 <memmove+0x50>
9d0095e8:	00e32021 	addu	a0,a3,v1
9d0095ec:	03e00008 	jr	ra
9d0095f0:	00000000 	nop
9d0095f4:	00a44021 	addu	t0,a1,a0
9d0095f8:	91080000 	lbu	t0,0(t0)
9d0095fc:	00442021 	addu	a0,v0,a0
9d009600:	2463ffff 	addiu	v1,v1,-1
9d009604:	1000fff7 	b	9d0095e4 <memmove+0x40>
9d009608:	a0880000 	sb	t0,0(a0)

Disassembly of section .text._sprintf_cdnopuxX:

9d00960c <_sprintf_cdnopuxX>:
9d00960c:	3c02ffff 	lui	v0,0xffff
9d009610:	27bdffc8 	addiu	sp,sp,-56
9d009614:	24420082 	addiu	v0,v0,130
9d009618:	afa20020 	sw	v0,32(sp)
9d00961c:	3c027fff 	lui	v0,0x7fff
9d009620:	3442fffe 	ori	v0,v0,0xfffe
9d009624:	afa20010 	sw	v0,16(sp)
9d009628:	3c029d01 	lui	v0,0x9d01
9d00962c:	afa60040 	sw	a2,64(sp)
9d009630:	afa40018 	sw	a0,24(sp)
9d009634:	afa40014 	sw	a0,20(sp)
9d009638:	27a60040 	addiu	a2,sp,64
9d00963c:	24429dcc 	addiu	v0,v0,-25140
9d009640:	27a40010 	addiu	a0,sp,16
9d009644:	afbf0034 	sw	ra,52(sp)
9d009648:	afa70044 	sw	a3,68(sp)
9d00964c:	afa20028 	sw	v0,40(sp)
9d009650:	0f400a6c 	jal	9d0029b0 <_do_print_cdnopuxX>
9d009654:	afa6002c 	sw	a2,44(sp)
9d009658:	8fa30014 	lw	v1,20(sp)
9d00965c:	a0600000 	sb	zero,0(v1)
9d009660:	8fbf0034 	lw	ra,52(sp)
9d009664:	03e00008 	jr	ra
9d009668:	27bd0038 	addiu	sp,sp,56

Disassembly of section .text._buffree:

9d00966c <_buffree>:
9d00966c:	27bdffe8 	addiu	sp,sp,-24
9d009670:	afb00010 	sw	s0,16(sp)
9d009674:	00808025 	move	s0,a0
9d009678:	8c840008 	lw	a0,8(a0)
9d00967c:	1080000f 	beqz	a0,9d0096bc <_buffree+0x50>
9d009680:	afbf0014 	sw	ra,20(sp)
9d009684:	96020010 	lhu	v0,16(s0)
9d009688:	30420010 	andi	v0,v0,0x10
9d00968c:	1040000c 	beqz	v0,9d0096c0 <_buffree+0x54>
9d009690:	8fbf0014 	lw	ra,20(sp)
9d009694:	0f401acf 	jal	9d006b3c <free>
9d009698:	00000000 	nop
9d00969c:	2402ffff 	li	v0,-1
9d0096a0:	ae020004 	sw	v0,4(s0)
9d0096a4:	96020010 	lhu	v0,16(s0)
9d0096a8:	ae000008 	sw	zero,8(s0)
9d0096ac:	ae00000c 	sw	zero,12(s0)
9d0096b0:	3042ffe7 	andi	v0,v0,0xffe7
9d0096b4:	ae000000 	sw	zero,0(s0)
9d0096b8:	a6020010 	sh	v0,16(s0)
9d0096bc:	8fbf0014 	lw	ra,20(sp)
9d0096c0:	8fb00010 	lw	s0,16(sp)
9d0096c4:	03e00008 	jr	ra
9d0096c8:	27bd0018 	addiu	sp,sp,24

Disassembly of section .text.sitofp:

9d0096cc <__floatsisf>:
9d0096cc:	3c018000 10800012 00813024 04810002     ...<....$0......
9d0096dc:	00000000 00042023                       ....# ..

9d0096e4 <i40>:
9d0096e4:	2405009e 	li	a1,158
9d0096e8:	70873820 	clz	a3,a0
9d0096ec:	00a72823 	subu	a1,a1,a3
9d0096f0:	00e42004 	sllv	a0,a0,a3
9d0096f4:	24840080 	addiu	a0,a0,128
9d0096f8:	2c880080 	sltiu	t0,a0,128
9d0096fc:	00a82821 	addu	a1,a1,t0
9d009700:	00044203 	sra	t0,a0,0x8
9d009704:	31080001 	andi	t0,t0,0x1
9d009708:	00882023 	subu	a0,a0,t0
9d00970c:	00042040 	sll	a0,a0,0x1
9d009710:	00042242 	srl	a0,a0,0x9
9d009714:	000545c0 	sll	t0,a1,0x17
9d009718:	00882025 	or	a0,a0,t0

9d00971c <i39>:
9d00971c:	00861025 	or	v0,a0,a2

9d009720 <E999>:
9d009720:	03e00008 	jr	ra
9d009724:	00000000 	nop
9d009728:	00000000 	nop

Disassembly of section .text.strlen:

9d00972c <strlen>:
9d00972c:	30820003 	andi	v0,a0,0x3
9d009730:	10400010 	beqz	v0,9d009774 <strlen+0x48>
9d009734:	3c07fefe 	lui	a3,0xfefe
9d009738:	00801025 	move	v0,a0
9d00973c:	80430000 	lb	v1,0(v0)
9d009740:	5460fffe 	bnezl	v1,9d00973c <strlen+0x10>
9d009744:	24420001 	addiu	v0,v0,1
9d009748:	03e00008 	jr	ra
9d00974c:	00441023 	subu	v0,v0,a0
9d009750:	8c450000 	lw	a1,0(v0)
9d009754:	00a71821 	addu	v1,a1,a3
9d009758:	00052827 	nor	a1,zero,a1
9d00975c:	00651824 	and	v1,v1,a1
9d009760:	00661824 	and	v1,v1,a2
9d009764:	5060fffa 	beqzl	v1,9d009750 <strlen+0x24>
9d009768:	24420004 	addiu	v0,v0,4
9d00976c:	1000fff4 	b	9d009740 <strlen+0x14>
9d009770:	80430000 	lb	v1,0(v0)
9d009774:	3c068080 	lui	a2,0x8080
9d009778:	00801025 	move	v0,a0
9d00977c:	34e7feff 	ori	a3,a3,0xfeff
9d009780:	1000fff3 	b	9d009750 <strlen+0x24>
9d009784:	34c68080 	ori	a2,a2,0x8080

Disassembly of section .text.gsgetc:

9d009788 <gsgetc>:
9d009788:	8c820004 	lw	v0,4(a0)
9d00978c:	27bdffe0 	addiu	sp,sp,-32
9d009790:	afb10018 	sw	s1,24(sp)
9d009794:	2411ffff 	li	s1,-1
9d009798:	afb00014 	sw	s0,20(sp)
9d00979c:	afbf001c 	sw	ra,28(sp)
9d0097a0:	10510006 	beq	v0,s1,9d0097bc <gsgetc+0x34>
9d0097a4:	00808025 	move	s0,a0
9d0097a8:	ac910004 	sw	s1,4(a0)
9d0097ac:	8e030010 	lw	v1,16(s0)
9d0097b0:	24630001 	addiu	v1,v1,1
9d0097b4:	10000005 	b	9d0097cc <gsgetc+0x44>
9d0097b8:	ae030010 	sw	v1,16(s0)
9d0097bc:	0f402515 	jal	9d009454 <fgetc>
9d0097c0:	8c840000 	lw	a0,0(a0)
9d0097c4:	5451fffa 	bnel	v0,s1,9d0097b0 <gsgetc+0x28>
9d0097c8:	8e030010 	lw	v1,16(s0)
9d0097cc:	8fbf001c 	lw	ra,28(sp)
9d0097d0:	8fb10018 	lw	s1,24(sp)
9d0097d4:	8fb00014 	lw	s0,20(sp)
9d0097d8:	03e00008 	jr	ra
9d0097dc:	27bd0020 	addiu	sp,sp,32

Disassembly of section .text.main_entry:

9d0097e0 <_main_entry>:
9d0097e0:	3c040000 	lui	a0,0x0
9d0097e4:	27bdffe8 	addiu	sp,sp,-24
9d0097e8:	24840000 	addiu	a0,a0,0
9d0097ec:	10800003 	beqz	a0,9d0097fc <_main_entry+0x1c>
9d0097f0:	afbf0014 	sw	ra,20(sp)
9d0097f4:	0080f809 	jalr	a0
9d0097f8:	00000000 	nop
9d0097fc:	30840000 	andi	a0,a0,0x0
9d009800:	30a50000 	andi	a1,a1,0x0
9d009804:	3c089d00 	lui	t0,0x9d00
9d009808:	25086ff0 	addiu	t0,t0,28656
9d00980c:	0100f809 	jalr	t0
9d009810:	00000000 	nop

9d009814 <__crt0_exit>:
9d009814:	3c020000 24420000 10400003 00000000     ...<..B$..@.....
9d009824:	0040f809 00000000 1000fff9 00000000     ..@.............

Disassembly of section .text._bufalloc:

9d009834 <_bufalloc>:
9d009834:	27bdffe8 	addiu	sp,sp,-24
9d009838:	afb00010 	sw	s0,16(sp)
9d00983c:	00808025 	move	s0,a0
9d009840:	8c84000c 	lw	a0,12(a0)
9d009844:	1880000d 	blez	a0,9d00987c <_bufalloc+0x48>
9d009848:	afbf0014 	sw	ra,20(sp)
9d00984c:	0f400c45 	jal	9d003114 <malloc>
9d009850:	00000000 	nop
9d009854:	10400009 	beqz	v0,9d00987c <_bufalloc+0x48>
9d009858:	ae020008 	sw	v0,8(s0)
9d00985c:	96030010 	lhu	v1,16(s0)
9d009860:	34630010 	ori	v1,v1,0x10
9d009864:	a6030010 	sh	v1,16(s0)
9d009868:	8fbf0014 	lw	ra,20(sp)
9d00986c:	ae020004 	sw	v0,4(s0)
9d009870:	8fb00010 	lw	s0,16(sp)
9d009874:	03e00008 	jr	ra
9d009878:	27bd0018 	addiu	sp,sp,24
9d00987c:	ae00000c 	sw	zero,12(s0)
9d009880:	1000fff9 	b	9d009868 <_bufalloc+0x34>
9d009884:	2402ffff 	li	v0,-1

Disassembly of section .text._mon_write:

9d009888 <_mon_write>:
9d009888:	10800012 	beqz	a0,9d0098d4 <_mon_write+0x4c>
9d00988c:	00000000 	nop
9d009890:	27bdffe0 	addiu	sp,sp,-32
9d009894:	afb10018 	sw	s1,24(sp)
9d009898:	afb00014 	sw	s0,20(sp)
9d00989c:	afbf001c 	sw	ra,28(sp)
9d0098a0:	00808025 	move	s0,a0
9d0098a4:	00858821 	addu	s1,a0,a1
9d0098a8:	56110006 	bnel	s0,s1,9d0098c4 <_mon_write+0x3c>
9d0098ac:	82040000 	lb	a0,0(s0)
9d0098b0:	8fbf001c 	lw	ra,28(sp)
9d0098b4:	8fb10018 	lw	s1,24(sp)
9d0098b8:	8fb00014 	lw	s0,20(sp)
9d0098bc:	03e00008 	jr	ra
9d0098c0:	27bd0020 	addiu	sp,sp,32
9d0098c4:	0f402149 	jal	9d008524 <_mon_putc>
9d0098c8:	26100001 	addiu	s0,s0,1
9d0098cc:	1000fff6 	b	9d0098a8 <_mon_write+0x20>
9d0098d0:	00000000 	nop
9d0098d4:	03e00008 	jr	ra
9d0098d8:	00000000 	nop

Disassembly of section .text.sbrk:

9d0098dc <sbrk>:
9d0098dc:	27bdffe8 	addiu	sp,sp,-24
9d0098e0:	afb00010 	sw	s0,16(sp)
9d0098e4:	afbf0014 	sw	ra,20(sp)
9d0098e8:	0f402368 	jal	9d008da0 <_sbrk>
9d0098ec:	00808025 	move	s0,a0
9d0098f0:	1a000008 	blez	s0,9d009914 <sbrk+0x38>
9d0098f4:	00401825 	move	v1,v0
9d0098f8:	2402ffff 	li	v0,-1
9d0098fc:	10620005 	beq	v1,v0,9d009914 <sbrk+0x38>
9d009900:	00602025 	move	a0,v1
9d009904:	02003025 	move	a2,s0
9d009908:	0f402707 	jal	9d009c1c <memset>
9d00990c:	00002825 	move	a1,zero
9d009910:	00401825 	move	v1,v0
9d009914:	8fbf0014 	lw	ra,20(sp)
9d009918:	00601025 	move	v0,v1
9d00991c:	8fb00010 	lw	s0,16(sp)
9d009920:	03e00008 	jr	ra
9d009924:	27bd0018 	addiu	sp,sp,24

Disassembly of section .text._bootstrap_exception_handler:

9d009928 <_bootstrap_exception_handler>:
9d009928:	3c020000 	lui	v0,0x0
9d00992c:	24420000 	addiu	v0,v0,0
9d009930:	10400005 	beqz	v0,9d009948 <_bootstrap_exception_handler+0x20>
9d009934:	3c020000 	lui	v0,0x0
9d009938:	24420000 	addiu	v0,v0,0
9d00993c:	10400003 	beqz	v0,9d00994c <_bootstrap_exception_handler+0x24>
9d009940:	3c029d01 	lui	v0,0x9d01
9d009944:	7000003f 	sdbbp
9d009948:	3c029d01 	lui	v0,0x9d01
9d00994c:	24429a48 	addiu	v0,v0,-26040
9d009950:	10400005 	beqz	v0,9d009968 <_bootstrap_exception_handler+0x40>
9d009954:	00000000 	nop
9d009958:	27bdffe8 	addiu	sp,sp,-24
9d00995c:	afbf0014 	sw	ra,20(sp)
9d009960:	0040f809 	jalr	v0
9d009964:	00000000 	nop
9d009968:	1000ffff 	b	9d009968 <_bootstrap_exception_handler+0x40>
9d00996c:	00000000 	nop

Disassembly of section .text._general_exception_handler:

9d009970 <_general_exception_handler>:
9d009970:	3c020000 	lui	v0,0x0
9d009974:	24420000 	addiu	v0,v0,0
9d009978:	10400005 	beqz	v0,9d009990 <_general_exception_handler+0x20>
9d00997c:	3c020000 	lui	v0,0x0
9d009980:	24420000 	addiu	v0,v0,0
9d009984:	10400003 	beqz	v0,9d009994 <_general_exception_handler+0x24>
9d009988:	3c029d01 	lui	v0,0x9d01
9d00998c:	7000003f 	sdbbp
9d009990:	3c029d01 	lui	v0,0x9d01
9d009994:	24429a48 	addiu	v0,v0,-26040
9d009998:	10400005 	beqz	v0,9d0099b0 <_general_exception_handler+0x40>
9d00999c:	00000000 	nop
9d0099a0:	27bdffe8 	addiu	sp,sp,-24
9d0099a4:	afbf0014 	sw	ra,20(sp)
9d0099a8:	0040f809 	jalr	v0
9d0099ac:	00000000 	nop
9d0099b0:	1000ffff 	b	9d0099b0 <_general_exception_handler+0x40>
9d0099b4:	00000000 	nop

Disassembly of section .vector_default:

9d0099b8 <_DefaultInterrupt>:
9d0099b8:	3c020000 	lui	v0,0x0
9d0099bc:	24420000 	addiu	v0,v0,0
9d0099c0:	10400007 	beqz	v0,9d0099e0 <_DefaultInterrupt+0x28>
9d0099c4:	3c020000 	lui	v0,0x0
9d0099c8:	24420000 	addiu	v0,v0,0
9d0099cc:	50400005 	beqzl	v0,9d0099e4 <_DefaultInterrupt+0x2c>
9d0099d0:	3c029d01 	lui	v0,0x9d01
9d0099d4:	7000003f 	sdbbp
9d0099d8:	03e00008 	jr	ra
9d0099dc:	00000000 	nop
9d0099e0:	3c029d01 	lui	v0,0x9d01
9d0099e4:	24429a48 	addiu	v0,v0,-26040
9d0099e8:	10400003 	beqz	v0,9d0099f8 <_DefaultInterrupt+0x40>
9d0099ec:	00000000 	nop
9d0099f0:	0040f809 	jalr	v0
9d0099f4:	00000000 	nop
9d0099f8:	03e00008 	jr	ra
9d0099fc:	00000000 	nop

Disassembly of section .rodata:

9d009a00 <f5pow>:
9d009a00:	00000000 40140000 00000000 40390000     .......@......9@
9d009a10:	00000000 40838800 00000000 4117d784     .......@.......A
9d009a20:	37e08000 4241c379 b5056e17 4493b8b5     ...7y.AB.n.....D
9d009a30:	e93ff9f5 49384f03 f9301d32 52827748     ..?..O8I2.0.Hw.R
9d009a40:	7f73bf3c 65154fdd                       <.s..O.e

Disassembly of section .text:

9d009a48 <__pic32_software_reset>:
9d009a48:	41606000 	di
9d009a4c:	000000c0 	ehb
9d009a50:	3c03aa99 	lui	v1,0xaa99
9d009a54:	3c02bf81 	lui	v0,0xbf81
9d009a58:	24636655 	addiu	v1,v1,26197
9d009a5c:	ac40f230 	sw	zero,-3536(v0)
9d009a60:	ac43f230 	sw	v1,-3536(v0)
9d009a64:	3c035566 	lui	v1,0x5566
9d009a68:	346399aa 	ori	v1,v1,0x99aa
9d009a6c:	ac43f230 	sw	v1,-3536(v0)
9d009a70:	3c02bf81 	lui	v0,0xbf81
9d009a74:	24030001 	li	v1,1
9d009a78:	ac43f618 	sw	v1,-2536(v0)
9d009a7c:	3c02bf81 	lui	v0,0xbf81
9d009a80:	8c42f610 	lw	v0,-2544(v0)
9d009a84:	0b402694 	j	9d009a50 <__pic32_software_reset+0x8>
9d009a88:	00000000 	nop

Disassembly of section .text._io_exit:

9d009a8c <.text._io_exit>:
9d009a8c:	27bdffe8 	addiu	sp,sp,-24
9d009a90:	afb00010 	sw	s0,16(sp)
9d009a94:	3c10a000 	lui	s0,0xa000
9d009a98:	afbf0014 	sw	ra,20(sp)
9d009a9c:	0f40278f 	jal	9d009e3c <_weak_pthread_mutex_lock>
9d009aa0:	260406bc 	addiu	a0,s0,1724
9d009aa4:	3c02a000 	lui	v0,0xa000
9d009aa8:	8c420000 	lw	v0,0(v0)
9d009aac:	24030001 	li	v1,1
9d009ab0:	260406bc 	addiu	a0,s0,1724
9d009ab4:	0f402793 	jal	9d009e4c <_weak_pthread_mutex_unlock>
9d009ab8:	ac430038 	sw	v1,56(v0)
9d009abc:	8fbf0014 	lw	ra,20(sp)
9d009ac0:	8fb00010 	lw	s0,16(sp)
9d009ac4:	03e00008 	jr	ra
9d009ac8:	27bd0018 	addiu	sp,sp,24

Disassembly of section .text._weak_pthread_once:

9d009acc <_weak_pthread_once>:
9d009acc:	8c820000 	lw	v0,0(a0)
9d009ad0:	1440000b 	bnez	v0,9d009b00 <_weak_pthread_once+0x34>
9d009ad4:	00000000 	nop
9d009ad8:	24020002 	li	v0,2
9d009adc:	27bdffe8 	addiu	sp,sp,-24
9d009ae0:	ac820000 	sw	v0,0(a0)
9d009ae4:	afbf0014 	sw	ra,20(sp)
9d009ae8:	00a0f809 	jalr	a1
9d009aec:	00000000 	nop
9d009af0:	8fbf0014 	lw	ra,20(sp)
9d009af4:	00001025 	move	v0,zero
9d009af8:	03e00008 	jr	ra
9d009afc:	27bd0018 	addiu	sp,sp,24
9d009b00:	03e00008 	jr	ra
9d009b04:	00001025 	move	v0,zero

Disassembly of section .text._filbuf_simple:

9d009b08 <_filbuf_simple>:
9d009b08:	8c820004 	lw	v0,4(a0)
9d009b0c:	2403ffff 	li	v1,-1
9d009b10:	10430003 	beq	v0,v1,9d009b20 <_filbuf_simple+0x18>
9d009b14:	ac800000 	sw	zero,0(a0)
9d009b18:	03e00008 	jr	ra
9d009b1c:	ac830004 	sw	v1,4(a0)
9d009b20:	27bdffe8 	addiu	sp,sp,-24
9d009b24:	afbf0014 	sw	ra,20(sp)
9d009b28:	0f4020fc 	jal	9d0083f0 <_mon_getc>
9d009b2c:	24040001 	li	a0,1
9d009b30:	8fbf0014 	lw	ra,20(sp)
9d009b34:	03e00008 	jr	ra
9d009b38:	27bd0018 	addiu	sp,sp,24

Disassembly of section .text._cleanup:

9d009b3c <_cleanup>:
9d009b3c:	3c02a000 	lui	v0,0xa000
9d009b40:	8c4206e0 	lw	v0,1760(v0)
9d009b44:	10400008 	beqz	v0,9d009b68 <_cleanup+0x2c>
9d009b48:	00000000 	nop
9d009b4c:	27bdffe8 	addiu	sp,sp,-24
9d009b50:	afbf0014 	sw	ra,20(sp)
9d009b54:	0040f809 	jalr	v0
9d009b58:	00000000 	nop
9d009b5c:	8fbf0014 	lw	ra,20(sp)
9d009b60:	03e00008 	jr	ra
9d009b64:	27bd0018 	addiu	sp,sp,24
9d009b68:	03e00008 	jr	ra
9d009b6c:	00000000 	nop

Disassembly of section .text._fsync_simple:

9d009b70 <_fsync_simple>:
9d009b70:	94830010 	lhu	v1,16(a0)
9d009b74:	00652824 	and	a1,v1,a1
9d009b78:	10a00007 	beqz	a1,9d009b98 <_fsync_simple+0x28>
9d009b7c:	24020001 	li	v0,1
9d009b80:	34630040 	ori	v1,v1,0x40
9d009b84:	3c02a000 	lui	v0,0xa000
9d009b88:	a4830010 	sh	v1,16(a0)
9d009b8c:	24030009 	li	v1,9
9d009b90:	ac430088 	sw	v1,136(v0)
9d009b94:	00001025 	move	v0,zero
9d009b98:	03e00008 	jr	ra
9d009b9c:	00000000 	nop

Disassembly of section .text.memcpy:

9d009ba0 <memcpy>:
9d009ba0:	00801025 	move	v0,a0
9d009ba4:	00001825 	move	v1,zero
9d009ba8:	14c30003 	bne	a2,v1,9d009bb8 <memcpy+0x18>
9d009bac:	00a32021 	addu	a0,a1,v1
9d009bb0:	03e00008 	jr	ra
9d009bb4:	00000000 	nop
9d009bb8:	90870000 	lbu	a3,0(a0)
9d009bbc:	00432021 	addu	a0,v0,v1
9d009bc0:	24630001 	addiu	v1,v1,1
9d009bc4:	1000fff8 	b	9d009ba8 <memcpy+0x8>
9d009bc8:	a0870000 	sb	a3,0(a0)

Disassembly of section .text._stub_sbd_memlayout:

9d009bcc <_stub_sbd_memlayout>:
9d009bcc:	3c04a000 	lui	a0,0xa000
9d009bd0:	24820698 	addiu	v0,a0,1688
9d009bd4:	24030001 	li	v1,1
9d009bd8:	ac430008 	sw	v1,8(v0)
9d009bdc:	3c03a000 	lui	v1,0xa000
9d009be0:	246306e8 	addiu	v1,v1,1768
9d009be4:	ac830698 	sw	v1,1688(a0)
9d009be8:	3c030000 	lui	v1,0x0
9d009bec:	24630000 	addiu	v1,v1,0
9d009bf0:	03e00008 	jr	ra
9d009bf4:	ac430004 	sw	v1,4(v0)

Disassembly of section .text.putchar:

9d009bf8 <putchar>:
9d009bf8:	3c02a000 	lui	v0,0xa000
9d009bfc:	8c420000 	lw	v0,0(v0)
9d009c00:	27bdffe8 	addiu	sp,sp,-24
9d009c04:	afbf0014 	sw	ra,20(sp)
9d009c08:	0f4023e7 	jal	9d008f9c <fputc>
9d009c0c:	8c450004 	lw	a1,4(v0)
9d009c10:	8fbf0014 	lw	ra,20(sp)
9d009c14:	03e00008 	jr	ra
9d009c18:	27bd0018 	addiu	sp,sp,24

Disassembly of section .text.memset:

9d009c1c <memset>:
9d009c1c:	00801025 	move	v0,a0
9d009c20:	00863021 	addu	a2,a0,a2
9d009c24:	00801825 	move	v1,a0
9d009c28:	14660003 	bne	v1,a2,9d009c38 <memset+0x1c>
9d009c2c:	24630001 	addiu	v1,v1,1
9d009c30:	03e00008 	jr	ra
9d009c34:	00000000 	nop
9d009c38:	1000fffb 	b	9d009c28 <memset+0xc>
9d009c3c:	a065ffff 	sb	a1,-1(v1)

Disassembly of section .text.getchar:

9d009c40 <getchar>:
9d009c40:	3c02a000 	lui	v0,0xa000
9d009c44:	8c420000 	lw	v0,0(v0)
9d009c48:	27bdffe8 	addiu	sp,sp,-24
9d009c4c:	afbf0014 	sw	ra,20(sp)
9d009c50:	0f402515 	jal	9d009454 <fgetc>
9d009c54:	8c440000 	lw	a0,0(v0)
9d009c58:	8fbf0014 	lw	ra,20(sp)
9d009c5c:	03e00008 	jr	ra
9d009c60:	27bd0018 	addiu	sp,sp,24

Disassembly of section .rodata:

9d009c64 <spaceData>:
9d009c64:	20202020 20202020 20202020 20202020                     
9d009c74:	20202020 20202020 20202020 20202020                     

Disassembly of section .text._vfprintf_cdnopuxX:

9d009c84 <_vfprintf_cdnopuxX>:
9d009c84:	27bdffe8 	addiu	sp,sp,-24
9d009c88:	afbf0014 	sw	ra,20(sp)
9d009c8c:	0f400a6c 	jal	9d0029b0 <_do_print_cdnopuxX>
9d009c90:	00000000 	nop
9d009c94:	8fbf0014 	lw	ra,20(sp)
9d009c98:	03e00008 	jr	ra
9d009c9c:	27bd0018 	addiu	sp,sp,24

Disassembly of section .text.putc:

9d009ca0 <putc>:
9d009ca0:	27bdffe8 	addiu	sp,sp,-24
9d009ca4:	afbf0014 	sw	ra,20(sp)
9d009ca8:	0f4023e7 	jal	9d008f9c <fputc>
9d009cac:	00000000 	nop
9d009cb0:	8fbf0014 	lw	ra,20(sp)
9d009cb4:	03e00008 	jr	ra
9d009cb8:	27bd0018 	addiu	sp,sp,24

Disassembly of section .text.vfscanf:

9d009cbc <vfscanf>:
9d009cbc:	27bdffe8 	addiu	sp,sp,-24
9d009cc0:	afbf0014 	sw	ra,20(sp)
9d009cc4:	0f4007c9 	jal	9d001f24 <do_scan>
9d009cc8:	00000000 	nop
9d009ccc:	8fbf0014 	lw	ra,20(sp)
9d009cd0:	03e00008 	jr	ra
9d009cd4:	27bd0018 	addiu	sp,sp,24

Disassembly of section .text.strtod:

9d009cd8 <strtod>:
9d009cd8:	27bdffe8 	addiu	sp,sp,-24
9d009cdc:	afbf0014 	sw	ra,20(sp)
9d009ce0:	0f401307 	jal	9d004c1c <__strtod>
9d009ce4:	00000000 	nop
9d009ce8:	8fbf0014 	lw	ra,20(sp)
9d009cec:	03e00008 	jr	ra
9d009cf0:	27bd0018 	addiu	sp,sp,24

Disassembly of section .text.strtof:

9d009cf4 <strtof>:
9d009cf4:	27bdffe8 	addiu	sp,sp,-24
9d009cf8:	afbf0014 	sw	ra,20(sp)
9d009cfc:	0f40171b 	jal	9d005c6c <__strtof>
9d009d00:	00000000 	nop
9d009d04:	8fbf0014 	lw	ra,20(sp)
9d009d08:	03e00008 	jr	ra
9d009d0c:	27bd0018 	addiu	sp,sp,24

Disassembly of section .text.getc:

9d009d10 <getc>:
9d009d10:	27bdffe8 	addiu	sp,sp,-24
9d009d14:	afbf0014 	sw	ra,20(sp)
9d009d18:	0f402515 	jal	9d009454 <fgetc>
9d009d1c:	00000000 	nop
9d009d20:	8fbf0014 	lw	ra,20(sp)
9d009d24:	03e00008 	jr	ra
9d009d28:	27bd0018 	addiu	sp,sp,24

Disassembly of section .text.negdf2:

9d009d2c <__negdf2>:
9d009d2c:	3c018000 00a12826 00041025 00051825     ...<&(..%...%...

9d009d3c <M999>:
9d009d3c:	03e00008 	jr	ra
9d009d40:	00000000 	nop
9d009d44:	00000000 	nop

Disassembly of section .text:

9d009d60 <_nmi_handler>:
9d009d60:	401a6000 	mfc0	k0,c0_status
9d009d64:	3c1bffbf 	lui	k1,0xffbf
9d009d68:	377bffff 	ori	k1,k1,0xffff
9d009d6c:	035bd024 	and	k0,k0,k1
9d009d70:	409a6000 	mtc0	k0,c0_status
9d009d74:	42000018 	eret

Disassembly of section .rodata:

9d009d78 <f5pow>:
9d009d78:	40a00000 41c80000 441c4000 48bebc20     ...@...A.@.D ..H
9d009d88:	520e1bca 649dc5ae                       ...R...d

Disassembly of section .text._io_exit:

9d009d90 <_io_exit>:
9d009d90:	3c02a000 	lui	v0,0xa000
9d009d94:	8c420000 	lw	v0,0(v0)
9d009d98:	24030001 	li	v1,1
9d009d9c:	03e00008 	jr	ra
9d009da0:	ac430038 	sw	v1,56(v0)

Disassembly of section .rodata:

9d009da4 <_io_funcs>:
9d009da4:	9d009b08 9d008bfc 9d0094c8 9d0093e0     ................
9d009db4:	9d009b70                                p...

Disassembly of section .text._io_exit:

9d009db8 <.text._io_exit>:
9d009db8:	3c02a000 	lui	v0,0xa000
9d009dbc:	8c420000 	lw	v0,0(v0)
9d009dc0:	24030001 	li	v1,1
9d009dc4:	03e00008 	jr	ra
9d009dc8:	ac430038 	sw	v1,56(v0)

Disassembly of section .rodata:

9d009dcc <_io_strfuncs>:
9d009dcc:	9d009e04 9d009e0c 9d009e14 9d009e1c     ................
9d009ddc:	9d009e24                                $...

Disassembly of section .text.negsf2:

9d009de0 <__negsf2>:
9d009de0:	3c018000 00811026                       ...<&...

9d009de8 <L999>:
9d009de8:	03e00008 	jr	ra
9d009dec:	00000000 	nop
9d009df0:	00000000 	nop

Disassembly of section .text._on_reset:

9d009df4 <_on_reset>:
9d009df4:	03e00008 	jr	ra
9d009df8:	00000000 	nop

Disassembly of section .text._on_bootstrap:

9d009dfc <_on_bootstrap>:
9d009dfc:	03e00008 	jr	ra
9d009e00:	00000000 	nop

Disassembly of section .text._filbuf_string:

9d009e04 <_filbuf_string>:
9d009e04:	03e00008 	jr	ra
9d009e08:	2402ffff 	li	v0,-1

Disassembly of section .text._flsbuf_string:

9d009e0c <_flsbuf_string>:
9d009e0c:	03e00008 	jr	ra
9d009e10:	00801025 	move	v0,a0

Disassembly of section .text._fflush_string:

9d009e14 <_fflush_string>:
9d009e14:	03e00008 	jr	ra
9d009e18:	00001025 	move	v0,zero

Disassembly of section .text._fwrite_string:

9d009e1c <_fwrite_string>:
9d009e1c:	03e00008 	jr	ra
9d009e20:	00001025 	move	v0,zero

Disassembly of section .text._fsync_string:

9d009e24 <_fsync_string>:
9d009e24:	03e00008 	jr	ra
9d009e28:	24020001 	li	v0,1

Disassembly of section .text._weak_pthread_mutex_init:

9d009e2c <_weak_pthread_mutex_init>:
9d009e2c:	03e00008 	jr	ra
9d009e30:	00001025 	move	v0,zero

Disassembly of section .text._weak_pthread_mutex_destroy:

9d009e34 <_weak_pthread_mutex_destroy>:
9d009e34:	03e00008 	jr	ra
9d009e38:	00001025 	move	v0,zero

Disassembly of section .text._weak_pthread_mutex_lock:

9d009e3c <_weak_pthread_mutex_lock>:
9d009e3c:	03e00008 	jr	ra
9d009e40:	00001025 	move	v0,zero

Disassembly of section .text._weak_pthread_mutex_trylock:

9d009e44 <_weak_pthread_mutex_trylock>:
9d009e44:	03e00008 	jr	ra
9d009e48:	00001025 	move	v0,zero

Disassembly of section .text._weak_pthread_mutex_unlock:

9d009e4c <_weak_pthread_mutex_unlock>:
9d009e4c:	03e00008 	jr	ra
9d009e50:	00001025 	move	v0,zero

Disassembly of section .text._weak_pthread_mutex_setname_np:

9d009e54 <_weak_pthread_mutex_setname_np>:
9d009e54:	03e00008 	jr	ra
9d009e58:	00001025 	move	v0,zero

Disassembly of section .text._weak_pthread_mutexattr_init:

9d009e5c <_weak_pthread_mutexattr_init>:
9d009e5c:	03e00008 	jr	ra
9d009e60:	00001025 	move	v0,zero

Disassembly of section .text._weak_pthread_mutexattr_destroy:

9d009e64 <_weak_pthread_mutexattr_destroy>:
9d009e64:	03e00008 	jr	ra
9d009e68:	00001025 	move	v0,zero

Disassembly of section .text._weak_pthread_mutexattr_setname_np:

9d009e6c <_weak_pthread_mutexattr_setname_np>:
9d009e6c:	03e00008 	jr	ra
9d009e70:	00001025 	move	v0,zero

Disassembly of section .text._weak_pthread_mutexattr_settype_np:

9d009e74 <_weak_pthread_mutexattr_settype_np>:
9d009e74:	03e00008 	jr	ra
9d009e78:	00001025 	move	v0,zero

Disassembly of section .text._weak_pthread_sysconf_np:

9d009e7c <_weak_pthread_sysconf_np>:
9d009e7c:	03e00008 	jr	ra
9d009e80:	2402ffff 	li	v0,-1

Disassembly of section .text._weak_pthread_sigdisable_np:

9d009e84 <_weak_pthread_sigdisable_np>:
9d009e84:	03e00008 	jr	ra
9d009e88:	00000000 	nop

Disassembly of section .text._weak_pthread_sigrestore_np:

9d009e8c <_weak_pthread_sigrestore_np>:
9d009e8c:	03e00008 	jr	ra
9d009e90:	00000000 	nop

Disassembly of section .text._weak__pthread_cleanup_push:

9d009e94 <_weak__pthread_cleanup_push>:
9d009e94:	03e00008 	jr	ra
9d009e98:	00000000 	nop

Disassembly of section .text._weak__pthread_cleanup_pop:

9d009e9c <_weak__pthread_cleanup_pop>:
9d009e9c:	03e00008 	jr	ra
9d009ea0:	00000000 	nop

Disassembly of section .text._weak__pthread_cleanup_push_defer:

9d009ea4 <_weak__pthread_cleanup_push_defer>:
9d009ea4:	03e00008 	jr	ra
9d009ea8:	00000000 	nop

Disassembly of section .text._weak__pthread_cleanup_pop_restore:

9d009eac <_weak__pthread_cleanup_pop_restore>:
9d009eac:	03e00008 	jr	ra
9d009eb0:	00000000 	nop

Disassembly of section .text._weak_pthread_key_create:

9d009eb4 <_weak_pthread_key_create>:
9d009eb4:	03e00008 	jr	ra
9d009eb8:	2402ffff 	li	v0,-1

Disassembly of section .text._weak_pthread_setspecific:

9d009ebc <_weak_pthread_setspecific>:
9d009ebc:	03e00008 	jr	ra
9d009ec0:	2402ffff 	li	v0,-1

Disassembly of section .text._weak_pthread_getspecific:

9d009ec4 <_weak_pthread_getspecific>:
9d009ec4:	03e00008 	jr	ra
9d009ec8:	00001025 	move	v0,zero

Disassembly of section .text._weak__libc_private_storage:

9d009ecc <_weak__libc_private_storage>:
9d009ecc:	03e00008 	jr	ra
9d009ed0:	00a01025 	move	v0,a1

Disassembly of section .text.getpagesize:

9d009ed4 <getpagesize>:
9d009ed4:	03e00008 	jr	ra
9d009ed8:	24020080 	li	v0,128

Disassembly of section .text._exit:

9d009edc <_exit>:
9d009edc:	1000ffff 	b	9d009edc <_exit>
9d009ee0:	00000000 	nop

Disassembly of section .text.isatty:

9d009ee4 <isatty>:
9d009ee4:	03e00008 	jr	ra
9d009ee8:	00001025 	move	v0,zero
